----------------
IN: 
Priv: 3; Virt: 0
0x00001000:  0000              illegal                 

----------------
IN: 
Priv: 3; Virt: 0
0x00000000:  00000297          auipc                   t0,0                    # 0x0
0x00000004:  02828613          addi                    a2,t0,40
0x00000008:  f1402573          csrrs                   a0,mhartid,zero

----------------
IN: 
Priv: 3; Virt: 0
0x00001000:  0000              illegal                 

----------------
IN: 
Priv: 3; Virt: 0
0x00001000:  0000              illegal                 

----------------
IN: 
Priv: 3; Virt: 0
0x00001000:  0000              illegal                 

----------------
IN: 
Priv: 3; Virt: 0
0x00001000:  0000              illegal                 

----------------
IN: 
Priv: 3; Virt: 0
0x0000000c:  0202b583          ld                      a1,32(t0)
0x00000010:  0182b283          ld                      t0,24(t0)
0x00000014:  00028067          jr                      t0

----------------
IN: 
Priv: 3; Virt: 0
0x0000000c:  0202b583          ld                      a1,32(t0)
0x00000010:  0182b283          ld                      t0,24(t0)
0x00000014:  00028067          jr                      t0

----------------
IN: 
Priv: 3; Virt: 0
0x20000000:  20200513          addi                    a0,zero,514
0x20000004:  0552              slli                    a0,a0,20
0x20000006:  6585              lui                     a1,1
0x20000008:  8005859b          addiw                   a1,a1,-2048
0x2000000c:  05d2              slli                    a1,a1,20
0x2000000e:  6605              lui                     a2,1
0x20000010:  8026061b          addiw                   a2,a2,-2046
0x20000014:  0652              slli                    a2,a2,20
0x20000016:  00c5fa63          bleu                    a2,a1,20                # 0x2000002a

----------------
IN: 
Priv: 3; Virt: 0
0x00001000:  0000              illegal                 

----------------
IN: 
Priv: 3; Virt: 0
0x0000000c:  0202b583          ld                      a1,32(t0)
0x00000010:  0182b283          ld                      t0,24(t0)
0x00000014:  00028067          jr                      t0

----------------
IN: 
Priv: 3; Virt: 0
0x0000000c:  0202b583          ld                      a1,32(t0)
0x00000010:  0182b283          ld                      t0,24(t0)
0x00000014:  00028067          jr                      t0

----------------
IN: 
Priv: 3; Virt: 0
0x20000000:  20200513          addi                    a0,zero,514
0x20000004:  0552              slli                    a0,a0,20
0x20000006:  6585              lui                     a1,1
0x20000008:  8005859b          addiw                   a1,a1,-2048
0x2000000c:  05d2              slli                    a1,a1,20
0x2000000e:  6605              lui                     a2,1
0x20000010:  8026061b          addiw                   a2,a2,-2046
0x20000014:  0652              slli                    a2,a2,20
0x20000016:  00c5fa63          bleu                    a2,a1,20                # 0x2000002a

----------------
IN: 
Priv: 3; Virt: 0
0x2000001a:  00052283          lw                      t0,0(a0)
0x2000001e:  0055a023          sw                      t0,0(a1)
0x20000022:  0511              addi                    a0,a0,4
0x20000024:  0591              addi                    a1,a1,4
0x20000026:  fec5eae3          bgtu                    a2,a1,-12               # 0x2000001a

----------------
IN: 
Priv: 3; Virt: 0
0x2000001a:  00052283          lw                      t0,0(a0)
0x2000001e:  0055a023          sw                      t0,0(a1)
0x20000022:  0511              addi                    a0,a0,4
0x20000024:  0591              addi                    a1,a1,4
0x20000026:  fec5eae3          bgtu                    a2,a1,-12               # 0x2000001a

----------------
IN: 
Priv: 3; Virt: 0
0x2000001a:  00052283          lw                      t0,0(a0)
0x2000001e:  0055a023          sw                      t0,0(a1)
0x20000022:  0511              addi                    a0,a0,4
0x20000024:  0591              addi                    a1,a1,4
0x20000026:  fec5eae3          bgtu                    a2,a1,-12               # 0x2000001a

----------------
IN: 
Priv: 3; Virt: 0
0x2000001a:  00052283          lw                      t0,0(a0)
0x2000001e:  0055a023          sw                      t0,0(a1)
0x20000022:  0511              addi                    a0,a0,4
0x20000024:  0591              addi                    a1,a1,4
0x20000026:  fec5eae3          bgtu                    a2,a1,-12               # 0x2000001a

----------------
IN: 
Priv: 3; Virt: 0
0x2000001a:  00052283          lw                      t0,0(a0)
0x2000001e:  0055a023          sw                      t0,0(a1)
0x20000022:  0511              addi                    a0,a0,4
0x20000024:  0591              addi                    a1,a1,4
0x20000026:  fec5eae3          bgtu                    a2,a1,-12               # 0x2000001a

----------------
IN: 
Priv: 3; Virt: 0
0x0000000c:  0202b583          ld                      a1,32(t0)
0x00000010:  0182b283          ld                      t0,24(t0)
0x00000014:  00028067          jr                      t0

----------------
IN: 
Priv: 3; Virt: 0
0x0000000c:  0202b583          ld                      a1,32(t0)
0x00000010:  0182b283          ld                      t0,24(t0)
0x00000014:  00028067          jr                      t0

----------------
IN: 
Priv: 3; Virt: 0
0x00001000:  0000              illegal                 

----------------
IN: 
Priv: 3; Virt: 0
0x2000002a:  6509              lui                     a0,2
0x2000002c:  2521              addiw                   a0,a0,8
0x2000002e:  0542              slli                    a0,a0,16
0x20000030:  6585              lui                     a1,1
0x20000032:  8225859b          addiw                   a1,a1,-2014
0x20000036:  05d2              slli                    a1,a1,20
0x20000038:  6621              lui                     a2,8
0x2000003a:  2286061b          addiw                   a2,a2,552
0x2000003e:  0642              slli                    a2,a2,16
0x20000040:  00c5fa63          bleu                    a2,a1,20                # 0x20000054

----------------
IN: 
Priv: 3; Virt: 0
0x20000044:  00052283          lw                      t0,0(a0)
0x20000048:  0055a023          sw                      t0,0(a1)
0x2000004c:  0511              addi                    a0,a0,4
0x2000004e:  0591              addi                    a1,a1,4
0x20000050:  fec5eae3          bgtu                    a2,a1,-12               # 0x20000044

----------------
IN: 
Priv: 3; Virt: 0
0x20000054:  f1402573          csrrs                   a0,mhartid,zero

----------------
IN: 
Priv: 3; Virt: 0
0x20000058:  4281              mv                      t0,zero
0x2000005a:  00550e63          beq                     a0,t0,28                # 0x20000076

----------------
IN: 
Priv: 3; Virt: 0
0x2000005e:  6341              lui                     t1,16
0x20000060:  337d              addiw                   t1,t1,-1
0x20000062:  6385              lui                     t2,1
0x20000064:  0001              nop                     
0x20000066:  137d              addi                    t1,t1,-1
0x20000068:  fe031ee3          bnez                    t1,-4                   # 0x20000064

----------------
IN: 
Priv: 3; Virt: 0
0x20000064:  0001              nop                     
0x20000066:  137d              addi                    t1,t1,-1
0x20000068:  fe031ee3          bnez                    t1,-4                   # 0x20000064

----------------
IN: 
Priv: 3; Virt: 0
0x2000006c:  6341              lui                     t1,16
0x2000006e:  337d              addiw                   t1,t1,-1
0x20000070:  13fd              addi                    t2,t2,-1
0x20000072:  fe0399e3          bnez                    t2,-14                  # 0x20000064

----------------
IN: 
Priv: 3; Virt: 0
0x20000076:  6585              lui                     a1,1
0x20000078:  8225859b          addiw                   a1,a1,-2014
0x2000007c:  05d2              slli                    a1,a1,20
0x2000007e:  6285              lui                     t0,1
0x20000080:  8002829b          addiw                   t0,t0,-2048
0x20000084:  02d2              slli                    t0,t0,20
0x20000086:  8282              jr                      t0

----------------
IN: 
Priv: 3; Virt: 0
0x80000000:  00050433          add                     s0,a0,zero
0x80000004:  000584b3          add                     s1,a1,zero
0x80000008:  00060933          add                     s2,a2,zero
0x8000000c:  54c000ef          jal                     ra,1356                 # 0x80000558

----------------
IN: 
Priv: 3; Virt: 0
0x80000558:  557d              addi                    a0,zero,-1
0x8000055a:  8082              ret                     

----------------
IN: 
Priv: 3; Virt: 0
0x80000010:  00050833          add                     a6,a0,zero
0x80000014:  00040533          add                     a0,s0,zero
0x80000018:  000485b3          add                     a1,s1,zero
0x8000001c:  00090633          add                     a2,s2,zero
0x80000020:  58fd              addi                    a7,zero,-1
0x80000022:  01180463          beq                     a6,a7,8                 # 0x8000002a

----------------
IN: 
Priv: 3; Virt: 0
0x8000002a:  00018817          auipc                   a6,24                   # 0x8001802a
0x8000002e:  fde80813          addi                    a6,a6,-34
0x80000032:  4885              addi                    a7,zero,1
0x80000034:  0118282f          amoadd.w                a6,a7,(a6)
0x80000038:  0a081463          bnez                    a6,168                  # 0x800000e0

----------------
IN: 
Priv: 3; Virt: 0
0x8000003c:  00018297          auipc                   t0,24                   # 0x8001803c
0x80000040:  fdc28293          addi                    t0,t0,-36
0x80000044:  00000317          auipc                   t1,0                    # 0x80000044
0x80000048:  fbc30313          addi                    t1,t1,-68
0x8000004c:  0062b023          sd                      t1,0(t0)
0x80000050:  00018297          auipc                   t0,24                   # 0x80018050
0x80000054:  fd028293          addi                    t0,t0,-48
0x80000058:  0002b283          ld                      t0,0(t0)
0x8000005c:  405303b3          sub                     t2,t1,t0
0x80000060:  00018e17          auipc                   t3,24                   # 0x80018060
0x80000064:  fa0e0e13          addi                    t3,t3,-96
0x80000068:  007e3023          sd                      t2,0(t3)
0x8000006c:  00019297          auipc                   t0,25                   # 0x8001906c
0x80000070:  6b428293          addi                    t0,t0,1716
0x80000074:  0001b317          auipc                   t1,27                   # 0x8001b074
0x80000078:  19430313          addi                    t1,t1,404
0x8000007c:  06628363          beq                     t0,t1,102               # 0x800000e2

----------------
IN: 
Priv: 3; Virt: 0
0x80000080:  a8a1              j                       88                      # 0x800000d8

----------------
IN: 
Priv: 3; Virt: 0
0x800000d8:  02e1              addi                    t0,t0,24
0x800000da:  fa5354e3          ble                     t0,t1,-88               # 0x80000082

----------------
IN: 
Priv: 3; Virt: 0
0x80000082:  ff02bf03          ld                      t5,-16(t0)
0x80000086:  4e0d              addi                    t3,zero,3
0x80000088:  01cf1b63          bne                     t5,t3,22                # 0x8000009e

----------------
IN: 
Priv: 3; Virt: 0
0x8000008c:  fe82be03          ld                      t3,-24(t0)
0x80000090:  ff82bf03          ld                      t5,-8(t0)
0x80000094:  9f1e              add                     t5,t5,t2
0x80000096:  9e1e              add                     t3,t3,t2
0x80000098:  01ee3023          sd                      t5,0(t3)
0x8000009c:  a835              j                       60                      # 0x800000d8

----------------
IN: 
Priv: 3; Virt: 0
0x800000de:  a011              j                       4                       # 0x800000e2

----------------
IN: 
Priv: 3; Virt: 0
0x800000e2:  00018297          auipc                   t0,24                   # 0x800180e2
0x800000e6:  f2e28293          addi                    t0,t0,-210
0x800000ea:  4305              addi                    t1,zero,1
0x800000ec:  0062b023          sd                      t1,0(t0)
0x800000f0:  0330000f          fence                   rw,rw
0x800000f4:  4081              mv                      ra,zero
0x800000f6:  422000ef          jal                     ra,1058                 # 0x80000518

----------------
IN: 
Priv: 3; Virt: 0
0x80000518:  0000100f          fence.i                 

----------------
IN: 
Priv: 3; Virt: 0
0x8000051c:  4101              mv                      sp,zero
0x8000051e:  4181              mv                      gp,zero
0x80000520:  4201              mv                      tp,zero
0x80000522:  4281              mv                      t0,zero
0x80000524:  4301              mv                      t1,zero
0x80000526:  4381              mv                      t2,zero
0x80000528:  4401              mv                      s0,zero
0x8000052a:  4481              mv                      s1,zero
0x8000052c:  4681              mv                      a3,zero
0x8000052e:  4701              mv                      a4,zero
0x80000530:  4781              mv                      a5,zero
0x80000532:  4801              mv                      a6,zero
0x80000534:  4881              mv                      a7,zero
0x80000536:  4901              mv                      s2,zero
0x80000538:  4981              mv                      s3,zero
0x8000053a:  4a01              mv                      s4,zero
0x8000053c:  4a81              mv                      s5,zero
0x8000053e:  4b01              mv                      s6,zero
0x80000540:  4b81              mv                      s7,zero
0x80000542:  4c01              mv                      s8,zero
0x80000544:  4c81              mv                      s9,zero
0x80000546:  4d01              mv                      s10,zero
0x80000548:  4d81              mv                      s11,zero
0x8000054a:  4e01              mv                      t3,zero
0x8000054c:  4e81              mv                      t4,zero
0x8000054e:  4f01              mv                      t5,zero
0x80000550:  4f81              mv                      t6,zero
0x80000552:  34005073          csrrwi                  zero,mscratch,0

----------------
IN: 
Priv: 3; Virt: 0
0x80000556:  8082              ret                     

----------------
IN: 
Priv: 3; Virt: 0
0x800000fa:  0001ca17          auipc                   s4,28                   # 0x8001c0fa
0x800000fe:  f06a0a13          addi                    s4,s4,-250
0x80000102:  00031a97          auipc                   s5,49                   # 0x80031102
0x80000106:  a66a8a93          addi                    s5,s5,-1434
0x8000010a:  000a3023          sd                      zero,0(s4)
0x8000010e:  0a21              addi                    s4,s4,8
0x80000110:  ff5a4de3          bgt                     s5,s4,-6                # 0x8000010a

----------------
IN: 
Priv: 3; Virt: 0
0x8000010a:  000a3023          sd                      zero,0(s4)
0x8000010e:  0a21              addi                    s4,s4,8
0x80000110:  ff5a4de3          bgt                     s5,s4,-6                # 0x8000010a

----------------
IN: 
Priv: 3; Virt: 0
0x80000114:  00000a17          auipc                   s4,0                    # 0x80000114
0x80000118:  2e4a0a13          addi                    s4,s4,740
0x8000011c:  305a1073          csrrw                   zero,mtvec,s4

----------------
IN: 
Priv: 3; Virt: 0
0x80000120:  00031a17          auipc                   s4,49                   # 0x80031120
0x80000124:  ee0a0a13          addi                    s4,s4,-288
0x80000128:  6a89              lui                     s5,2
0x8000012a:  015a0133          add                     sp,s4,s5
0x8000012e:  00050433          add                     s0,a0,zero
0x80000132:  000584b3          add                     s1,a1,zero
0x80000136:  00060933          add                     s2,a2,zero
0x8000013a:  000689b3          add                     s3,a3,zero
0x8000013e:  00070a33          add                     s4,a4,zero
0x80000142:  41e000ef          jal                     ra,1054                 # 0x80000560

----------------
IN: 
Priv: 3; Virt: 0
0x80000560:  8082              ret                     

----------------
IN: 
Priv: 3; Virt: 0
0x80000146:  00040533          add                     a0,s0,zero
0x8000014a:  000485b3          add                     a1,s1,zero
0x8000014e:  00090633          add                     a2,s2,zero
0x80000152:  000986b3          add                     a3,s3,zero
0x80000156:  000a0733          add                     a4,s4,zero
0x8000015a:  00050433          add                     s0,a0,zero
0x8000015e:  000584b3          add                     s1,a1,zero
0x80000162:  00060933          add                     s2,a2,zero
0x80000166:  000689b3          add                     s3,a3,zero
0x8000016a:  00070a33          add                     s4,a4,zero
0x8000016e:  1b9030ef          jal                     ra,14776                # 0x80003b26

----------------
IN: 
Priv: 3; Virt: 0
0x80003b26:  715d              addi                    sp,sp,-80
0x80003b28:  e0a2              sd                      s0,64(sp)
0x80003b2a:  fc26              sd                      s1,56(sp)
0x80003b2c:  e486              sd                      ra,72(sp)
0x80003b2e:  f84a              sd                      s2,48(sp)
0x80003b30:  f44e              sd                      s3,40(sp)
0x80003b32:  f052              sd                      s4,32(sp)
0x80003b34:  ec56              sd                      s5,24(sp)
0x80003b36:  e85a              sd                      s6,16(sp)
0x80003b38:  0880              addi                    s0,sp,80
0x80003b3a:  84ae              mv                      s1,a1
0x80003b3c:  00012597          auipc                   a1,18                   # 0x80015b3c
0x80003b40:  e2458593          addi                    a1,a1,-476
0x80003b44:  8526              mv                      a0,s1
0x80003b46:  223090ef          jal                     ra,39458                # 0x8000d568

----------------
IN: 
Priv: 3; Virt: 0
0x8000d568:  1101              addi                    sp,sp,-32
0x8000d56a:  ec06              sd                      ra,24(sp)
0x8000d56c:  e822              sd                      s0,16(sp)
0x8000d56e:  e426              sd                      s1,8(sp)
0x8000d570:  e04a              sd                      s2,0(sp)
0x8000d572:  1000              addi                    s0,sp,32
0x8000d574:  892a              mv                      s2,a0
0x8000d576:  852e              mv                      a0,a1
0x8000d578:  84ae              mv                      s1,a1
0x8000d57a:  ffff40ef          jal                     ra,-45058               # 0x80002578

----------------
IN: 
Priv: 3; Virt: 0
0x80002578:  1141              addi                    sp,sp,-16
0x8000257a:  e422              sd                      s0,8(sp)
0x8000257c:  0800              addi                    s0,sp,16
0x8000257e:  00054783          lbu                     a5,0(a0)
0x80002582:  cf81              beqz                    a5,24                   # 0x8000259a

----------------
IN: 
Priv: 3; Virt: 0
0x80002584:  872a              mv                      a4,a0
0x80002586:  4501              mv                      a0,zero
0x80002588:  0505              addi                    a0,a0,1
0x8000258a:  00a707b3          add                     a5,a4,a0
0x8000258e:  0007c783          lbu                     a5,0(a5)
0x80002592:  fbfd              bnez                    a5,-10                  # 0x80002588

----------------
IN: 
Priv: 3; Virt: 0
0x80002594:  6422              ld                      s0,8(sp)
0x80002596:  0141              addi                    sp,sp,16
0x80002598:  8082              ret                     

----------------
IN: 
Priv: 3; Virt: 0
0x8000d57e:  0005061b          sext.w                  a2,a0
0x8000d582:  85a6              mv                      a1,s1
0x8000d584:  854a              mv                      a0,s2
0x8000d586:  f11ff0ef          jal                     ra,-240                 # 0x8000d496

----------------
IN: 
Priv: 3; Virt: 0
0x8000d496:  715d              addi                    sp,sp,-80
0x8000d498:  e0a2              sd                      s0,64(sp)
0x8000d49a:  fc26              sd                      s1,56(sp)
0x8000d49c:  f44e              sd                      s3,40(sp)
0x8000d49e:  f052              sd                      s4,32(sp)
0x8000d4a0:  ec56              sd                      s5,24(sp)
0x8000d4a2:  e486              sd                      ra,72(sp)
0x8000d4a4:  f84a              sd                      s2,48(sp)
0x8000d4a6:  e85a              sd                      s6,16(sp)
0x8000d4a8:  e45e              sd                      s7,8(sp)
0x8000d4aa:  0880              addi                    s0,sp,80
0x8000d4ac:  8aaa              mv                      s5,a0
0x8000d4ae:  84ae              mv                      s1,a1
0x8000d4b0:  89b2              mv                      s3,a2
0x8000d4b2:  c07fe0ef          jal                     ra,-5114                # 0x8000c0b8

----------------
IN: 
Priv: 3; Virt: 0
0x8000c0b8:  1141              addi                    sp,sp,-16
0x8000c0ba:  e422              sd                      s0,8(sp)
0x8000c0bc:  0800              addi                    s0,sp,16
0x8000c0be:  00454783          lbu                     a5,4(a0)
0x8000c0c2:  00554683          lbu                     a3,5(a0)
0x8000c0c6:  00754603          lbu                     a2,7(a0)
0x8000c0ca:  00654703          lbu                     a4,6(a0)
0x8000c0ce:  0187979b          slliw                   a5,a5,24
0x8000c0d2:  0106969b          slliw                   a3,a3,16
0x8000c0d6:  8fd5              or                      a5,a5,a3
0x8000c0d8:  0087171b          slliw                   a4,a4,8
0x8000c0dc:  8fd1              or                      a5,a5,a2
0x8000c0de:  8fd9              or                      a5,a5,a4
0x8000c0e0:  00757713          andi                    a4,a0,7
0x8000c0e4:  ef71              bnez                    a4,220                  # 0x8000c1c0

----------------
IN: 
Priv: 3; Virt: 0
0x8000c0e6:  00054703          lbu                     a4,0(a0)
0x8000c0ea:  00154603          lbu                     a2,1(a0)
0x8000c0ee:  00354583          lbu                     a1,3(a0)
0x8000c0f2:  00254683          lbu                     a3,2(a0)
0x8000c0f6:  0187171b          slliw                   a4,a4,24
0x8000c0fa:  0106161b          slliw                   a2,a2,16
0x8000c0fe:  8f51              or                      a4,a4,a2
0x8000c100:  0086969b          slliw                   a3,a3,8
0x8000c104:  8f4d              or                      a4,a4,a1
0x8000c106:  8f55              or                      a4,a4,a3
0x8000c108:  d00e06b7          lui                     a3,-196384
0x8000c10c:  2701              sext.w                  a4,a4
0x8000c10e:  eed68693          addi                    a3,a3,-275
0x8000c112:  2781              sext.w                  a5,a5
0x8000c114:  04d70663          beq                     a4,a3,76                # 0x8000c160

----------------
IN: 
Priv: 3; Virt: 0
0x8000c160:  01454703          lbu                     a4,20(a0)
0x8000c164:  01554603          lbu                     a2,21(a0)
0x8000c168:  01754583          lbu                     a1,23(a0)
0x8000c16c:  01654683          lbu                     a3,22(a0)
0x8000c170:  0187171b          slliw                   a4,a4,24
0x8000c174:  0106161b          slliw                   a2,a2,16
0x8000c178:  8f51              or                      a4,a4,a2
0x8000c17a:  0086969b          slliw                   a3,a3,8
0x8000c17e:  8f4d              or                      a4,a4,a1
0x8000c180:  8f55              or                      a4,a4,a3
0x8000c182:  2701              sext.w                  a4,a4
0x8000c184:  4685              addi                    a3,zero,1
0x8000c186:  02e6f763          bleu                    a4,a3,46                # 0x8000c1b4

----------------
IN: 
Priv: 3; Virt: 0
0x8000c18a:  01854703          lbu                     a4,24(a0)
0x8000c18e:  01954603          lbu                     a2,25(a0)
0x8000c192:  01b54583          lbu                     a1,27(a0)
0x8000c196:  01a54683          lbu                     a3,26(a0)
0x8000c19a:  0187171b          slliw                   a4,a4,24
0x8000c19e:  0106161b          slliw                   a2,a2,16
0x8000c1a2:  8f51              or                      a4,a4,a2
0x8000c1a4:  0086969b          slliw                   a3,a3,8
0x8000c1a8:  8f4d              or                      a4,a4,a1
0x8000c1aa:  8f55              or                      a4,a4,a3
0x8000c1ac:  2701              sext.w                  a4,a4
0x8000c1ae:  46c5              addi                    a3,zero,17
0x8000c1b0:  f8e6fde3          bleu                    a4,a3,-102              # 0x8000c14a

----------------
IN: 
Priv: 3; Virt: 0
0x8000c14a:  80000737          lui                     a4,-524288
0x8000c14e:  ffe74713          xori                    a4,a4,-2
0x8000c152:  06f76363          bgtu                    a5,a4,102               # 0x8000c1b8

----------------
IN: 
Priv: 3; Virt: 0
0x8000c156:  0007851b          sext.w                  a0,a5
0x8000c15a:  6422              ld                      s0,8(sp)
0x8000c15c:  0141              addi                    sp,sp,16
0x8000c15e:  8082              ret                     

----------------
IN: 
Priv: 3; Virt: 0
0x8000d4b6:  8a2a              mv                      s4,a0
0x8000d4b8:  06054063          bltz                    a0,96                   # 0x8000d518

----------------
IN: 
Priv: 3; Virt: 0
0x8000d4bc:  0004c703          lbu                     a4,0(s1)
0x8000d4c0:  02f00793          addi                    a5,zero,47
0x8000d4c4:  01348933          add                     s2,s1,s3
0x8000d4c8:  4a01              mv                      s4,zero
0x8000d4ca:  06f71363          bne                     a4,a5,102               # 0x8000d530

----------------
IN: 
Priv: 3; Virt: 0
0x8000d4ce:  02f00993          addi                    s3,zero,47
0x8000d4d2:  0124e663          bgtu                    s2,s1,12                # 0x8000d4de

----------------
IN: 
Priv: 3; Virt: 0
0x8000d4de:  0004c783          lbu                     a5,0(s1)
0x8000d4e2:  ff378be3          beq                     a5,s3,-10               # 0x8000d4d8

----------------
IN: 
Priv: 3; Virt: 0
0x8000d4d8:  0485              addi                    s1,s1,1
0x8000d4da:  02990f63          beq                     s2,s1,62                # 0x8000d518

----------------
IN: 
Priv: 3; Virt: 0
0x8000d518:  60a6              ld                      ra,72(sp)
0x8000d51a:  6406              ld                      s0,64(sp)
0x8000d51c:  74e2              ld                      s1,56(sp)
0x8000d51e:  7942              ld                      s2,48(sp)
0x8000d520:  79a2              ld                      s3,40(sp)
0x8000d522:  6ae2              ld                      s5,24(sp)
0x8000d524:  6b42              ld                      s6,16(sp)
0x8000d526:  6ba2              ld                      s7,8(sp)
0x8000d528:  8552              mv                      a0,s4
0x8000d52a:  7a02              ld                      s4,32(sp)
0x8000d52c:  6161              addi                    sp,sp,80
0x8000d52e:  8082              ret                     

----------------
IN: 
Priv: 3; Virt: 0
0x8000d58a:  60e2              ld                      ra,24(sp)
0x8000d58c:  6442              ld                      s0,16(sp)
0x8000d58e:  64a2              ld                      s1,8(sp)
0x8000d590:  6902              ld                      s2,0(sp)
0x8000d592:  6105              addi                    sp,sp,32
0x8000d594:  8082              ret                     

----------------
IN: 
Priv: 3; Virt: 0
0x80003b4a:  0a054663          bltz                    a0,172                  # 0x80003bf6

----------------
IN: 
Priv: 3; Virt: 0
0x80003b4e:  85aa              mv                      a1,a0
0x80003b50:  fbc40693          addi                    a3,s0,-68
0x80003b54:  00012617          auipc                   a2,18                   # 0x80015b54
0x80003b58:  e1460613          addi                    a2,a2,-492
0x80003b5c:  8526              mv                      a0,s1
0x80003b5e:  744090ef          jal                     ra,38724                # 0x8000d2a2

----------------
IN: 
Priv: 3; Virt: 0
0x8000d2a2:  7179              addi                    sp,sp,-48
0x8000d2a4:  f406              sd                      ra,40(sp)
0x8000d2a6:  f022              sd                      s0,32(sp)
0x8000d2a8:  ec26              sd                      s1,24(sp)
0x8000d2aa:  e84a              sd                      s2,16(sp)
0x8000d2ac:  e44e              sd                      s3,8(sp)
0x8000d2ae:  e052              sd                      s4,0(sp)
0x8000d2b0:  1800              addi                    s0,sp,48
0x8000d2b2:  892a              mv                      s2,a0
0x8000d2b4:  8532              mv                      a0,a2
0x8000d2b6:  8a36              mv                      s4,a3
0x8000d2b8:  84b2              mv                      s1,a2
0x8000d2ba:  89ae              mv                      s3,a1
0x8000d2bc:  abcf50ef          jal                     ra,-44356               # 0x80002578

----------------
IN: 
Priv: 3; Virt: 0
0x80002588:  0505              addi                    a0,a0,1
0x8000258a:  00a707b3          add                     a5,a4,a0
0x8000258e:  0007c783          lbu                     a5,0(a5)
0x80002592:  fbfd              bnez                    a5,-10                  # 0x80002588

----------------
IN: 
Priv: 3; Virt: 0
0x8000d2c0:  8752              mv                      a4,s4
0x8000d2c2:  0005069b          sext.w                  a3,a0
0x8000d2c6:  8626              mv                      a2,s1
0x8000d2c8:  85ce              mv                      a1,s3
0x8000d2ca:  854a              mv                      a0,s2
0x8000d2cc:  e63ff0ef          jal                     ra,-414                 # 0x8000d12e

----------------
IN: 
Priv: 3; Virt: 0
0x8000d12e:  7179              addi                    sp,sp,-48
0x8000d130:  f022              sd                      s0,32(sp)
0x8000d132:  ec26              sd                      s1,24(sp)
0x8000d134:  1800              addi                    s0,sp,48
0x8000d136:  f406              sd                      ra,40(sp)
0x8000d138:  fdc40793          addi                    a5,s0,-36
0x8000d13c:  84aa              mv                      s1,a0
0x8000d13e:  e4fff0ef          jal                     ra,-434                 # 0x8000cf8c

----------------
IN: 
Priv: 3; Virt: 0
0x8000cf8c:  711d              addi                    sp,sp,-96
0x8000cf8e:  e8a2              sd                      s0,80(sp)
0x8000cf90:  e4a6              sd                      s1,72(sp)
0x8000cf92:  e0ca              sd                      s2,64(sp)
0x8000cf94:  fc4e              sd                      s3,56(sp)
0x8000cf96:  f456              sd                      s5,40(sp)
0x8000cf98:  f05a              sd                      s6,32(sp)
0x8000cf9a:  ec5e              sd                      s7,24(sp)
0x8000cf9c:  ec86              sd                      ra,88(sp)
0x8000cf9e:  f852              sd                      s4,48(sp)
0x8000cfa0:  e862              sd                      s8,16(sp)
0x8000cfa2:  1080              addi                    s0,sp,96
0x8000cfa4:  84aa              mv                      s1,a0
0x8000cfa6:  8ab2              mv                      s5,a2
0x8000cfa8:  89b6              mv                      s3,a3
0x8000cfaa:  893a              mv                      s2,a4
0x8000cfac:  8b3e              mv                      s6,a5
0x8000cfae:  f93ff0ef          jal                     ra,-110                 # 0x8000cf40

----------------
IN: 
Priv: 3; Virt: 0
0x8000cf40:  1101              addi                    sp,sp,-32
0x8000cf42:  e822              sd                      s0,16(sp)
0x8000cf44:  e426              sd                      s1,8(sp)
0x8000cf46:  ec06              sd                      ra,24(sp)
0x8000cf48:  1000              addi                    s0,sp,32
0x8000cf4a:  84aa              mv                      s1,a0
0x8000cf4c:  f34ff0ef          jal                     ra,-2252                # 0x8000c680

----------------
IN: 
Priv: 3; Virt: 0
0x8000c680:  1101              addi                    sp,sp,-32
0x8000c682:  e822              sd                      s0,16(sp)
0x8000c684:  ec06              sd                      ra,24(sp)
0x8000c686:  1000              addi                    s0,sp,32
0x8000c688:  feb42623          sw                      a1,-20(s0)
0x8000c68c:  0205c363          bltz                    a1,38                   # 0x8000c6b2

----------------
IN: 
Priv: 3; Virt: 0
0x8000c690:  0035f793          andi                    a5,a1,3
0x8000c694:  ef99              bnez                    a5,30                   # 0x8000c6b2

----------------
IN: 
Priv: 3; Virt: 0
0x8000c696:  fec40613          addi                    a2,s0,-20
0x8000c69a:  eb3ff0ef          jal                     ra,-334                 # 0x8000c54c

----------------
IN: 
Priv: 3; Virt: 0
0x8000c54c:  7139              addi                    sp,sp,-64
0x8000c54e:  f822              sd                      s0,48(sp)
0x8000c550:  ec4e              sd                      s3,24(sp)
0x8000c552:  e852              sd                      s4,16(sp)
0x8000c554:  e456              sd                      s5,8(sp)
0x8000c556:  fc06              sd                      ra,56(sp)
0x8000c558:  f426              sd                      s1,40(sp)
0x8000c55a:  f04a              sd                      s2,32(sp)
0x8000c55c:  e05a              sd                      s6,0(sp)
0x8000c55e:  0080              addi                    s0,sp,64
0x8000c560:  57e1              addi                    a5,zero,-8
0x8000c562:  89b2              mv                      s3,a2
0x8000c564:  c21c              sw                      a5,0(a2)
0x8000c566:  4611              addi                    a2,zero,4
0x8000c568:  8a2a              mv                      s4,a0
0x8000c56a:  8aae              mv                      s5,a1
0x8000c56c:  ef5ff0ef          jal                     ra,-268                 # 0x8000c460

----------------
IN: 
Priv: 3; Virt: 0
0x8000c460:  1141              addi                    sp,sp,-16
0x8000c462:  e422              sd                      s0,8(sp)
0x8000c464:  0800              addi                    s0,sp,16
0x8000c466:  00954703          lbu                     a4,9(a0)
0x8000c46a:  00854803          lbu                     a6,8(a0)
0x8000c46e:  00b54783          lbu                     a5,11(a0)
0x8000c472:  00a54683          lbu                     a3,10(a0)
0x8000c476:  0188181b          slliw                   a6,a6,24
0x8000c47a:  0107171b          slliw                   a4,a4,16
0x8000c47e:  01076733          or                      a4,a4,a6
0x8000c482:  8f5d              or                      a4,a4,a5
0x8000c484:  0086969b          slliw                   a3,a3,8
0x8000c488:  00d767b3          or                      a5,a4,a3
0x8000c48c:  00b7883b          addw                    a6,a5,a1
0x8000c490:  0a05ca63          bltz                    a1,180                  # 0x8000c544

----------------
IN: 
Priv: 3; Virt: 0
0x8000c494:  0005831b          sext.w                  t1,a1
0x8000c498:  0a686663          bgtu                    t1,a6,172               # 0x8000c544

----------------
IN: 
Priv: 3; Virt: 0
0x8000c49c:  00c806bb          addw                    a3,a6,a2
0x8000c4a0:  0b06e263          bgtu                    a6,a3,164               # 0x8000c544

----------------
IN: 
Priv: 3; Virt: 0
0x8000c4a4:  00454703          lbu                     a4,4(a0)
0x8000c4a8:  00554883          lbu                     a7,5(a0)
0x8000c4ac:  00754e03          lbu                     t3,7(a0)
0x8000c4b0:  00654803          lbu                     a6,6(a0)
0x8000c4b4:  0187171b          slliw                   a4,a4,24
0x8000c4b8:  0108989b          slliw                   a7,a7,16
0x8000c4bc:  01176733          or                      a4,a4,a7
0x8000c4c0:  01c76733          or                      a4,a4,t3
0x8000c4c4:  0088181b          slliw                   a6,a6,8
0x8000c4c8:  01076733          or                      a4,a4,a6
0x8000c4cc:  2701              sext.w                  a4,a4
0x8000c4ce:  06d76b63          bgtu                    a3,a4,118               # 0x8000c544

----------------
IN: 
Priv: 3; Virt: 0
0x8000c4d2:  01454703          lbu                     a4,20(a0)
0x8000c4d6:  01554803          lbu                     a6,21(a0)
0x8000c4da:  01754883          lbu                     a7,23(a0)
0x8000c4de:  01654683          lbu                     a3,22(a0)
0x8000c4e2:  0187171b          slliw                   a4,a4,24
0x8000c4e6:  0108181b          slliw                   a6,a6,16
0x8000c4ea:  01076733          or                      a4,a4,a6
0x8000c4ee:  0086969b          slliw                   a3,a3,8
0x8000c4f2:  01176733          or                      a4,a4,a7
0x8000c4f6:  8f55              or                      a4,a4,a3
0x8000c4f8:  2701              sext.w                  a4,a4
0x8000c4fa:  46c1              addi                    a3,zero,16
0x8000c4fc:  2781              sext.w                  a5,a5
0x8000c4fe:  02e6fc63          bleu                    a4,a3,56                # 0x8000c536

----------------
IN: 
Priv: 3; Virt: 0
0x8000c502:  00c3063b          addw                    a2,t1,a2
0x8000c506:  02666f63          bgtu                    t1,a2,62                # 0x8000c544

----------------
IN: 
Priv: 3; Virt: 0
0x8000c50a:  02454703          lbu                     a4,36(a0)
0x8000c50e:  02554803          lbu                     a6,37(a0)
0x8000c512:  02754883          lbu                     a7,39(a0)
0x8000c516:  02654683          lbu                     a3,38(a0)
0x8000c51a:  0187171b          slliw                   a4,a4,24
0x8000c51e:  0108181b          slliw                   a6,a6,16
0x8000c522:  01076733          or                      a4,a4,a6
0x8000c526:  01176733          or                      a4,a4,a7
0x8000c52a:  0086969b          slliw                   a3,a3,8
0x8000c52e:  8f55              or                      a4,a4,a3
0x8000c530:  2701              sext.w                  a4,a4
0x8000c532:  00c76963          bgtu                    a2,a4,18                # 0x8000c544

----------------
IN: 
Priv: 3; Virt: 0
0x8000c536:  6422              ld                      s0,8(sp)
0x8000c538:  1782              slli                    a5,a5,32
0x8000c53a:  9381              srli                    a5,a5,32
0x8000c53c:  97ae              add                     a5,a5,a1
0x8000c53e:  953e              add                     a0,a0,a5
0x8000c540:  0141              addi                    sp,sp,16
0x8000c542:  8082              ret                     

----------------
IN: 
Priv: 3; Virt: 0
0x8000c570:  c13d              beqz                    a0,102                  # 0x8000c5d6

----------------
IN: 
Priv: 3; Virt: 0
0x8000c572:  411c              lw                      a5,0(a0)
0x8000c574:  5755              addi                    a4,zero,-11
0x8000c576:  00e9a023          sw                      a4,0(s3)
0x8000c57a:  0087d713          srli                    a4,a5,8
0x8000c57e:  0187949b          slliw                   s1,a5,24
0x8000c582:  0187d69b          srliw                   a3,a5,24
0x8000c586:  0ff77713          andi                    a4,a4,255
0x8000c58a:  83c1              srli                    a5,a5,16
0x8000c58c:  8cd5              or                      s1,s1,a3
0x8000c58e:  0107171b          slliw                   a4,a4,16
0x8000c592:  0ff7f793          andi                    a5,a5,255
0x8000c596:  0087979b          slliw                   a5,a5,8
0x8000c59a:  8cd9              or                      s1,s1,a4
0x8000c59c:  8cdd              or                      s1,s1,a5
0x8000c59e:  2481              sext.w                  s1,s1
0x8000c5a0:  47a5              addi                    a5,zero,9
0x8000c5a2:  000a8b1b          sext.w                  s6,s5
0x8000c5a6:  004a891b          addiw                   s2,s5,4
0x8000c5aa:  0297e663          bgtu                    s1,a5,44                # 0x8000c5d6

----------------
IN: 
Priv: 3; Virt: 0
0x8000c5ae:  0000a697          auipc                   a3,10                   # 0x800165ae
0x8000c5b2:  70668693          addi                    a3,a3,1798
0x8000c5b6:  00249713          slli                    a4,s1,2
0x8000c5ba:  9736              add                     a4,a4,a3
0x8000c5bc:  431c              lw                      a5,0(a4)
0x8000c5be:  97b6              add                     a5,a5,a3
0x8000c5c0:  8782              jr                      a5

----------------
IN: 
Priv: 3; Virt: 0
0x8000c5c8:  85ca              mv                      a1,s2
0x8000c5ca:  4605              addi                    a2,zero,1
0x8000c5cc:  8552              mv                      a0,s4
0x8000c5ce:  e93ff0ef          jal                     ra,-366                 # 0x8000c460

----------------
IN: 
Priv: 3; Virt: 0
0x8000c5d2:  2905              addiw                   s2,s2,1
0x8000c5d4:  f57d              bnez                    a0,-18                  # 0x8000c5c2

----------------
IN: 
Priv: 3; Virt: 0
0x8000c5c2:  00054783          lbu                     a5,0(a0)
0x8000c5c6:  c7d1              beqz                    a5,140                  # 0x8000c652

----------------
IN: 
Priv: 3; Virt: 0
0x8000c652:  4159063b          subw                    a2,s2,s5
0x8000c656:  85d6              mv                      a1,s5
0x8000c658:  8552              mv                      a0,s4
0x8000c65a:  e07ff0ef          jal                     ra,-506                 # 0x8000c460

----------------
IN: 
Priv: 3; Virt: 0
0x8000c65e:  dd25              beqz                    a0,-136                 # 0x8000c5d6

----------------
IN: 
Priv: 3; Virt: 0
0x8000c660:  290d              addiw                   s2,s2,3
0x8000c662:  ffc97913          andi                    s2,s2,-4
0x8000c666:  0129a023          sw                      s2,0(s3)
0x8000c66a:  70e2              ld                      ra,56(sp)
0x8000c66c:  7442              ld                      s0,48(sp)
0x8000c66e:  7902              ld                      s2,32(sp)
0x8000c670:  69e2              ld                      s3,24(sp)
0x8000c672:  6a42              ld                      s4,16(sp)
0x8000c674:  6aa2              ld                      s5,8(sp)
0x8000c676:  6b02              ld                      s6,0(sp)
0x8000c678:  8526              mv                      a0,s1
0x8000c67a:  74a2              ld                      s1,40(sp)
0x8000c67c:  6121              addi                    sp,sp,64
0x8000c67e:  8082              ret                     

----------------
IN: 
Priv: 3; Virt: 0
0x8000c69e:  2501              sext.w                  a0,a0
0x8000c6a0:  4785              addi                    a5,zero,1
0x8000c6a2:  00f51863          bne                     a0,a5,16                # 0x8000c6b2

----------------
IN: 
Priv: 3; Virt: 0
0x8000c6a6:  fec42503          lw                      a0,-20(s0)
0x8000c6aa:  60e2              ld                      ra,24(sp)
0x8000c6ac:  6442              ld                      s0,16(sp)
0x8000c6ae:  6105              addi                    sp,sp,32
0x8000c6b0:  8082              ret                     

----------------
IN: 
Priv: 3; Virt: 0
0x8000cf50:  00054663          bltz                    a0,12                   # 0x8000cf5c

----------------
IN: 
Priv: 3; Virt: 0
0x8000cf54:  85aa              mv                      a1,a0
0x8000cf56:  8526              mv                      a0,s1
0x8000cf58:  a25ff0ef          jal                     ra,-1500                # 0x8000c97c

----------------
IN: 
Priv: 3; Virt: 0
0x8000c97c:  715d              addi                    sp,sp,-80
0x8000c97e:  e0a2              sd                      s0,64(sp)
0x8000c980:  fc26              sd                      s1,56(sp)
0x8000c982:  f84a              sd                      s2,48(sp)
0x8000c984:  f44e              sd                      s3,40(sp)
0x8000c986:  f052              sd                      s4,32(sp)
0x8000c988:  ec56              sd                      s5,24(sp)
0x8000c98a:  e85a              sd                      s6,16(sp)
0x8000c98c:  0880              addi                    s0,sp,80
0x8000c98e:  e486              sd                      ra,72(sp)
0x8000c990:  892a              mv                      s2,a0
0x8000c992:  84ae              mv                      s1,a1
0x8000c994:  fbc40a93          addi                    s5,s0,-68
0x8000c998:  4a0d              addi                    s4,zero,3
0x8000c99a:  49a5              addi                    s3,zero,9
0x8000c99c:  4b11              addi                    s6,zero,4
0x8000c99e:  85a6              mv                      a1,s1
0x8000c9a0:  8656              mv                      a2,s5
0x8000c9a2:  854a              mv                      a0,s2
0x8000c9a4:  ba9ff0ef          jal                     ra,-1112                # 0x8000c54c

----------------
IN: 
Priv: 3; Virt: 0
0x8000c5da:  4611              addi                    a2,zero,4
0x8000c5dc:  85ca              mv                      a1,s2
0x8000c5de:  8552              mv                      a0,s4
0x8000c5e0:  e81ff0ef          jal                     ra,-384                 # 0x8000c460

----------------
IN: 
Priv: 3; Virt: 0
0x8000c5e4:  d96d              beqz                    a0,-14                  # 0x8000c5d6

----------------
IN: 
Priv: 3; Virt: 0
0x8000c5e6:  4118              lw                      a4,0(a0)
0x8000c5e8:  014a4783          lbu                     a5,20(s4)
0x8000c5ec:  015a4503          lbu                     a0,21(s4)
0x8000c5f0:  00875613          srli                    a2,a4,8
0x8000c5f4:  017a4803          lbu                     a6,23(s4)
0x8000c5f8:  016a4583          lbu                     a1,22(s4)
0x8000c5fc:  0187169b          slliw                   a3,a4,24
0x8000c600:  0187589b          srliw                   a7,a4,24
0x8000c604:  0ff67613          andi                    a2,a2,255
0x8000c608:  0187979b          slliw                   a5,a5,24
0x8000c60c:  0105151b          slliw                   a0,a0,16
0x8000c610:  0106161b          slliw                   a2,a2,16
0x8000c614:  8341              srli                    a4,a4,16
0x8000c616:  0116e6b3          or                      a3,a3,a7
0x8000c61a:  8fc9              or                      a5,a5,a0
0x8000c61c:  8ed1              or                      a3,a3,a2
0x8000c61e:  0ff77713          andi                    a4,a4,255
0x8000c622:  0085961b          slliw                   a2,a1,8
0x8000c626:  0107e7b3          or                      a5,a5,a6
0x8000c62a:  8fd1              or                      a5,a5,a2
0x8000c62c:  0087171b          slliw                   a4,a4,8
0x8000c630:  8f55              or                      a4,a4,a3
0x8000c632:  2b31              addiw                   s6,s6,12
0x8000c634:  2781              sext.w                  a5,a5
0x8000c636:  463d              addi                    a2,zero,15
0x8000c638:  00eb093b          addw                    s2,s6,a4
0x8000c63c:  2701              sext.w                  a4,a4
0x8000c63e:  00f66a63          bgtu                    a5,a2,20                # 0x8000c652

----------------
IN: 
Priv: 3; Virt: 0
0x8000c9a8:  0005079b          sext.w                  a5,a0
0x8000c9ac:  03478263          beq                     a5,s4,36                # 0x8000c9d0

----------------
IN: 
Priv: 3; Virt: 0
0x8000c9d0:  8526              mv                      a0,s1
0x8000c9d2:  b7ed              j                       -22                     # 0x8000c9bc

----------------
IN: 
Priv: 3; Virt: 0
0x8000c9bc:  60a6              ld                      ra,72(sp)
0x8000c9be:  6406              ld                      s0,64(sp)
0x8000c9c0:  74e2              ld                      s1,56(sp)
0x8000c9c2:  7942              ld                      s2,48(sp)
0x8000c9c4:  79a2              ld                      s3,40(sp)
0x8000c9c6:  7a02              ld                      s4,32(sp)
0x8000c9c8:  6ae2              ld                      s5,24(sp)
0x8000c9ca:  6b42              ld                      s6,16(sp)
0x8000c9cc:  6161              addi                    sp,sp,80
0x8000c9ce:  8082              ret                     

----------------
IN: 
Priv: 3; Virt: 0
0x8000cf5c:  60e2              ld                      ra,24(sp)
0x8000cf5e:  6442              ld                      s0,16(sp)
0x8000cf60:  64a2              ld                      s1,8(sp)
0x8000cf62:  6105              addi                    sp,sp,32
0x8000cf64:  8082              ret                     

----------------
IN: 
Priv: 3; Virt: 0
0x8000cfb2:  8baa              mv                      s7,a0
0x8000cfb4:  08054963          bltz                    a0,146                  # 0x8000d046

----------------
IN: 
Priv: 3; Virt: 0
0x8000cfb8:  fac40a13          addi                    s4,s0,-84
0x8000cfbc:  a801              j                       16                      # 0x8000cfcc

----------------
IN: 
Priv: 3; Virt: 0
0x8000cfcc:  864a              mv                      a2,s2
0x8000cfce:  85de              mv                      a1,s7
0x8000cfd0:  8526              mv                      a0,s1
0x8000cfd2:  a13ff0ef          jal                     ra,-1518                # 0x8000c9e4

----------------
IN: 
Priv: 3; Virt: 0
0x8000c9e4:  7179              addi                    sp,sp,-48
0x8000c9e6:  f022              sd                      s0,32(sp)
0x8000c9e8:  ec26              sd                      s1,24(sp)
0x8000c9ea:  e84a              sd                      s2,16(sp)
0x8000c9ec:  e44e              sd                      s3,8(sp)
0x8000c9ee:  f406              sd                      ra,40(sp)
0x8000c9f0:  1800              addi                    s0,sp,48
0x8000c9f2:  84aa              mv                      s1,a0
0x8000c9f4:  89ae              mv                      s3,a1
0x8000c9f6:  8932              mv                      s2,a2
0x8000c9f8:  cbfff0ef          jal                     ra,-834                 # 0x8000c6b6

----------------
IN: 
Priv: 3; Virt: 0
0x8000c6b6:  1101              addi                    sp,sp,-32
0x8000c6b8:  e822              sd                      s0,16(sp)
0x8000c6ba:  ec06              sd                      ra,24(sp)
0x8000c6bc:  1000              addi                    s0,sp,32
0x8000c6be:  feb42623          sw                      a1,-20(s0)
0x8000c6c2:  0205c363          bltz                    a1,38                   # 0x8000c6e8

----------------
IN: 
Priv: 3; Virt: 0
0x8000c6c6:  0035f793          andi                    a5,a1,3
0x8000c6ca:  ef99              bnez                    a5,30                   # 0x8000c6e8

----------------
IN: 
Priv: 3; Virt: 0
0x8000c6cc:  fec40613          addi                    a2,s0,-20
0x8000c6d0:  e7dff0ef          jal                     ra,-388                 # 0x8000c54c

----------------
IN: 
Priv: 3; Virt: 0
0x8000c6d4:  2501              sext.w                  a0,a0
0x8000c6d6:  478d              addi                    a5,zero,3
0x8000c6d8:  00f51863          bne                     a0,a5,16                # 0x8000c6e8

----------------
IN: 
Priv: 3; Virt: 0
0x8000c6dc:  fec42503          lw                      a0,-20(s0)
0x8000c6e0:  60e2              ld                      ra,24(sp)
0x8000c6e2:  6442              ld                      s0,16(sp)
0x8000c6e4:  6105              addi                    sp,sp,32
0x8000c6e6:  8082              ret                     

----------------
IN: 
Priv: 3; Virt: 0
0x8000c9fc:  06054763          bltz                    a0,110                  # 0x8000ca6a

----------------
IN: 
Priv: 3; Virt: 0
0x8000ca00:  0084c783          lbu                     a5,8(s1)
0x8000ca04:  0094c703          lbu                     a4,9(s1)
0x8000ca08:  00b4c683          lbu                     a3,11(s1)
0x8000ca0c:  00a4c583          lbu                     a1,10(s1)
0x8000ca10:  0187979b          slliw                   a5,a5,24
0x8000ca14:  0107171b          slliw                   a4,a4,16
0x8000ca18:  8fd9              or                      a5,a5,a4
0x8000ca1a:  0085959b          slliw                   a1,a1,8
0x8000ca1e:  8fd5              or                      a5,a5,a3
0x8000ca20:  8fcd              or                      a5,a5,a1
0x8000ca22:  1782              slli                    a5,a5,32
0x8000ca24:  9381              srli                    a5,a5,32
0x8000ca26:  013785b3          add                     a1,a5,s3
0x8000ca2a:  00b48533          add                     a0,s1,a1
0x8000ca2e:  02090763          beqz                    s2,46                   # 0x8000ca5c

----------------
IN: 
Priv: 3; Virt: 0
0x8000ca32:  415c              lw                      a5,4(a0)
0x8000ca34:  0087d693          srli                    a3,a5,8
0x8000ca38:  0187971b          slliw                   a4,a5,24
0x8000ca3c:  0187d61b          srliw                   a2,a5,24
0x8000ca40:  0ff6f693          andi                    a3,a3,255
0x8000ca44:  83c1              srli                    a5,a5,16
0x8000ca46:  8f51              or                      a4,a4,a2
0x8000ca48:  0106969b          slliw                   a3,a3,16
0x8000ca4c:  0ff7f793          andi                    a5,a5,255
0x8000ca50:  8f55              or                      a4,a4,a3
0x8000ca52:  0087979b          slliw                   a5,a5,8
0x8000ca56:  8fd9              or                      a5,a5,a4
0x8000ca58:  00f92023          sw                      a5,0(s2)
0x8000ca5c:  70a2              ld                      ra,40(sp)
0x8000ca5e:  7402              ld                      s0,32(sp)
0x8000ca60:  64e2              ld                      s1,24(sp)
0x8000ca62:  6942              ld                      s2,16(sp)
0x8000ca64:  69a2              ld                      s3,8(sp)
0x8000ca66:  6145              addi                    sp,sp,48
0x8000ca68:  8082              ret                     

----------------
IN: 
Priv: 3; Virt: 0
0x8000cfd6:  8c2a              mv                      s8,a0
0x8000cfd8:  8652              mv                      a2,s4
0x8000cfda:  8526              mv                      a0,s1
0x8000cfdc:  060c0463          beqz                    s8,104                  # 0x8000d044

----------------
IN: 
Priv: 3; Virt: 0
0x8000cfe0:  008c2583          lw                      a1,8(s8)
0x8000cfe4:  0085d713          srli                    a4,a1,8
0x8000cfe8:  0185979b          slliw                   a5,a1,24
0x8000cfec:  0185d69b          srliw                   a3,a1,24
0x8000cff0:  0ff77713          andi                    a4,a4,255
0x8000cff4:  81c1              srli                    a1,a1,16
0x8000cff6:  8fd5              or                      a5,a5,a3
0x8000cff8:  0107171b          slliw                   a4,a4,16
0x8000cffc:  0ff5f593          andi                    a1,a1,255

----------------
IN: 
Priv: 3; Virt: 0
0x8000d000:  8fd9              or                      a5,a5,a4
0x8000d002:  0085959b          slliw                   a1,a1,8
0x8000d006:  8ddd              or                      a1,a1,a5
0x8000d008:  2581              sext.w                  a1,a1
0x8000d00a:  a6bff0ef          jal                     ra,-1430                # 0x8000ca74

----------------
IN: 
Priv: 3; Virt: 0
0x8000ca74:  7179              addi                    sp,sp,-48
0x8000ca76:  f022              sd                      s0,32(sp)
0x8000ca78:  ec26              sd                      s1,24(sp)
0x8000ca7a:  e84a              sd                      s2,16(sp)
0x8000ca7c:  e44e              sd                      s3,8(sp)
0x8000ca7e:  f406              sd                      ra,40(sp)
0x8000ca80:  1800              addi                    s0,sp,48
0x8000ca82:  84aa              mv                      s1,a0
0x8000ca84:  89ae              mv                      s3,a1
0x8000ca86:  8932              mv                      s2,a2
0x8000ca88:  e30ff0ef          jal                     ra,-2512                # 0x8000c0b8

----------------
IN: 
Priv: 3; Virt: 0
0x8000ca8c:  12054c63          bltz                    a0,312                  # 0x8000cbc4

----------------
IN: 
Priv: 3; Virt: 0
0x8000ca90:  00c4c783          lbu                     a5,12(s1)
0x8000ca94:  00d4c683          lbu                     a3,13(s1)
0x8000ca98:  00f4c603          lbu                     a2,15(s1)
0x8000ca9c:  00e4c703          lbu                     a4,14(s1)
0x8000caa0:  0187979b          slliw                   a5,a5,24
0x8000caa4:  0106969b          slliw                   a3,a3,16
0x8000caa8:  8fd5              or                      a5,a5,a3
0x8000caaa:  0087171b          slliw                   a4,a4,8
0x8000caae:  8fd1              or                      a5,a5,a2
0x8000cab0:  8fd9              or                      a5,a5,a4
0x8000cab2:  013787bb          addw                    a5,a5,s3
0x8000cab6:  0007871b          sext.w                  a4,a5
0x8000caba:  2501              sext.w                  a0,a0
0x8000cabc:  0009859b          sext.w                  a1,s3
0x8000cac0:  10a77163          bleu                    a0,a4,258               # 0x8000cbc2

----------------
IN: 
Priv: 3; Virt: 0
0x8000cac4:  0004c703          lbu                     a4,0(s1)
0x8000cac8:  0014c603          lbu                     a2,1(s1)
0x8000cacc:  0034c803          lbu                     a6,3(s1)
0x8000cad0:  0024c683          lbu                     a3,2(s1)
0x8000cad4:  0106161b          slliw                   a2,a2,16
0x8000cad8:  0187171b          slliw                   a4,a4,24
0x8000cadc:  8f51              or                      a4,a4,a2
0x8000cade:  0086969b          slliw                   a3,a3,8
0x8000cae2:  01076733          or                      a4,a4,a6
0x8000cae6:  8f55              or                      a4,a4,a3
0x8000cae8:  9d1d              subw                    a0,a0,a5
0x8000caea:  d00e06b7          lui                     a3,-196384
0x8000caee:  0005061b          sext.w                  a2,a0
0x8000caf2:  2701              sext.w                  a4,a4
0x8000caf4:  1502              slli                    a0,a0,32
0x8000caf6:  eed68693          addi                    a3,a3,-275
0x8000cafa:  9101              srli                    a0,a0,32
0x8000cafc:  06d70463          beq                     a4,a3,104               # 0x8000cb64

----------------
IN: 
Priv: 3; Virt: 0
0x8000cb64:  0409cf63          bltz                    s3,94                   # 0x8000cbc2

----------------
IN: 
Priv: 3; Virt: 0
0x8000cb68:  0144c703          lbu                     a4,20(s1)
0x8000cb6c:  0154c803          lbu                     a6,21(s1)
0x8000cb70:  0174c883          lbu                     a7,23(s1)
0x8000cb74:  0164c683          lbu                     a3,22(s1)
0x8000cb78:  0187171b          slliw                   a4,a4,24
0x8000cb7c:  0108181b          slliw                   a6,a6,16
0x8000cb80:  01076733          or                      a4,a4,a6
0x8000cb84:  0086969b          slliw                   a3,a3,8
0x8000cb88:  01176733          or                      a4,a4,a7
0x8000cb8c:  8f55              or                      a4,a4,a3
0x8000cb8e:  2701              sext.w                  a4,a4
0x8000cb90:  46c1              addi                    a3,zero,16
0x8000cb92:  fae6fae3          bleu                    a4,a3,-76               # 0x8000cb46

----------------
IN: 
Priv: 3; Virt: 0
0x8000cb96:  0204c703          lbu                     a4,32(s1)
0x8000cb9a:  0214c803          lbu                     a6,33(s1)
0x8000cb9e:  0234c883          lbu                     a7,35(s1)
0x8000cba2:  0224c683          lbu                     a3,34(s1)
0x8000cba6:  0187171b          slliw                   a4,a4,24
0x8000cbaa:  0108181b          slliw                   a6,a6,16
0x8000cbae:  01076733          or                      a4,a4,a6
0x8000cbb2:  01176733          or                      a4,a4,a7
0x8000cbb6:  0086969b          slliw                   a3,a3,8
0x8000cbba:  8f55              or                      a4,a4,a3
0x8000cbbc:  2701              sext.w                  a4,a4
0x8000cbbe:  02e5e263          bgtu                    a4,a1,36                # 0x8000cbe2

----------------
IN: 
Priv: 3; Virt: 0
0x8000cbe2:  40b705bb          subw                    a1,a4,a1
0x8000cbe6:  0005871b          sext.w                  a4,a1
0x8000cbea:  f4c77ee3          bleu                    a2,a4,-164              # 0x8000cb46

----------------
IN: 
Priv: 3; Virt: 0
0x8000cb46:  1782              slli                    a5,a5,32
0x8000cb48:  9381              srli                    a5,a5,32
0x8000cb4a:  94be              add                     s1,s1,a5
0x8000cb4c:  862a              mv                      a2,a0
0x8000cb4e:  4581              mv                      a1,zero
0x8000cb50:  8526              mv                      a0,s1
0x8000cb52:  bf5f50ef          jal                     ra,-41996               # 0x80002746

----------------
IN: 
Priv: 3; Virt: 0
0x80002746:  1141              addi                    sp,sp,-16
0x80002748:  e422              sd                      s0,8(sp)
0x8000274a:  0800              addi                    s0,sp,16
0x8000274c:  c20d              beqz                    a2,34                   # 0x8000276e

----------------
IN: 
Priv: 3; Virt: 0
0x8000274e:  87aa              mv                      a5,a0
0x80002750:  0ff5f593          andi                    a1,a1,255
0x80002754:  962a              add                     a2,a2,a0
0x80002756:  a019              j                       6                       # 0x8000275c

----------------
IN: 
Priv: 3; Virt: 0
0x8000275c:  0007c703          lbu                     a4,0(a5)
0x80002760:  853e              mv                      a0,a5
0x80002762:  0785              addi                    a5,a5,1
0x80002764:  feb71ae3          bne                     a4,a1,-12               # 0x80002758

----------------
IN: 
Priv: 3; Virt: 0
0x80002758:  00f60b63          beq                     a2,a5,22                # 0x8000276e

----------------
IN: 
Priv: 3; Virt: 0
0x80002768:  6422              ld                      s0,8(sp)
0x8000276a:  0141              addi                    sp,sp,16
0x8000276c:  8082              ret                     

----------------
IN: 
Priv: 3; Virt: 0
0x8000cb56:  c145              beqz                    a0,160                  # 0x8000cbf6

----------------
IN: 
Priv: 3; Virt: 0
0x8000cb58:  06090b63          beqz                    s2,118                  # 0x8000cbce

----------------
IN: 
Priv: 3; Virt: 0
0x8000cb5c:  8d05              sub                     a0,a0,s1
0x8000cb5e:  00a92023          sw                      a0,0(s2)
0x8000cb62:  a0b5              j                       108                     # 0x8000cbce

----------------
IN: 
Priv: 3; Virt: 0
0x8000cbce:  70a2              ld                      ra,40(sp)
0x8000cbd0:  7402              ld                      s0,32(sp)
0x8000cbd2:  6942              ld                      s2,16(sp)
0x8000cbd4:  69a2              ld                      s3,8(sp)
0x8000cbd6:  8526              mv                      a0,s1
0x8000cbd8:  64e2              ld                      s1,24(sp)
0x8000cbda:  6145              addi                    sp,sp,48
0x8000cbdc:  8082              ret                     

----------------
IN: 
Priv: 3; Virt: 0
0x8000d00e:  d945              beqz                    a0,-80                  # 0x8000cfbe

----------------
IN: 
Priv: 3; Virt: 0
0x8000d010:  fac42783          lw                      a5,-84(s0)
0x8000d014:  fb3795e3          bne                     a5,s3,-86               # 0x8000cfbe

----------------
IN: 
Priv: 3; Virt: 0
0x8000cfbe:  85de              mv                      a1,s7
0x8000cfc0:  8526              mv                      a0,s1
0x8000cfc2:  fa5ff0ef          jal                     ra,-92                  # 0x8000cf66

----------------
IN: 
Priv: 3; Virt: 0
0x8000cf66:  1101              addi                    sp,sp,-32
0x8000cf68:  e822              sd                      s0,16(sp)
0x8000cf6a:  e426              sd                      s1,8(sp)
0x8000cf6c:  ec06              sd                      ra,24(sp)
0x8000cf6e:  1000              addi                    s0,sp,32
0x8000cf70:  84aa              mv                      s1,a0
0x8000cf72:  f44ff0ef          jal                     ra,-2236                # 0x8000c6b6

----------------
IN: 
Priv: 3; Virt: 0
0x8000cf76:  00054663          bltz                    a0,12                   # 0x8000cf82

----------------
IN: 
Priv: 3; Virt: 0
0x8000cf7a:  85aa              mv                      a1,a0
0x8000cf7c:  8526              mv                      a0,s1
0x8000cf7e:  9ffff0ef          jal                     ra,-1538                # 0x8000c97c

----------------
IN: 
Priv: 3; Virt: 0
0x8000cf82:  60e2              ld                      ra,24(sp)
0x8000cf84:  6442              ld                      s0,16(sp)
0x8000cf86:  64a2              ld                      s1,8(sp)
0x8000cf88:  6105              addi                    sp,sp,32
0x8000cf8a:  8082              ret                     

----------------
IN: 
Priv: 3; Virt: 0
0x8000cfc6:  8baa              mv                      s7,a0
0x8000cfc8:  06054f63          bltz                    a0,126                  # 0x8000d046

----------------
IN: 
Priv: 3; Virt: 0
0x8000d018:  864e              mv                      a2,s3
0x8000d01a:  85d6              mv                      a1,s5
0x8000d01c:  ef8f50ef          jal                     ra,-43272               # 0x80002714

----------------
IN: 
Priv: 3; Virt: 0
0x80002714:  1141              addi                    sp,sp,-16
0x80002716:  e422              sd                      s0,8(sp)
0x80002718:  0800              addi                    s0,sp,16
0x8000271a:  c215              beqz                    a2,36                   # 0x8000273e

----------------
IN: 
Priv: 3; Virt: 0
0x8000271c:  962e              add                     a2,a2,a1
0x8000271e:  a019              j                       6                       # 0x80002724

----------------
IN: 
Priv: 3; Virt: 0
0x80002724:  00054783          lbu                     a5,0(a0)
0x80002728:  0005c703          lbu                     a4,0(a1)
0x8000272c:  0505              addi                    a0,a0,1
0x8000272e:  0585              addi                    a1,a1,1
0x80002730:  fee788e3          beq                     a5,a4,-16               # 0x80002720

----------------
IN: 
Priv: 3; Virt: 0
0x80002720:  00c58f63          beq                     a1,a2,30                # 0x8000273e

----------------
IN: 
Priv: 3; Virt: 0
0x8000273e:  6422              ld                      s0,8(sp)
0x80002740:  4501              mv                      a0,zero
0x80002742:  0141              addi                    sp,sp,16
0x80002744:  8082              ret                     

----------------
IN: 
Priv: 3; Virt: 0
0x8000d020:  fd59              bnez                    a0,-98                  # 0x8000cfbe

----------------
IN: 
Priv: 3; Virt: 0
0x8000d022:  000b0463          beqz                    s6,8                    # 0x8000d02a

----------------
IN: 
Priv: 3; Virt: 0
0x8000d026:  017b2023          sw                      s7,0(s6)
0x8000d02a:  60e6              ld                      ra,88(sp)
0x8000d02c:  6446              ld                      s0,80(sp)
0x8000d02e:  64a6              ld                      s1,72(sp)
0x8000d030:  6906              ld                      s2,64(sp)
0x8000d032:  79e2              ld                      s3,56(sp)
0x8000d034:  7a42              ld                      s4,48(sp)
0x8000d036:  7aa2              ld                      s5,40(sp)
0x8000d038:  7b02              ld                      s6,32(sp)
0x8000d03a:  6be2              ld                      s7,24(sp)
0x8000d03c:  8562              mv                      a0,s8
0x8000d03e:  6c42              ld                      s8,16(sp)
0x8000d040:  6125              addi                    sp,sp,96
0x8000d042:  8082              ret                     

----------------
IN: 
Priv: 3; Virt: 0
0x8000d142:  c13d              beqz                    a0,102                  # 0x8000d1a8

----------------
IN: 
Priv: 3; Virt: 0
0x8000d144:  0144c783          lbu                     a5,20(s1)
0x8000d148:  0154c683          lbu                     a3,21(s1)
0x8000d14c:  0174c603          lbu                     a2,23(s1)
0x8000d150:  0164c703          lbu                     a4,22(s1)
0x8000d154:  0187979b          slliw                   a5,a5,24
0x8000d158:  0106969b          slliw                   a3,a3,16
0x8000d15c:  8fd5              or                      a5,a5,a3
0x8000d15e:  0087171b          slliw                   a4,a4,8
0x8000d162:  8fd1              or                      a5,a5,a2
0x8000d164:  8fd9              or                      a5,a5,a4
0x8000d166:  2781              sext.w                  a5,a5
0x8000d168:  473d              addi                    a4,zero,15
0x8000d16a:  02f76e63          bgtu                    a5,a4,60                # 0x8000d1a6

----------------
IN: 
Priv: 3; Virt: 0
0x8000d1a6:  0531              addi                    a0,a0,12
0x8000d1a8:  70a2              ld                      ra,40(sp)
0x8000d1aa:  7402              ld                      s0,32(sp)
0x8000d1ac:  64e2              ld                      s1,24(sp)
0x8000d1ae:  6145              addi                    sp,sp,48
0x8000d1b0:  8082              ret                     

----------------
IN: 
Priv: 3; Virt: 0
0x8000d2d0:  70a2              ld                      ra,40(sp)
0x8000d2d2:  7402              ld                      s0,32(sp)
0x8000d2d4:  64e2              ld                      s1,24(sp)
0x8000d2d6:  6942              ld                      s2,16(sp)
0x8000d2d8:  69a2              ld                      s3,8(sp)
0x8000d2da:  6a02              ld                      s4,0(sp)
0x8000d2dc:  6145              addi                    sp,sp,48
0x8000d2de:  8082              ret                     

----------------
IN: 
Priv: 3; Virt: 0
0x80003b62:  85aa              mv                      a1,a0
0x80003b64:  c909              beqz                    a0,18                   # 0x80003b76

----------------
IN: 
Priv: 3; Virt: 0
0x80003b66:  04000613          addi                    a2,zero,64
0x80003b6a:  00014517          auipc                   a0,20                   # 0x80017b6a
0x80003b6e:  61e50513          addi                    a0,a0,1566
0x80003b72:  a85fe0ef          jal                     ra,-5500                # 0x800025f6

----------------
IN: 
Priv: 3; Virt: 0
0x800025f6:  1141              addi                    sp,sp,-16
0x800025f8:  e422              sd                      s0,8(sp)
0x800025fa:  0800              addi                    s0,sp,16
0x800025fc:  ce09              beqz                    a2,26                   # 0x80002616

----------------
IN: 
Priv: 3; Virt: 0
0x800025fe:  962a              add                     a2,a2,a0
0x80002600:  87aa              mv                      a5,a0
0x80002602:  a029              j                       10                      # 0x8000260c

----------------
IN: 
Priv: 3; Virt: 0
0x8000260c:  0005c703          lbu                     a4,0(a1)
0x80002610:  0785              addi                    a5,a5,1
0x80002612:  0585              addi                    a1,a1,1
0x80002614:  fb65              bnez                    a4,-16                  # 0x80002604

----------------
IN: 
Priv: 3; Virt: 0
0x80002604:  fee78fa3          sb                      a4,-1(a5)
0x80002608:  00c78763          beq                     a5,a2,14                # 0x80002616

----------------
IN: 
Priv: 3; Virt: 0
0x80002616:  6422              ld                      s0,8(sp)
0x80002618:  0141              addi                    sp,sp,16
0x8000261a:  8082              ret                     

----------------
IN: 
Priv: 3; Virt: 0
0x80003b76:  00012597          auipc                   a1,18                   # 0x80015b76
0x80003b7a:  dfa58593          addi                    a1,a1,-518
0x80003b7e:  8526              mv                      a0,s1
0x80003b80:  1e9090ef          jal                     ra,39400                # 0x8000d568

----------------
IN: 
Priv: 3; Virt: 0
0x8000d4e6:  40990bb3          sub                     s7,s2,s1
0x8000d4ea:  865e              mv                      a2,s7
0x8000d4ec:  02f00593          addi                    a1,zero,47
0x8000d4f0:  8526              mv                      a0,s1
0x8000d4f2:  a54f50ef          jal                     ra,-44460               # 0x80002746

----------------
IN: 
Priv: 3; Virt: 0
0x8000276e:  6422              ld                      s0,8(sp)
0x80002770:  4501              mv                      a0,zero
0x80002772:  0141              addi                    sp,sp,16
0x80002774:  8082              ret                     

----------------
IN: 
Priv: 3; Virt: 0
0x8000d4f6:  8b2a              mv                      s6,a0
0x8000d4f8:  c525              beqz                    a0,104                  # 0x8000d560

----------------
IN: 
Priv: 3; Virt: 0
0x8000d560:  8b4a              mv                      s6,s2
0x8000d562:  bf71              j                       -100                    # 0x8000d4fe

----------------
IN: 
Priv: 3; Virt: 0
0x8000d4fe:  85d2              mv                      a1,s4
0x8000d500:  000b869b          sext.w                  a3,s7
0x8000d504:  8626              mv                      a2,s1
0x8000d506:  8556              mv                      a0,s5
0x8000d508:  943ff0ef          jal                     ra,-1726                # 0x8000ce4a

----------------
IN: 
Priv: 3; Virt: 0
0x8000ce4a:  711d              addi                    sp,sp,-96
0x8000ce4c:  e8a2              sd                      s0,80(sp)
0x8000ce4e:  e4a6              sd                      s1,72(sp)
0x8000ce50:  e0ca              sd                      s2,64(sp)
0x8000ce52:  fc4e              sd                      s3,56(sp)
0x8000ce54:  f05a              sd                      s6,32(sp)
0x8000ce56:  ec86              sd                      ra,88(sp)
0x8000ce58:  f852              sd                      s4,48(sp)
0x8000ce5a:  f456              sd                      s5,40(sp)
0x8000ce5c:  ec5e              sd                      s7,24(sp)
0x8000ce5e:  e862              sd                      s8,16(sp)
0x8000ce60:  1080              addi                    s0,sp,96
0x8000ce62:  892a              mv                      s2,a0
0x8000ce64:  84ae              mv                      s1,a1
0x8000ce66:  8b32              mv                      s6,a2
0x8000ce68:  89b6              mv                      s3,a3
0x8000ce6a:  a4eff0ef          jal                     ra,-3506                # 0x8000c0b8

----------------
IN: 
Priv: 3; Virt: 0
0x8000ce6e:  08054c63          bltz                    a0,152                  # 0x8000cf06

----------------
IN: 
Priv: 3; Virt: 0
0x8000ce72:  fa042423          sw                      zero,-88(s0)
0x8000ce76:  fa840a13          addi                    s4,s0,-88
0x8000ce7a:  4a85              addi                    s5,zero,1
0x8000ce7c:  fac40b93          addi                    s7,s0,-84
0x8000ce80:  0404c863          bltz                    s1,80                   # 0x8000ced0

----------------
IN: 
Priv: 3; Virt: 0
0x8000ce84:  85a6              mv                      a1,s1
0x8000ce86:  8652              mv                      a2,s4
0x8000ce88:  854a              mv                      a0,s2
0x8000ce8a:  863ff0ef          jal                     ra,-1950                # 0x8000c6ec

----------------
IN: 
Priv: 3; Virt: 0
0x8000c6ec:  711d              addi                    sp,sp,-96
0x8000c6ee:  e8a2              sd                      s0,80(sp)
0x8000c6f0:  e0ca              sd                      s2,64(sp)
0x8000c6f2:  fc4e              sd                      s3,56(sp)
0x8000c6f4:  1080              addi                    s0,sp,96
0x8000c6f6:  ec86              sd                      ra,88(sp)
0x8000c6f8:  e4a6              sd                      s1,72(sp)
0x8000c6fa:  f852              sd                      s4,48(sp)
0x8000c6fc:  f456              sd                      s5,40(sp)
0x8000c6fe:  f05a              sd                      s6,32(sp)
0x8000c700:  ec5e              sd                      s7,24(sp)
0x8000c702:  fa042623          sw                      zero,-84(s0)
0x8000c706:  89aa              mv                      s3,a0
0x8000c708:  8932              mv                      s2,a2
0x8000c70a:  0805dc63          bgez                    a1,152                  # 0x8000c7a2

----------------
IN: 
Priv: 3; Virt: 0
0x8000c7a2:  edfff0ef          jal                     ra,-290                 # 0x8000c680

----------------
IN: 
Priv: 3; Virt: 0
0x8000c7a6:  faa42623          sw                      a0,-84(s0)
0x8000c7aa:  84aa              mv                      s1,a0
0x8000c7ac:  f60552e3          bgez                    a0,-156                 # 0x8000c710

----------------
IN: 
Priv: 3; Virt: 0
0x8000c710:  fac40b93          addi                    s7,s0,-84
0x8000c714:  85a6              mv                      a1,s1
0x8000c716:  865e              mv                      a2,s7
0x8000c718:  854e              mv                      a0,s3
0x8000c71a:  e33ff0ef          jal                     ra,-462                 # 0x8000c54c

----------------
IN: 
Priv: 3; Virt: 0
0x8000c71e:  4b09              addi                    s6,zero,2
0x8000c720:  0005079b          sext.w                  a5,a0
0x8000c724:  4aa5              addi                    s5,zero,9
0x8000c726:  4a05              addi                    s4,zero,1
0x8000c728:  03678163          beq                     a5,s6,34                # 0x8000c74a

----------------
IN: 
Priv: 3; Virt: 0
0x8000c72c:  07578063          beq                     a5,s5,96                # 0x8000c78c

----------------
IN: 
Priv: 3; Virt: 0
0x8000c730:  03478b63          beq                     a5,s4,54                # 0x8000c766

----------------
IN: 
Priv: 3; Virt: 0
0x8000c734:  fac42483          lw                      s1,-84(s0)
0x8000c738:  865e              mv                      a2,s7
0x8000c73a:  854e              mv                      a0,s3
0x8000c73c:  85a6              mv                      a1,s1
0x8000c73e:  e0fff0ef          jal                     ra,-498                 # 0x8000c54c

----------------
IN: 
Priv: 3; Virt: 0
0x8000c742:  0005079b          sext.w                  a5,a0
0x8000c746:  ff6793e3          bne                     a5,s6,-26               # 0x8000c72c

----------------
IN: 
Priv: 3; Virt: 0
0x8000c766:  00090763          beqz                    s2,14                   # 0x8000c774

----------------
IN: 
Priv: 3; Virt: 0
0x8000c76a:  00092783          lw                      a5,0(s2)
0x8000c76e:  2785              addiw                   a5,a5,1
0x8000c770:  00f92023          sw                      a5,0(s2)
0x8000c774:  60e6              ld                      ra,88(sp)
0x8000c776:  6446              ld                      s0,80(sp)
0x8000c778:  6906              ld                      s2,64(sp)
0x8000c77a:  79e2              ld                      s3,56(sp)
0x8000c77c:  7a42              ld                      s4,48(sp)
0x8000c77e:  7aa2              ld                      s5,40(sp)
0x8000c780:  7b02              ld                      s6,32(sp)
0x8000c782:  6be2              ld                      s7,24(sp)
0x8000c784:  8526              mv                      a0,s1
0x8000c786:  64a6              ld                      s1,72(sp)
0x8000c788:  6125              addi                    sp,sp,96
0x8000c78a:  8082              ret                     

----------------
IN: 
Priv: 3; Virt: 0
0x8000ce8e:  fa842783          lw                      a5,-88(s0)
0x8000ce92:  84aa              mv                      s1,a0
0x8000ce94:  04054b63          bltz                    a0,86                   # 0x8000ceea

----------------
IN: 
Priv: 3; Virt: 0
0x8000ce98:  0407cb63          bltz                    a5,86                   # 0x8000ceee

----------------
IN: 
Priv: 3; Virt: 0
0x8000ce9c:  ff5794e3          bne                     a5,s5,-24               # 0x8000ce84

----------------
IN: 
Priv: 3; Virt: 0
0x8000cea0:  865e              mv                      a2,s7
0x8000cea2:  85a6              mv                      a1,s1
0x8000cea4:  854a              mv                      a0,s2
0x8000cea6:  ed1ff0ef          jal                     ra,-304                 # 0x8000cd76

----------------
IN: 
Priv: 3; Virt: 0
0x8000cd76:  715d              addi                    sp,sp,-80
0x8000cd78:  e0a2              sd                      s0,64(sp)
0x8000cd7a:  fc26              sd                      s1,56(sp)
0x8000cd7c:  f44e              sd                      s3,40(sp)
0x8000cd7e:  f052              sd                      s4,32(sp)
0x8000cd80:  e486              sd                      ra,72(sp)
0x8000cd82:  f84a              sd                      s2,48(sp)
0x8000cd84:  ec56              sd                      s5,24(sp)
0x8000cd86:  e85a              sd                      s6,16(sp)
0x8000cd88:  e45e              sd                      s7,8(sp)
0x8000cd8a:  0880              addi                    s0,sp,80
0x8000cd8c:  00854903          lbu                     s2,8(a0)
0x8000cd90:  00954b83          lbu                     s7,9(a0)
0x8000cd94:  00a54a83          lbu                     s5,10(a0)
0x8000cd98:  00b54b03          lbu                     s6,11(a0)
0x8000cd9c:  84aa              mv                      s1,a0
0x8000cd9e:  8a2e              mv                      s4,a1
0x8000cda0:  89b2              mv                      s3,a2
0x8000cda2:  b16ff0ef          jal                     ra,-3306                # 0x8000c0b8

----------------
IN: 
Priv: 3; Virt: 0
0x8000cda6:  08054363          bltz                    a0,134                  # 0x8000ce2c

----------------
IN: 
Priv: 3; Virt: 0
0x8000cdaa:  85d2              mv                      a1,s4
0x8000cdac:  8526              mv                      a0,s1
0x8000cdae:  8d3ff0ef          jal                     ra,-1838                # 0x8000c680

----------------
IN: 
Priv: 3; Virt: 0
0x8000cdb2:  06054d63          bltz                    a0,122                  # 0x8000ce2c

----------------
IN: 
Priv: 3; Virt: 0
0x8000cdb6:  0144c783          lbu                     a5,20(s1)
0x8000cdba:  0154c683          lbu                     a3,21(s1)
0x8000cdbe:  0189151b          slliw                   a0,s2,24
0x8000cdc2:  010b9b9b          slliw                   s7,s7,16
0x8000cdc6:  01756533          or                      a0,a0,s7
0x8000cdca:  0174c603          lbu                     a2,23(s1)
0x8000cdce:  0164c703          lbu                     a4,22(s1)
0x8000cdd2:  01656533          or                      a0,a0,s6
0x8000cdd6:  008a9a9b          slliw                   s5,s5,8
0x8000cdda:  0187979b          slliw                   a5,a5,24
0x8000cdde:  0106969b          slliw                   a3,a3,16
0x8000cde2:  01556533          or                      a0,a0,s5
0x8000cde6:  8fd5              or                      a5,a5,a3
0x8000cde8:  1502              slli                    a0,a0,32
0x8000cdea:  0087171b          slliw                   a4,a4,8
0x8000cdee:  9101              srli                    a0,a0,32
0x8000cdf0:  8fd1              or                      a5,a5,a2
0x8000cdf2:  8fd9              or                      a5,a5,a4
0x8000cdf4:  014505b3          add                     a1,a0,s4
0x8000cdf8:  94ae              add                     s1,s1,a1
0x8000cdfa:  2781              sext.w                  a5,a5
0x8000cdfc:  473d              addi                    a4,zero,15
0x8000cdfe:  0491              addi                    s1,s1,4
0x8000ce00:  02f77c63          bleu                    a5,a4,56                # 0x8000ce38

----------------
IN: 
Priv: 3; Virt: 0
0x8000ce04:  00098763          beqz                    s3,14                   # 0x8000ce12

----------------
IN: 
Priv: 3; Virt: 0
0x8000ce08:  8526              mv                      a0,s1
0x8000ce0a:  f6ef50ef          jal                     ra,-43154               # 0x80002578

----------------
IN: 
Priv: 3; Virt: 0
0x8000ce0e:  00a9a023          sw                      a0,0(s3)
0x8000ce12:  60a6              ld                      ra,72(sp)
0x8000ce14:  6406              ld                      s0,64(sp)
0x8000ce16:  7942              ld                      s2,48(sp)
0x8000ce18:  79a2              ld                      s3,40(sp)
0x8000ce1a:  7a02              ld                      s4,32(sp)
0x8000ce1c:  6ae2              ld                      s5,24(sp)
0x8000ce1e:  6b42              ld                      s6,16(sp)
0x8000ce20:  6ba2              ld                      s7,8(sp)
0x8000ce22:  8526              mv                      a0,s1
0x8000ce24:  74e2              ld                      s1,56(sp)
0x8000ce26:  6161              addi                    sp,sp,80
0x8000ce28:  8082              ret                     

----------------
IN: 
Priv: 3; Virt: 0
0x8000ceaa:  864e              mv                      a2,s3
0x8000ceac:  85da              mv                      a1,s6
0x8000ceae:  d979              beqz                    a0,-42                  # 0x8000ce84

----------------
IN: 
Priv: 3; Virt: 0
0x8000ceb0:  fac42703          lw                      a4,-84(s0)
0x8000ceb4:  fd3748e3          bgt                     s3,a4,-48               # 0x8000ce84

----------------
IN: 
Priv: 3; Virt: 0
0x8000ceb8:  01350c33          add                     s8,a0,s3
0x8000cebc:  859f50ef          jal                     ra,-42920               # 0x80002714

----------------
IN: 
Priv: 3; Virt: 0
0x80002734:  6422              ld                      s0,8(sp)
0x80002736:  40e7853b          subw                    a0,a5,a4
0x8000273a:  0141              addi                    sp,sp,16
0x8000273c:  8082              ret                     

----------------
IN: 
Priv: 3; Virt: 0
0x8000cec0:  f171              bnez                    a0,-60                  # 0x8000ce84

----------------
IN: 
Priv: 3; Virt: 0
0x8000c74a:  fe0905e3          beqz                    s2,-22                  # 0x8000c734

----------------
IN: 
Priv: 3; Virt: 0
0x8000c74e:  00092783          lw                      a5,0(s2)
0x8000c752:  37fd              addiw                   a5,a5,-1
0x8000c754:  00f92023          sw                      a5,0(s2)
0x8000c758:  02079713          slli                    a4,a5,32
0x8000c75c:  fc075ce3          bgez                    a4,-40                  # 0x8000c734

----------------
IN: 
Priv: 3; Virt: 0
0x8000cec2:  000c4783          lbu                     a5,0(s8)
0x8000cec6:  864e              mv                      a2,s3
0x8000cec8:  04000593          addi                    a1,zero,64
0x8000cecc:  855a              mv                      a0,s6
0x8000cece:  e395              bnez                    a5,36                   # 0x8000cef2

----------------
IN: 
Priv: 3; Virt: 0
0x8000ced0:  60e6              ld                      ra,88(sp)
0x8000ced2:  6446              ld                      s0,80(sp)
0x8000ced4:  6906              ld                      s2,64(sp)
0x8000ced6:  79e2              ld                      s3,56(sp)
0x8000ced8:  7a42              ld                      s4,48(sp)
0x8000ceda:  7aa2              ld                      s5,40(sp)
0x8000cedc:  7b02              ld                      s6,32(sp)
0x8000cede:  6be2              ld                      s7,24(sp)
0x8000cee0:  6c42              ld                      s8,16(sp)
0x8000cee2:  8526              mv                      a0,s1
0x8000cee4:  64a6              ld                      s1,72(sp)
0x8000cee6:  6125              addi                    sp,sp,96
0x8000cee8:  8082              ret                     

----------------
IN: 
Priv: 3; Virt: 0
0x8000d50c:  8a2a              mv                      s4,a0
0x8000d50e:  00054563          bltz                    a0,10                   # 0x8000d518

----------------
IN: 
Priv: 3; Virt: 0
0x8000d512:  84da              mv                      s1,s6
0x8000d514:  bf7d              j                       -66                     # 0x8000d4d2

----------------
IN: 
Priv: 3; Virt: 0
0x8000d4d2:  0124e663          bgtu                    s2,s1,12                # 0x8000d4de

----------------
IN: 
Priv: 3; Virt: 0
0x8000d4d6:  a089              j                       66                      # 0x8000d518

----------------
IN: 
Priv: 3; Virt: 0
0x80003b84:  85aa              mv                      a1,a0
0x80003b86:  06054863          bltz                    a0,112                  # 0x80003bf6

----------------
IN: 
Priv: 3; Virt: 0
0x80003b8a:  8526              mv                      a0,s1
0x80003b8c:  427080ef          jal                     ra,35878                # 0x8000c7b2

----------------
IN: 
Priv: 3; Virt: 0
0x8000c7b2:  1101              addi                    sp,sp,-32
0x8000c7b4:  e822              sd                      s0,16(sp)
0x8000c7b6:  ec06              sd                      ra,24(sp)
0x8000c7b8:  1000              addi                    s0,sp,32
0x8000c7ba:  fec40613          addi                    a2,s0,-20
0x8000c7be:  fe042623          sw                      zero,-20(s0)
0x8000c7c2:  f2bff0ef          jal                     ra,-214                 # 0x8000c6ec

----------------
IN: 
Priv: 3; Virt: 0
0x8000c7c6:  00054b63          bltz                    a0,22                   # 0x8000c7dc

----------------
IN: 
Priv: 3; Virt: 0
0x8000c7ca:  fec42703          lw                      a4,-20(s0)
0x8000c7ce:  4785              addi                    a5,zero,1
0x8000c7d0:  00f71663          bne                     a4,a5,12                # 0x8000c7dc

----------------
IN: 
Priv: 3; Virt: 0
0x8000c7d4:  60e2              ld                      ra,24(sp)
0x8000c7d6:  6442              ld                      s0,16(sp)
0x8000c7d8:  6105              addi                    sp,sp,32
0x8000c7da:  8082              ret                     

----------------
IN: 
Priv: 3; Virt: 0
0x80003b90:  8b2a              mv                      s6,a0
0x80003b92:  4901              mv                      s2,zero
0x80003b94:  04054263          bltz                    a0,68                   # 0x80003bd8

----------------
IN: 
Priv: 3; Virt: 0
0x80003b98:  fb840a93          addi                    s5,s0,-72
0x80003b9c:  07f00a13          addi                    s4,zero,127
0x80003ba0:  00025997          auipc                   s3,37                   # 0x80028ba0
0x80003ba4:  ef898993          addi                    s3,s3,-264
0x80003ba8:  85da              mv                      a1,s6
0x80003baa:  8656              mv                      a2,s5
0x80003bac:  8526              mv                      a0,s1
0x80003bae:  5350c0ef          jal                     ra,52532                # 0x800108e2

----------------
IN: 
Priv: 3; Virt: 0
0x800108e2:  715d              addi                    sp,sp,-80
0x800108e4:  e0a2              sd                      s0,64(sp)
0x800108e6:  e486              sd                      ra,72(sp)
0x800108e8:  fc26              sd                      s1,56(sp)
0x800108ea:  f84a              sd                      s2,48(sp)
0x800108ec:  f44e              sd                      s3,40(sp)
0x800108ee:  f052              sd                      s4,32(sp)
0x800108f0:  ec56              sd                      s5,24(sp)
0x800108f2:  0880              addi                    s0,sp,80
0x800108f4:  c555              beqz                    a0,172                  # 0x800109a0

----------------
IN: 
Priv: 3; Virt: 0
0x800108f6:  89ae              mv                      s3,a1
0x800108f8:  0a05c463          bltz                    a1,168                  # 0x800109a0

----------------
IN: 
Priv: 3; Virt: 0
0x800108fc:  fbc40a93          addi                    s5,s0,-68
0x80010900:  84b2              mv                      s1,a2
0x80010902:  86d6              mv                      a3,s5
0x80010904:  00006617          auipc                   a2,6                    # 0x80016904
0x80010908:  70c60613          addi                    a2,a2,1804
0x8001090c:  892a              mv                      s2,a0
0x8001090e:  995fc0ef          jal                     ra,-13932               # 0x8000d2a2

----------------
IN: 
Priv: 3; Virt: 0
0x80010912:  8a2a              mv                      s4,a0
0x80010914:  c551              beqz                    a0,140                  # 0x800109a0

----------------
IN: 
Priv: 3; Virt: 0
0x80010916:  fbc42783          lw                      a5,-68(s0)
0x8001091a:  c3d9              beqz                    a5,134                  # 0x800109a0

----------------
IN: 
Priv: 3; Virt: 0
0x8001091c:  00006517          auipc                   a0,6                    # 0x8001691c
0x80010920:  70450513          addi                    a0,a0,1796
0x80010924:  c55f10ef          jal                     ra,-58284               # 0x80002578

----------------
IN: 
Priv: 3; Virt: 0
0x80010928:  862a              mv                      a2,a0
0x8001092a:  00006597          auipc                   a1,6                    # 0x8001692a
0x8001092e:  6f658593          addi                    a1,a1,1782
0x80010932:  8552              mv                      a0,s4
0x80010934:  c11f10ef          jal                     ra,-58352               # 0x80002544

----------------
IN: 
Priv: 3; Virt: 0
0x80002544:  1141              addi                    sp,sp,-16
0x80002546:  e422              sd                      s0,8(sp)
0x80002548:  0800              addi                    s0,sp,16
0x8000254a:  c21d              beqz                    a2,38                   # 0x80002570

----------------
IN: 
Priv: 3; Virt: 0
0x8000254c:  962e              add                     a2,a2,a1
0x8000254e:  a021              j                       8                       # 0x80002556

----------------
IN: 
Priv: 3; Virt: 0
0x80002556:  00054783          lbu                     a5,0(a0)
0x8000255a:  0005c703          lbu                     a4,0(a1)
0x8000255e:  0505              addi                    a0,a0,1
0x80002560:  0585              addi                    a1,a1,1
0x80002562:  fee787e3          beq                     a5,a4,-18               # 0x80002550

----------------
IN: 
Priv: 3; Virt: 0
0x80002550:  cb99              beqz                    a5,22                   # 0x80002566

----------------
IN: 
Priv: 3; Virt: 0
0x80002552:  00b60f63          beq                     a2,a1,30                # 0x80002570

----------------
IN: 
Priv: 3; Virt: 0
0x80002570:  6422              ld                      s0,8(sp)
0x80002572:  4501              mv                      a0,zero
0x80002574:  0141              addi                    sp,sp,16
0x80002576:  8082              ret                     

----------------
IN: 
Priv: 3; Virt: 0
0x80010938:  8a2a              mv                      s4,a0
0x8001093a:  e13d              bnez                    a0,102                  # 0x800109a0

----------------
IN: 
Priv: 3; Virt: 0
0x8001093c:  86d6              mv                      a3,s5
0x8001093e:  00006617          auipc                   a2,6                    # 0x8001693e
0x80010942:  34a60613          addi                    a2,a2,842
0x80010946:  85ce              mv                      a1,s3
0x80010948:  854a              mv                      a0,s2
0x8001094a:  959fc0ef          jal                     ra,-13992               # 0x8000d2a2

----------------
IN: 
Priv: 3; Virt: 0
0x8001094e:  c929              beqz                    a0,82                   # 0x800109a0

----------------
IN: 
Priv: 3; Virt: 0
0x80010950:  fbc42783          lw                      a5,-68(s0)
0x80010954:  470d              addi                    a4,zero,3
0x80010956:  04f77563          bleu                    a5,a4,74                # 0x800109a0

----------------
IN: 
Priv: 3; Virt: 0
0x8001095a:  4711              addi                    a4,zero,4
0x8001095c:  00e78363          beq                     a5,a4,6                 # 0x80010962

----------------
IN: 
Priv: 3; Virt: 0
0x80010962:  c48d              beqz                    s1,42                   # 0x8001098c

----------------
IN: 
Priv: 3; Virt: 0
0x80010964:  411c              lw                      a5,0(a0)
0x80010966:  0087d693          srli                    a3,a5,8
0x8001096a:  0187971b          slliw                   a4,a5,24
0x8001096e:  0187d61b          srliw                   a2,a5,24
0x80010972:  0ff6f693          andi                    a3,a3,255
0x80010976:  83c1              srli                    a5,a5,16
0x80010978:  8f51              or                      a4,a4,a2
0x8001097a:  0106969b          slliw                   a3,a3,16
0x8001097e:  0ff7f793          andi                    a5,a5,255
0x80010982:  8f55              or                      a4,a4,a3
0x80010984:  0087979b          slliw                   a5,a5,8
0x80010988:  8fd9              or                      a5,a5,a4
0x8001098a:  c09c              sw                      a5,0(s1)
0x8001098c:  60a6              ld                      ra,72(sp)
0x8001098e:  6406              ld                      s0,64(sp)
0x80010990:  74e2              ld                      s1,56(sp)
0x80010992:  7942              ld                      s2,48(sp)
0x80010994:  79a2              ld                      s3,40(sp)
0x80010996:  6ae2              ld                      s5,24(sp)
0x80010998:  8552              mv                      a0,s4
0x8001099a:  7a02              ld                      s4,32(sp)
0x8001099c:  6161              addi                    sp,sp,80
0x8001099e:  8082              ret                     

----------------
IN: 
Priv: 3; Virt: 0
0x80003bb2:  02091793          slli                    a5,s2,32
0x80003bb6:  872a              mv                      a4,a0
0x80003bb8:  83f9              srli                    a5,a5,30
0x80003bba:  85da              mv                      a1,s6
0x80003bbc:  8526              mv                      a0,s1
0x80003bbe:  97ce              add                     a5,a5,s3
0x80003bc0:  e719              bnez                    a4,14                   # 0x80003bce

----------------
IN: 
Priv: 3; Virt: 0
0x80003bc2:  fb842703          lw                      a4,-72(s0)
0x80003bc6:  00ea6463          bgtu                    a4,s4,8                 # 0x80003bce

----------------
IN: 
Priv: 3; Virt: 0
0x80003bca:  c398              sw                      a4,0(a5)
0x80003bcc:  2905              addiw                   s2,s2,1
0x80003bce:  413080ef          jal                     ra,35858                # 0x8000c7e0

----------------
IN: 
Priv: 3; Virt: 0
0x8000c7e0:  7139              addi                    sp,sp,-64
0x8000c7e2:  f822              sd                      s0,48(sp)
0x8000c7e4:  f426              sd                      s1,40(sp)
0x8000c7e6:  0080              addi                    s0,sp,64
0x8000c7e8:  f04a              sd                      s2,32(sp)
0x8000c7ea:  ec4e              sd                      s3,24(sp)
0x8000c7ec:  fc06              sd                      ra,56(sp)
0x8000c7ee:  4785              addi                    a5,zero,1
0x8000c7f0:  84aa              mv                      s1,a0
0x8000c7f2:  fcf42623          sw                      a5,-52(s0)
0x8000c7f6:  fcc40913          addi                    s2,s0,-52
0x8000c7fa:  4985              addi                    s3,zero,1
0x8000c7fc:  a039              j                       14                      # 0x8000c80a

----------------
IN: 
Priv: 3; Virt: 0
0x8000c80a:  864a              mv                      a2,s2
0x8000c80c:  8526              mv                      a0,s1
0x8000c80e:  edfff0ef          jal                     ra,-290                 # 0x8000c6ec

----------------
IN: 
Priv: 3; Virt: 0
0x8000c812:  85aa              mv                      a1,a0
0x8000c814:  fe0555e3          bgez                    a0,-22                  # 0x8000c7fe

----------------
IN: 
Priv: 3; Virt: 0
0x8000c7fe:  fcc42783          lw                      a5,-52(s0)
0x8000c802:  00f05b63          blez                    a5,22                   # 0x8000c818

----------------
IN: 
Priv: 3; Virt: 0
0x8000c806:  01378a63          beq                     a5,s3,20                # 0x8000c81a

----------------
IN: 
Priv: 3; Virt: 0
0x8000c81a:  70e2              ld                      ra,56(sp)
0x8000c81c:  7442              ld                      s0,48(sp)
0x8000c81e:  74a2              ld                      s1,40(sp)
0x8000c820:  7902              ld                      s2,32(sp)
0x8000c822:  69e2              ld                      s3,24(sp)
0x8000c824:  6121              addi                    sp,sp,64
0x8000c826:  8082              ret                     

----------------
IN: 
Priv: 3; Virt: 0
0x80003bd2:  8b2a              mv                      s6,a0
0x80003bd4:  fc055ae3          bgez                    a0,-44                  # 0x80003ba8

----------------
IN: 
Priv: 3; Virt: 0
0x80003ba8:  85da              mv                      a1,s6
0x80003baa:  8656              mv                      a2,s5
0x80003bac:  8526              mv                      a0,s1
0x80003bae:  5350c0ef          jal                     ra,52532                # 0x800108e2

----------------
IN: 
Priv: 3; Virt: 0
0x8000c9b0:  03379263          bne                     a5,s3,36                # 0x8000c9d4

----------------
IN: 
Priv: 3; Virt: 0
0x8000c9d4:  fbc42483          lw                      s1,-68(s0)
0x8000c9d8:  fd6783e3          beq                     a5,s6,-58               # 0x8000c99e

----------------
IN: 
Priv: 3; Virt: 0
0x8000c9dc:  557d              addi                    a0,zero,-1
0x8000c9de:  bff9              j                       -34                     # 0x8000c9bc

----------------
IN: 
Priv: 3; Virt: 0
0x8000d046:  4c01              mv                      s8,zero
0x8000d048:  fe0901e3          beqz                    s2,-30                  # 0x8000d02a

----------------
IN: 
Priv: 3; Virt: 0
0x8000d04c:  01792023          sw                      s7,0(s2)
0x8000d050:  bfe9              j                       -38                     # 0x8000d02a

----------------
IN: 
Priv: 3; Virt: 0
0x8000d02a:  60e6              ld                      ra,88(sp)
0x8000d02c:  6446              ld                      s0,80(sp)
0x8000d02e:  64a6              ld                      s1,72(sp)
0x8000d030:  6906              ld                      s2,64(sp)
0x8000d032:  79e2              ld                      s3,56(sp)
0x8000d034:  7a42              ld                      s4,48(sp)
0x8000d036:  7aa2              ld                      s5,40(sp)
0x8000d038:  7b02              ld                      s6,32(sp)
0x8000d03a:  6be2              ld                      s7,24(sp)
0x8000d03c:  8562              mv                      a0,s8
0x8000d03e:  6c42              ld                      s8,16(sp)
0x8000d040:  6125              addi                    sp,sp,96
0x8000d042:  8082              ret                     

----------------
IN: 
Priv: 3; Virt: 0
0x8000d1a8:  70a2              ld                      ra,40(sp)
0x8000d1aa:  7402              ld                      s0,32(sp)
0x8000d1ac:  64e2              ld                      s1,24(sp)
0x8000d1ae:  6145              addi                    sp,sp,48
0x8000d1b0:  8082              ret                     

----------------
IN: 
Priv: 3; Virt: 0
0x800109a0:  5a75              addi                    s4,zero,-3
0x800109a2:  b7ed              j                       -22                     # 0x8001098c

----------------
IN: 
Priv: 3; Virt: 0
0x8001098c:  60a6              ld                      ra,72(sp)
0x8001098e:  6406              ld                      s0,64(sp)
0x80010990:  74e2              ld                      s1,56(sp)
0x80010992:  7942              ld                      s2,48(sp)
0x80010994:  79a2              ld                      s3,40(sp)
0x80010996:  6ae2              ld                      s5,24(sp)
0x80010998:  8552              mv                      a0,s4
0x8001099a:  7a02              ld                      s4,32(sp)
0x8001099c:  6161              addi                    sp,sp,80
0x8001099e:  8082              ret                     

----------------
IN: 
Priv: 3; Virt: 0
0x80003bce:  413080ef          jal                     ra,35858                # 0x8000c7e0

----------------
IN: 
Priv: 3; Virt: 0
0x8000c760:  fac42483          lw                      s1,-84(s0)
0x8000c764:  a801              j                       16                      # 0x8000c774

----------------
IN: 
Priv: 3; Virt: 0
0x8000c774:  60e6              ld                      ra,88(sp)
0x8000c776:  6446              ld                      s0,80(sp)
0x8000c778:  6906              ld                      s2,64(sp)
0x8000c77a:  79e2              ld                      s3,56(sp)
0x8000c77c:  7a42              ld                      s4,48(sp)
0x8000c77e:  7aa2              ld                      s5,40(sp)
0x8000c780:  7b02              ld                      s6,32(sp)
0x8000c782:  6be2              ld                      s7,24(sp)
0x8000c784:  8526              mv                      a0,s1
0x8000c786:  64a6              ld                      s1,72(sp)
0x8000c788:  6125              addi                    sp,sp,96
0x8000c78a:  8082              ret                     

----------------
IN: 
Priv: 3; Virt: 0
0x8000c818:  557d              addi                    a0,zero,-1
0x8000c81a:  70e2              ld                      ra,56(sp)
0x8000c81c:  7442              ld                      s0,48(sp)
0x8000c81e:  74a2              ld                      s1,40(sp)
0x8000c820:  7902              ld                      s2,32(sp)
0x8000c822:  69e2              ld                      s3,24(sp)
0x8000c824:  6121              addi                    sp,sp,64
0x8000c826:  8082              ret                     

----------------
IN: 
Priv: 3; Virt: 0
0x80003bd8:  60a6              ld                      ra,72(sp)
0x80003bda:  6406              ld                      s0,64(sp)
0x80003bdc:  00014797          auipc                   a5,20                   # 0x80017bdc
0x80003be0:  5f27aa23          sw                      s2,1524(a5)
0x80003be4:  79a2              ld                      s3,40(sp)
0x80003be6:  7942              ld                      s2,48(sp)
0x80003be8:  7a02              ld                      s4,32(sp)
0x80003bea:  6ae2              ld                      s5,24(sp)
0x80003bec:  6b42              ld                      s6,16(sp)
0x80003bee:  8526              mv                      a0,s1
0x80003bf0:  74e2              ld                      s1,56(sp)
0x80003bf2:  6161              addi                    sp,sp,80
0x80003bf4:  8082              ret                     

----------------
IN: 
Priv: 3; Virt: 0
0x80000172:  000502b3          add                     t0,a0,zero
0x80000176:  00040533          add                     a0,s0,zero
0x8000017a:  000485b3          add                     a1,s1,zero
0x8000017e:  00090633          add                     a2,s2,zero
0x80000182:  000986b3          add                     a3,s3,zero
0x80000186:  000a0733          add                     a4,s4,zero
0x8000018a:  000285b3          add                     a1,t0,zero
0x8000018e:  00018717          auipc                   a4,24                   # 0x8001818e
0x80000192:  ff270713          addi                    a4,a4,-14
0x80000196:  05076b83          lwu                     s7,80(a4)
0x8000019a:  05476c03          lwu                     s8,84(a4)
0x8000019e:  00031217          auipc                   tp,49                   # 0x8003119e
0x800001a2:  e6220213          addi                    tp,tp,-414
0x800001a6:  038b87b3          mul                     a5,s7,s8
0x800001aa:  923e              add                     tp,tp,a5
0x800001ac:  00020e33          add                     t3,tp,zero
0x800001b0:  4385              addi                    t2,zero,1
0x800001b2:  4301              mv                      t1,zero
0x800001b4:  000e0233          add                     tp,t3,zero
0x800001b8:  026c07b3          mul                     a5,s8,t1
0x800001bc:  40f20233          sub                     tp,tp,a5
0x800001c0:  6785              lui                     a5,1
0x800001c2:  40f20233          sub                     tp,tp,a5
0x800001c6:  00000717          auipc                   a4,0                    # 0x800001c6
0x800001ca:  e3a70713          addi                    a4,a4,-454
0x800001ce:  40ee07b3          sub                     a5,t3,a4
0x800001d2:  00e23023          sd                      a4,0(tp)
0x800001d6:  00f23423          sd                      a5,8(tp)
0x800001da:  00050433          add                     s0,a0,zero
0x800001de:  000584b3          add                     s1,a1,zero
0x800001e2:  00060933          add                     s2,a2,zero
0x800001e6:  382000ef          jal                     ra,898                  # 0x80000568

----------------
IN: 
Priv: 3; Virt: 0
0x80000568:  00058533          add                     a0,a1,zero
0x8000056c:  8082              ret                     

----------------
IN: 
Priv: 3; Virt: 0
0x800001ea:  00a23823          sd                      a0,16(tp)
0x800001ee:  00040533          add                     a0,s0,zero
0x800001f2:  000485b3          add                     a1,s1,zero
0x800001f6:  00090633          add                     a2,s2,zero
0x800001fa:  00050433          add                     s0,a0,zero
0x800001fe:  000584b3          add                     s1,a1,zero
0x80000202:  00060933          add                     s2,a2,zero
0x80000206:  36a000ef          jal                     ra,874                  # 0x80000570

----------------
IN: 
Priv: 3; Virt: 0
0x80000570:  00000517          auipc                   a0,0                    # 0x80000570
0x80000574:  02050513          addi                    a0,a0,32
0x80000578:  6108              ld                      a0,0(a0)
0x8000057a:  8082              ret                     

----------------
IN: 
Priv: 3; Virt: 0
0x8000020a:  00a23c23          sd                      a0,24(tp)
0x8000020e:  00040533          add                     a0,s0,zero
0x80000212:  000485b3          add                     a1,s1,zero
0x80000216:  00090633          add                     a2,s2,zero
0x8000021a:  00050433          add                     s0,a0,zero
0x8000021e:  000584b3          add                     s1,a1,zero
0x80000222:  00060933          add                     s2,a2,zero
0x80000226:  35a000ef          jal                     ra,858                  # 0x80000580

----------------
IN: 
Priv: 3; Virt: 0
0x80000580:  4505              addi                    a0,zero,1
0x80000582:  8082              ret                     

----------------
IN: 
Priv: 3; Virt: 0
0x8000022a:  02a23023          sd                      a0,32(tp)
0x8000022e:  00040533          add                     a0,s0,zero
0x80000232:  000485b3          add                     a1,s1,zero
0x80000236:  00090633          add                     a2,s2,zero
0x8000023a:  00000717          auipc                   a4,0                    # 0x8000023a
0x8000023e:  10c70713          addi                    a4,a4,268
0x80000242:  02e23423          sd                      a4,40(tp)
0x80000246:  00018717          auipc                   a4,24                   # 0x80018246
0x8000024a:  f3a70713          addi                    a4,a4,-198
0x8000024e:  02e23823          sd                      a4,48(tp)
0x80000252:  00000717          auipc                   a4,0                    # 0x80000252
0x80000256:  17670713          addi                    a4,a4,374
0x8000025a:  02e23c23          sd                      a4,56(tp)
0x8000025e:  00000717          auipc                   a4,0                    # 0x8000025e
0x80000262:  23870713          addi                    a4,a4,568
0x80000266:  04e23023          sd                      a4,64(tp)
0x8000026a:  04023423          sd                      zero,72(tp)
0x8000026e:  00050433          add                     s0,a0,zero
0x80000272:  000584b3          add                     s1,a1,zero
0x80000276:  00060933          add                     s2,a2,zero
0x8000027a:  30e000ef          jal                     ra,782                  # 0x80000588

----------------
IN: 
Priv: 3; Virt: 0
0x80000588:  00000533          add                     a0,zero,zero
0x8000058c:  8082              ret                     

----------------
IN: 
Priv: 3; Virt: 0
0x8000027e:  04a23823          sd                      a0,80(tp)
0x80000282:  00040533          add                     a0,s0,zero
0x80000286:  000485b3          add                     a1,s1,zero
0x8000028a:  00090633          add                     a2,s2,zero
0x8000028e:  931e              add                     t1,t1,t2
0x80000290:  f37342e3          bgt                     s7,t1,-220              # 0x800001b4

----------------
IN: 
Priv: 3; Virt: 0
0x800001b4:  000e0233          add                     tp,t3,zero
0x800001b8:  026c07b3          mul                     a5,s8,t1
0x800001bc:  40f20233          sub                     tp,tp,a5
0x800001c0:  6785              lui                     a5,1
0x800001c2:  40f20233          sub                     tp,tp,a5
0x800001c6:  00000717          auipc                   a4,0                    # 0x800001c6
0x800001ca:  e3a70713          addi                    a4,a4,-454
0x800001ce:  40ee07b3          sub                     a5,t3,a4
0x800001d2:  00e23023          sd                      a4,0(tp)
0x800001d6:  00f23423          sd                      a5,8(tp)
0x800001da:  00050433          add                     s0,a0,zero
0x800001de:  000584b3          add                     s1,a1,zero
0x800001e2:  00060933          add                     s2,a2,zero
0x800001e6:  382000ef          jal                     ra,898                  # 0x80000568

----------------
IN: 
Priv: 3; Virt: 0
0x80000294:  c1d9              beqz                    a1,134                  # 0x8000031a

----------------
IN: 
Priv: 3; Virt: 0
0x80000296:  0ff00713          addi                    a4,zero,255
0x8000029a:  00050433          add                     s0,a0,zero
0x8000029e:  000584b3          add                     s1,a1,zero
0x800002a2:  00060933          add                     s2,a2,zero
0x800002a6:  2c2000ef          jal                     ra,706                  # 0x80000568

----------------
IN: 
Priv: 3; Virt: 0
0x800002aa:  00050333          add                     t1,a0,zero
0x800002ae:  00040533          add                     a0,s0,zero
0x800002b2:  000485b3          add                     a1,s1,zero
0x800002b6:  00090633          add                     a2,s2,zero
0x800002ba:  06030063          beqz                    t1,96                   # 0x8000031a

----------------
IN: 
Priv: 3; Virt: 0
0x800002be:  04b30e63          beq                     t1,a1,92                # 0x8000031a

----------------
IN: 
Priv: 3; Virt: 0
0x8000031a:  4289              addi                    t0,zero,2
0x8000031c:  00018317          auipc                   t1,24                   # 0x8001831c
0x80000320:  cf430313          addi                    t1,t1,-780
0x80000324:  00533023          sd                      t0,0(t1)
0x80000328:  0330000f          fence                   rw,rw
0x8000032c:  a829              j                       26                      # 0x80000346

----------------
IN: 
Priv: 3; Virt: 0
0x80000346:  4081              mv                      ra,zero
0x80000348:  1d0000ef          jal                     ra,464                  # 0x80000518

----------------
IN: 
Priv: 3; Virt: 0
0x8000034c:  30401073          csrrw                   zero,mie,zero

----------------
IN: 
Priv: 3; Virt: 0
0x80000350:  34401073          csrrw                   zero,mip,zero

----------------
IN: 
Priv: 3; Virt: 0
0x80000354:  00018717          auipc                   a4,24                   # 0x80018354
0x80000358:  e2c70713          addi                    a4,a4,-468
0x8000035c:  05076b83          lwu                     s7,80(a4)
0x80000360:  05476c03          lwu                     s8,84(a4)
0x80000364:  06873c83          ld                      s9,104(a4)
0x80000368:  f1402b73          csrrs                   s6,mhartid,zero

----------------
IN: 
Priv: 3; Virt: 0
0x8000036c:  000c8e63          beqz                    s9,28                   # 0x80000388

----------------
IN: 
Priv: 3; Virt: 0
0x80000370:  4701              mv                      a4,zero
0x80000372:  000ce783          lwu                     a5,0(s9)
0x80000376:  01678763          beq                     a5,s6,14                # 0x80000384

----------------
IN: 
Priv: 3; Virt: 0
0x80000384:  00070b33          add                     s6,a4,zero
0x80000388:  077b5863          ble                     s7,s6,112               # 0x800003f8

----------------
IN: 
Priv: 3; Virt: 0
0x8000038c:  00031217          auipc                   tp,49                   # 0x8003138c
0x80000390:  c7420213          addi                    tp,tp,-908
0x80000394:  038b87b3          mul                     a5,s7,s8
0x80000398:  923e              add                     tp,tp,a5
0x8000039a:  036c07b3          mul                     a5,s8,s6
0x8000039e:  40f20233          sub                     tp,tp,a5
0x800003a2:  6785              lui                     a5,1
0x800003a4:  40f20233          sub                     tp,tp,a5
0x800003a8:  34021073          csrrw                   zero,mscratch,tp

----------------
IN: 
Priv: 3; Virt: 0
0x800003ac:  00020133          add                     sp,tp,zero
0x800003b0:  00000717          auipc                   a4,0                    # 0x800003b0
0x800003b4:  05870713          addi                    a4,a4,88
0x800003b8:  30571073          csrrw                   zero,mtvec,a4

----------------
IN: 
Priv: 3; Virt: 0
0x800003bc:  34002573          csrrs                   a0,mscratch,zero

----------------
IN: 
Priv: 3; Virt: 0
0x800003c0:  1fc000ef          jal                     ra,508                  # 0x800005bc

----------------
IN: 
Priv: 3; Virt: 0
0x800005bc:  7155              addi                    sp,sp,-208
0x800005be:  e1a2              sd                      s0,192(sp)
0x800005c0:  e586              sd                      ra,200(sp)
0x800005c2:  fd26              sd                      s1,184(sp)
0x800005c4:  f94a              sd                      s2,176(sp)
0x800005c6:  f54e              sd                      s3,168(sp)
0x800005c8:  f152              sd                      s4,160(sp)
0x800005ca:  ed56              sd                      s5,152(sp)
0x800005cc:  e95a              sd                      s6,144(sp)
0x800005ce:  e55e              sd                      s7,136(sp)
0x800005d0:  e162              sd                      s8,128(sp)
0x800005d2:  0980              addi                    s0,sp,208
0x800005d4:  f1402a73          csrrs                   s4,mhartid,zero

----------------
IN: 
Priv: 3; Virt: 0
0x800005d8:  07f00793          addi                    a5,zero,127
0x800005dc:  000a091b          sext.w                  s2,s4
0x800005e0:  0327e863          bgtu                    s2,a5,48                # 0x80000610

----------------
IN: 
Priv: 3; Virt: 0
0x800005e4:  03053983          ld                      s3,48(a0)
0x800005e8:  84aa              mv                      s1,a0
0x800005ea:  02098363          beqz                    s3,38                   # 0x80000610

----------------
IN: 
Priv: 3; Virt: 0
0x800005ee:  0509aa83          lw                      s5,80(s3)
0x800005f2:  85ca              mv                      a1,s2
0x800005f4:  854e              mv                      a0,s3
0x800005f6:  585000ef          jal                     ra,3460                 # 0x8000137a

----------------
IN: 
Priv: 3; Virt: 0
0x8000137a:  1141              addi                    sp,sp,-16
0x8000137c:  e422              sd                      s0,8(sp)
0x8000137e:  0800              addi                    s0,sp,16
0x80001380:  c11d              beqz                    a0,38                   # 0x800013a6

----------------
IN: 
Priv: 3; Virt: 0
0x80001382:  753c              ld                      a5,104(a0)
0x80001384:  872a              mv                      a4,a0
0x80001386:  852e              mv                      a0,a1
0x80001388:  cf81              beqz                    a5,24                   # 0x800013a0

----------------
IN: 
Priv: 3; Virt: 0
0x8000138a:  4b34              lw                      a3,80(a4)
0x8000138c:  ce89              beqz                    a3,26                   # 0x800013a6

----------------
IN: 
Priv: 3; Virt: 0
0x8000138e:  4501              mv                      a0,zero
0x80001390:  a021              j                       8                       # 0x80001398

----------------
IN: 
Priv: 3; Virt: 0
0x80001398:  4398              lw                      a4,0(a5)
0x8000139a:  0791              addi                    a5,a5,4
0x8000139c:  feb71be3          bne                     a4,a1,-10               # 0x80001392

----------------
IN: 
Priv: 3; Virt: 0
0x800013a0:  6422              ld                      s0,8(sp)
0x800013a2:  0141              addi                    sp,sp,16
0x800013a4:  8082              ret                     

----------------
IN: 
Priv: 3; Virt: 0
0x800005fa:  2501              sext.w                  a0,a0
0x800005fc:  01557a63          bleu                    s5,a0,20                # 0x80000610

----------------
IN: 
Priv: 3; Virt: 0
0x80000600:  709c              ld                      a5,32(s1)
0x80000602:  4705              addi                    a4,zero,1
0x80000604:  0ee78163          beq                     a5,a4,226               # 0x800006e6

----------------
IN: 
Priv: 3; Virt: 0
0x800006e6:  05300513          addi                    a0,zero,83
0x800006ea:  516030ef          jal                     ra,13590                # 0x80003c00

----------------
IN: 
Priv: 3; Virt: 0
0x80003c00:  301027f3          csrrs                   a5,misa,zero

----------------
IN: 
Priv: 3; Virt: 0
0x80003c04:  c785              beqz                    a5,40                   # 0x80003c2c

----------------
IN: 
Priv: 3; Virt: 0
0x80003c06:  fbf5061b          addiw                   a2,a0,-65
0x80003c0a:  0ff67593          andi                    a1,a2,255
0x80003c0e:  46e5              addi                    a3,zero,25
0x80003c10:  04b6f063          bleu                    a1,a3,64                # 0x80003c50

----------------
IN: 
Priv: 3; Virt: 0
0x80003c50:  4505              addi                    a0,zero,1
0x80003c52:  00c5153b          sllw                    a0,a0,a2
0x80003c56:  8d7d              and                     a0,a0,a5
0x80003c58:  2501              sext.w                  a0,a0
0x80003c5a:  8082              ret                     

----------------
IN: 
Priv: 3; Virt: 0
0x800006ee:  f20519e3          bnez                    a0,-206                 # 0x80000620

----------------
IN: 
Priv: 3; Virt: 0
0x80000620:  4585              addi                    a1,zero,1
0x80000622:  0001c517          auipc                   a0,28                   # 0x8001c622
0x80000626:  9de50513          addi                    a0,a0,-1570
0x8000062a:  152040ef          jal                     ra,16722                # 0x8000477c

----------------
IN: 
Priv: 3; Virt: 0
0x8000477c:  7179              addi                    sp,sp,-48
0x8000477e:  f422              sd                      s0,40(sp)
0x80004780:  1800              addi                    s0,sp,48
0x80004782:  fcb43c23          sd                      a1,-40(s0)
0x80004786:  fd843783          ld                      a5,-40(s0)
0x8000478a:  fef43023          sd                      a5,-32(s0)
0x8000478e:  fe043783          ld                      a5,-32(s0)
0x80004792:  0ef537af          amoswap.d.aq.rl         a5,a5,(a0)
0x80004796:  fef43423          sd                      a5,-24(s0)
0x8000479a:  fe843503          ld                      a0,-24(s0)
0x8000479e:  7422              ld                      s0,40(sp)
0x800047a0:  6145              addi                    sp,sp,48
0x800047a2:  8082              ret                     

----------------
IN: 
Priv: 3; Virt: 0
0x8000062e:  e171              bnez                    a0,196                  # 0x800006f2

----------------
IN: 
Priv: 3; Virt: 0
0x80000630:  0589b783          ld                      a5,88(s3)
0x80000634:  639c              ld                      a5,0(a5)
0x80000636:  c399              beqz                    a5,6                    # 0x8000063c

----------------
IN: 
Priv: 3; Virt: 0
0x8000063c:  8526              mv                      a0,s1
0x8000063e:  0304b983          ld                      s3,48(s1)
0x80000642:  587010ef          jal                     ra,7558                 # 0x800023c8

----------------
IN: 
Priv: 3; Virt: 0
0x800023c8:  715d              addi                    sp,sp,-80
0x800023ca:  e0a2              sd                      s0,64(sp)
0x800023cc:  fc26              sd                      s1,56(sp)
0x800023ce:  f052              sd                      s4,32(sp)
0x800023d0:  ec56              sd                      s5,24(sp)
0x800023d2:  e85a              sd                      s6,16(sp)
0x800023d4:  e45e              sd                      s7,8(sp)
0x800023d6:  e486              sd                      ra,72(sp)
0x800023d8:  f84a              sd                      s2,48(sp)
0x800023da:  f44e              sd                      s3,40(sp)
0x800023dc:  e062              sd                      s8,0(sp)
0x800023de:  0880              addi                    s0,sp,80
0x800023e0:  03053903          ld                      s2,48(a0)
0x800023e4:  8aaa              mv                      s5,a0
0x800023e6:  4481              mv                      s1,zero
0x800023e8:  00026b17          auipc                   s6,38                   # 0x800283e8
0x800023ec:  270b0b13          addi                    s6,s6,624
0x800023f0:  00016b97          auipc                   s7,22                   # 0x800183f0
0x800023f4:  c48b8b93          addi                    s7,s7,-952
0x800023f8:  08000a13          addi                    s4,zero,128
0x800023fc:  0004899b          sext.w                  s3,s1
0x80002400:  854a              mv                      a0,s2
0x80002402:  85ce              mv                      a1,s3
0x80002404:  02090c63          beqz                    s2,56                   # 0x8000243c

----------------
IN: 
Priv: 3; Virt: 0
0x80002408:  05092c03          lw                      s8,80(s2)
0x8000240c:  f6ffe0ef          jal                     ra,-4242                # 0x8000137a

----------------
IN: 
Priv: 3; Virt: 0
0x80002410:  87aa              mv                      a5,a0
0x80002412:  2781              sext.w                  a5,a5
0x80002414:  85ce              mv                      a1,s3
0x80002416:  854a              mv                      a0,s2
0x80002418:  0387f263          bleu                    s8,a5,36                # 0x8000243c

----------------
IN: 
Priv: 3; Virt: 0
0x8000241c:  038abc03          ld                      s8,56(s5)
0x80002420:  f5bfe0ef          jal                     ra,-4262                # 0x8000137a

----------------
IN: 
Priv: 3; Virt: 0
0x80002424:  02051593          slli                    a1,a0,32
0x80002428:  9181              srli                    a1,a1,32
0x8000242a:  8526              mv                      a0,s1
0x8000242c:  9c02              jalr                    ra,s8,0

----------------
IN: 
Priv: 3; Virt: 0
0x800003c8:  00018397          auipc                   t2,24                   # 0x800183c8
0x800003cc:  db838393          addi                    t2,t2,-584
0x800003d0:  0543e283          lwu                     t0,84(t2)
0x800003d4:  0503e383          lwu                     t2,80(t2)
0x800003d8:  40b383b3          sub                     t2,t2,a1
0x800003dc:  025383b3          mul                     t2,t2,t0
0x800003e0:  00031317          auipc                   t1,49                   # 0x800313e0
0x800003e4:  c2030313          addi                    t1,t1,-992
0x800003e8:  931e              add                     t1,t1,t2
0x800003ea:  6385              lui                     t2,1
0x800003ec:  40730533          sub                     a0,t1,t2
0x800003f0:  8082              ret                     

----------------
IN: 
Priv: 3; Virt: 0
0x8000242e:  00349793          slli                    a5,s1,3
0x80002432:  97da              add                     a5,a5,s6
0x80002434:  e388              sd                      a0,0(a5)
0x80002436:  c119              beqz                    a0,6                    # 0x8000243c

----------------
IN: 
Priv: 3; Virt: 0
0x80002438:  013ba023          sw                      s3,0(s7)
0x8000243c:  0485              addi                    s1,s1,1
0x8000243e:  fb449fe3          bne                     s1,s4,-66               # 0x800023fc

----------------
IN: 
Priv: 3; Virt: 0
0x800023fc:  0004899b          sext.w                  s3,s1
0x80002400:  854a              mv                      a0,s2
0x80002402:  85ce              mv                      a1,s3
0x80002404:  02090c63          beqz                    s2,56                   # 0x8000243c

----------------
IN: 
Priv: 3; Virt: 0
0x80001392:  2505              addiw                   a0,a0,1
0x80001394:  00d50963          beq                     a0,a3,18                # 0x800013a6

----------------
IN: 
Priv: 3; Virt: 0
0x800013a6:  6422              ld                      s0,8(sp)
0x800013a8:  557d              addi                    a0,zero,-1
0x800013aa:  0141              addi                    sp,sp,16
0x800013ac:  8082              ret                     

----------------
IN: 
Priv: 3; Virt: 0
0x8000243c:  0485              addi                    s1,s1,1
0x8000243e:  fb449fe3          bne                     s1,s4,-66               # 0x800023fc

----------------
IN: 
Priv: 3; Virt: 0
0x80002442:  60a6              ld                      ra,72(sp)
0x80002444:  6406              ld                      s0,64(sp)
0x80002446:  74e2              ld                      s1,56(sp)
0x80002448:  7942              ld                      s2,48(sp)
0x8000244a:  79a2              ld                      s3,40(sp)
0x8000244c:  7a02              ld                      s4,32(sp)
0x8000244e:  6ae2              ld                      s5,24(sp)
0x80002450:  6b42              ld                      s6,16(sp)
0x80002452:  6ba2              ld                      s7,8(sp)
0x80002454:  6c02              ld                      s8,0(sp)
0x80002456:  4501              mv                      a0,zero
0x80002458:  6161              addi                    sp,sp,80
0x8000245a:  8082              ret                     

----------------
IN: 
Priv: 3; Virt: 0
0x80000646:  f569              bnez                    a0,-54                  # 0x80000610

----------------
IN: 
Priv: 3; Virt: 0
0x80000648:  85ca              mv                      a1,s2
0x8000064a:  8526              mv                      a0,s1
0x8000064c:  69c060ef          jal                     ra,26268                # 0x80006ce8

----------------
IN: 
Priv: 3; Virt: 0
0x80006ce8:  7139              addi                    sp,sp,-64
0x80006cea:  fc06              sd                      ra,56(sp)
0x80006cec:  f822              sd                      s0,48(sp)
0x80006cee:  f426              sd                      s1,40(sp)
0x80006cf0:  ec4e              sd                      s3,24(sp)
0x80006cf2:  e852              sd                      s4,16(sp)
0x80006cf4:  e456              sd                      s5,8(sp)
0x80006cf6:  e05a              sd                      s6,0(sp)
0x80006cf8:  f04a              sd                      s2,32(sp)
0x80006cfa:  0080              addi                    s0,sp,64
0x80006cfc:  8b2a              mv                      s6,a0
0x80006cfe:  89ae              mv                      s3,a1
0x80006d00:  6108              ld                      a0,0(a0)
0x80006d02:  008b3583          ld                      a1,8(s6)
0x80006d06:  00022497          auipc                   s1,34                   # 0x80028d06
0x80006d0a:  fa248493          addi                    s1,s1,-94
0x80006d0e:  86a6              mv                      a3,s1
0x80006d10:  4601              mv                      a2,zero
0x80006d12:  030b3903          ld                      s2,48(s6)
0x80006d16:  b82ff0ef          jal                     ra,-3198                # 0x80006098

----------------
IN: 
Priv: 3; Virt: 0
0x80006098:  7179              addi                    sp,sp,-48
0x8000609a:  f022              sd                      s0,32(sp)
0x8000609c:  ec26              sd                      s1,24(sp)
0x8000609e:  e84a              sd                      s2,16(sp)
0x800060a0:  e44e              sd                      s3,8(sp)
0x800060a2:  e052              sd                      s4,0(sp)
0x800060a4:  f406              sd                      ra,40(sp)
0x800060a6:  1800              addi                    s0,sp,48
0x800060a8:  84aa              mv                      s1,a0
0x800060aa:  852e              mv                      a0,a1
0x800060ac:  8a2e              mv                      s4,a1
0x800060ae:  8932              mv                      s2,a2
0x800060b0:  89b6              mv                      s3,a3
0x800060b2:  616030ef          jal                     ra,13846                # 0x800096c8

----------------
IN: 
Priv: 3; Virt: 0
0x800096c8:  1141              addi                    sp,sp,-16
0x800096ca:  e422              sd                      s0,8(sp)
0x800096cc:  0800              addi                    s0,sp,16
0x800096ce:  872a              mv                      a4,a0
0x800096d0:  4501              mv                      a0,zero
0x800096d2:  4685              addi                    a3,zero,1
0x800096d4:  04000613          addi                    a2,zero,64
0x800096d8:  a021              j                       8                       # 0x800096e0

----------------
IN: 
Priv: 3; Virt: 0
0x800096e0:  00a697b3          sll                     a5,a3,a0
0x800096e4:  fee7ebe3          bgtu                    a4,a5,-10               # 0x800096da

----------------
IN: 
Priv: 3; Virt: 0
0x800096da:  0505              addi                    a0,a0,1
0x800096dc:  00c50663          beq                     a0,a2,12                # 0x800096e8

----------------
IN: 
Priv: 3; Virt: 0
0x800096e8:  6422              ld                      s0,8(sp)
0x800096ea:  0141              addi                    sp,sp,16
0x800096ec:  8082              ret                     

----------------
IN: 
Priv: 3; Virt: 0
0x800060b6:  04000793          addi                    a5,zero,64
0x800060ba:  02a7ec63          bgtu                    a0,a5,56                # 0x800060f2

----------------
IN: 
Priv: 3; Virt: 0
0x800060be:  02f50a63          beq                     a0,a5,52                # 0x800060f2

----------------
IN: 
Priv: 3; Virt: 0
0x800060c2:  fff48793          addi                    a5,s1,-1
0x800060c6:  4805              addi                    a6,zero,1
0x800060c8:  014785b3          add                     a1,a5,s4
0x800060cc:  04000893          addi                    a7,zero,64
0x800060d0:  00a81733          sll                     a4,a6,a0
0x800060d4:  40e007b3          neg                     a5,a4
0x800060d8:  8fe5              and                     a5,a5,s1
0x800060da:  973e              add                     a4,a4,a5
0x800060dc:  00f4e863          bgtu                    a5,s1,16                # 0x800060ec

----------------
IN: 
Priv: 3; Virt: 0
0x800060e0:  00e4f663          bleu                    a4,s1,12                # 0x800060ec

----------------
IN: 
Priv: 3; Virt: 0
0x800060e4:  00f5e463          bgtu                    a5,a1,8                 # 0x800060ec

----------------
IN: 
Priv: 3; Virt: 0
0x800060e8:  00e5e663          bgtu                    a4,a1,12                # 0x800060f4

----------------
IN: 
Priv: 3; Virt: 0
0x800060f4:  00098863          beqz                    s3,16                   # 0x80006104

----------------
IN: 
Priv: 3; Virt: 0
0x800060f8:  00f9b423          sd                      a5,8(s3)
0x800060fc:  00a9b023          sd                      a0,0(s3)
0x80006100:  0129b823          sd                      s2,16(s3)
0x80006104:  70a2              ld                      ra,40(sp)
0x80006106:  7402              ld                      s0,32(sp)
0x80006108:  64e2              ld                      s1,24(sp)
0x8000610a:  6942              ld                      s2,16(sp)
0x8000610c:  69a2              ld                      s3,8(sp)
0x8000610e:  6a02              ld                      s4,0(sp)
0x80006110:  6145              addi                    sp,sp,48
0x80006112:  8082              ret                     

----------------
IN: 
Priv: 3; Virt: 0
0x80006d1a:  6b84a783          lw                      a5,1720(s1)
0x80006d1e:  00022a17          auipc                   s4,34                   # 0x80028d1e
0x80006d22:  4aaa0a13          addi                    s4,s4,1194
0x80006d26:  85a6              mv                      a1,s1
0x80006d28:  02079713          slli                    a4,a5,32
0x80006d2c:  9301              srli                    a4,a4,32
0x80006d2e:  00171513          slli                    a0,a4,1
0x80006d32:  953a              add                     a0,a0,a4
0x80006d34:  050e              slli                    a0,a0,3
0x80006d36:  2785              addiw                   a5,a5,1
0x80006d38:  4661              addi                    a2,zero,24
0x80006d3a:  9552              add                     a0,a0,s4
0x80006d3c:  6af4ac23          sw                      a5,1720(s1)
0x80006d40:  963fb0ef          jal                     ra,-18078               # 0x800026a2

----------------
IN: 
Priv: 3; Virt: 0
0x800026a2:  1141              addi                    sp,sp,-16
0x800026a4:  e422              sd                      s0,8(sp)
0x800026a6:  0800              addi                    s0,sp,16
0x800026a8:  ca19              beqz                    a2,22                   # 0x800026be

----------------
IN: 
Priv: 3; Virt: 0
0x800026aa:  962a              add                     a2,a2,a0
0x800026ac:  87aa              mv                      a5,a0
0x800026ae:  0005c703          lbu                     a4,0(a1)
0x800026b2:  0785              addi                    a5,a5,1
0x800026b4:  0585              addi                    a1,a1,1
0x800026b6:  fee78fa3          sb                      a4,-1(a5)
0x800026ba:  fec79ae3          bne                     a5,a2,-12               # 0x800026ae

----------------
IN: 
Priv: 3; Virt: 0
0x800026ae:  0005c703          lbu                     a4,0(a1)
0x800026b2:  0785              addi                    a5,a5,1
0x800026b4:  0585              addi                    a1,a1,1
0x800026b6:  fee78fa3          sb                      a4,-1(a5)
0x800026ba:  fec79ae3          bne                     a5,a2,-12               # 0x800026ae

----------------
IN: 
Priv: 3; Virt: 0
0x800026be:  6422              ld                      s0,8(sp)
0x800026c0:  0141              addi                    sp,sp,16
0x800026c2:  8082              ret                     

----------------
IN: 
Priv: 3; Virt: 0
0x80006d44:  6b84a703          lw                      a4,1720(s1)
0x80006d48:  461d              addi                    a2,zero,7
0x80006d4a:  55fd              addi                    a1,zero,-1
0x80006d4c:  02071693          slli                    a3,a4,32
0x80006d50:  9281              srli                    a3,a3,32
0x80006d52:  00169793          slli                    a5,a3,1
0x80006d56:  97b6              add                     a5,a5,a3
0x80006d58:  078e              slli                    a5,a5,3
0x80006d5a:  00fa06b3          add                     a3,s4,a5
0x80006d5e:  2705              addiw                   a4,a4,1
0x80006d60:  4501              mv                      a0,zero
0x80006d62:  6ae4ac23          sw                      a4,1720(s1)
0x80006d66:  b32ff0ef          jal                     ra,-3278                # 0x80006098

----------------
IN: 
Priv: 3; Virt: 0
0x800060f2:  4781              mv                      a5,zero
0x800060f4:  00098863          beqz                    s3,16                   # 0x80006104

----------------
IN: 
Priv: 3; Virt: 0
0x80006d6a:  6b84e683          lwu                     a3,1720(s1)
0x80006d6e:  00011717          auipc                   a4,17                   # 0x80017d6e
0x80006d72:  73270713          addi                    a4,a4,1842
0x80006d76:  07372423          sw                      s3,104(a4)
0x80006d7a:  00169793          slli                    a5,a3,1
0x80006d7e:  97b6              add                     a5,a5,a3
0x80006d80:  078e              slli                    a5,a5,3
0x80006d82:  94be              add                     s1,s1,a5
0x80006d84:  5204b023          sd                      zero,1312(s1)
0x80006d88:  010b3783          ld                      a5,16(s6)
0x80006d8c:  4481              mv                      s1,zero
0x80006d8e:  00022a97          auipc                   s5,34                   # 0x80028d8e
0x80006d92:  5daa8a93          addi                    s5,s5,1498
0x80006d96:  fb3c              sd                      a5,112(a4)
0x80006d98:  018b3783          ld                      a5,24(s6)
0x80006d9c:  4a05              addi                    s4,zero,1
0x80006d9e:  08000993          addi                    s3,zero,128
0x80006da2:  ff3c              sd                      a5,120(a4)
0x80006da4:  020b3783          ld                      a5,32(s6)
0x80006da8:  e35c              sd                      a5,128(a4)
0x80006daa:  85a6              mv                      a1,s1
0x80006dac:  854a              mv                      a0,s2
0x80006dae:  02090263          beqz                    s2,36                   # 0x80006dd2

----------------
IN: 
Priv: 3; Virt: 0
0x80006db2:  05092b03          lw                      s6,80(s2)
0x80006db6:  dc4fa0ef          jal                     ra,-23100               # 0x8000137a

----------------
IN: 
Priv: 3; Virt: 0
0x80006dba:  4064d793          srai                    a5,s1,6
0x80006dbe:  078e              slli                    a5,a5,3
0x80006dc0:  2501              sext.w                  a0,a0
0x80006dc2:  97d6              add                     a5,a5,s5
0x80006dc4:  009a16b3          sll                     a3,s4,s1
0x80006dc8:  01657563          bleu                    s6,a0,10                # 0x80006dd2

----------------
IN: 
Priv: 3; Virt: 0
0x80006dcc:  6398              ld                      a4,0(a5)
0x80006dce:  8f55              or                      a4,a4,a3
0x80006dd0:  e398              sd                      a4,0(a5)
0x80006dd2:  2485              addiw                   s1,s1,1
0x80006dd4:  fd349be3          bne                     s1,s3,-42               # 0x80006daa

----------------
IN: 
Priv: 3; Virt: 0
0x80006daa:  85a6              mv                      a1,s1
0x80006dac:  854a              mv                      a0,s2
0x80006dae:  02090263          beqz                    s2,36                   # 0x80006dd2

----------------
IN: 
Priv: 3; Virt: 0
0x80006dd2:  2485              addiw                   s1,s1,1
0x80006dd4:  fd349be3          bne                     s1,s3,-42               # 0x80006daa

----------------
IN: 
Priv: 3; Virt: 0
0x80006dd8:  00022597          auipc                   a1,34                   # 0x80028dd8
0x80006ddc:  59058593          addi                    a1,a1,1424
0x80006de0:  00011517          auipc                   a0,17                   # 0x80017de0
0x80006de4:  6c050513          addi                    a0,a0,1728
0x80006de8:  9bfff0ef          jal                     ra,-1602                # 0x800067a6

----------------
IN: 
Priv: 3; Virt: 0
0x800067a6:  711d              addi                    sp,sp,-96
0x800067a8:  e8a2              sd                      s0,80(sp)
0x800067aa:  ec86              sd                      ra,88(sp)
0x800067ac:  e4a6              sd                      s1,72(sp)
0x800067ae:  e0ca              sd                      s2,64(sp)
0x800067b0:  fc4e              sd                      s3,56(sp)
0x800067b2:  f852              sd                      s4,48(sp)
0x800067b4:  f456              sd                      s5,40(sp)
0x800067b6:  f05a              sd                      s6,32(sp)
0x800067b8:  ec5e              sd                      s7,24(sp)
0x800067ba:  e862              sd                      s8,16(sp)
0x800067bc:  e466              sd                      s9,8(sp)
0x800067be:  e06a              sd                      s10,0(sp)
0x800067c0:  1080              addi                    s0,sp,96
0x800067c2:  f1402a73          csrrs                   s4,mhartid,zero

----------------
IN: 
Priv: 3; Virt: 0
0x800067c6:  340026f3          csrrs                   a3,mscratch,zero

----------------
IN: 
Priv: 3; Virt: 0
0x800067ca:  16050f63          beqz                    a0,382                  # 0x80006948

----------------
IN: 
Priv: 3; Virt: 0
0x800067ce:  89ae              mv                      s3,a1
0x800067d0:  16058c63          beqz                    a1,376                  # 0x80006948

----------------
IN: 
Priv: 3; Virt: 0
0x800067d4:  00022d17          auipc                   s10,34                  # 0x800287d4
0x800067d8:  4d4d0d13          addi                    s10,s10,1236
0x800067dc:  118d2783          lw                      a5,280(s10)
0x800067e0:  16079463          bnez                    a5,360                  # 0x80006948

----------------
IN: 
Priv: 3; Virt: 0
0x800067e4:  018d3783          ld                      a5,24(s10)
0x800067e8:  892a              mv                      s2,a0
0x800067ea:  cf85              beqz                    a5,56                   # 0x80006822

----------------
IN: 
Priv: 3; Virt: 0
0x80006822:  11cd2703          lw                      a4,284(s10)
0x80006826:  47fd              addi                    a5,zero,31
0x80006828:  10e7e163          bgtu                    a4,a5,258               # 0x8000692a

----------------
IN: 
Priv: 3; Virt: 0
0x8000682c:  7a88              ld                      a0,48(a3)
0x8000682e:  85ca              mv                      a1,s2
0x80006830:  981ff0ef          jal                     ra,-1664                # 0x800061b0

----------------
IN: 
Priv: 3; Virt: 0
0x800061b0:  7135              addi                    sp,sp,-160
0x800061b2:  e922              sd                      s0,144(sp)
0x800061b4:  fcce              sd                      s3,120(sp)
0x800061b6:  ed06              sd                      ra,152(sp)
0x800061b8:  e526              sd                      s1,136(sp)
0x800061ba:  e14a              sd                      s2,128(sp)
0x800061bc:  f8d2              sd                      s4,112(sp)
0x800061be:  f4d6              sd                      s5,104(sp)
0x800061c0:  f0da              sd                      s6,96(sp)
0x800061c2:  ecde              sd                      s7,88(sp)
0x800061c4:  e8e2              sd                      s8,80(sp)
0x800061c6:  e4e6              sd                      s9,72(sp)
0x800061c8:  e0ea              sd                      s10,64(sp)
0x800061ca:  fc6e              sd                      s11,56(sp)
0x800061cc:  1100              addi                    s0,sp,160
0x800061ce:  6dbc              ld                      a5,88(a1)
0x800061d0:  89ae              mv                      s3,a1
0x800061d2:  1e078963          beqz                    a5,498                  # 0x800063c4

----------------
IN: 
Priv: 3; Virt: 0
0x800061d6:  892a              mv                      s2,a0
0x800061d8:  08000593          addi                    a1,zero,128
0x800061dc:  853e              mv                      a0,a5
0x800061de:  9a0ff0ef          jal                     ra,-3680                # 0x8000537e

----------------
IN: 
Priv: 3; Virt: 0
0x8000537e:  1141              addi                    sp,sp,-16
0x80005380:  e422              sd                      s0,8(sp)
0x80005382:  0800              addi                    s0,sp,16
0x80005384:  fc05f793          andi                    a5,a1,-64
0x80005388:  c3ad              beqz                    a5,98                   # 0x800053ea

----------------
IN: 
Priv: 3; Virt: 0
0x8000538a:  4781              mv                      a5,zero
0x8000538c:  a801              j                       16                      # 0x8000539c

----------------
IN: 
Priv: 3; Virt: 0
0x8000539c:  6118              ld                      a4,0(a0)
0x8000539e:  0521              addi                    a0,a0,8
0x800053a0:  d77d              beqz                    a4,-18                  # 0x8000538e

----------------
IN: 
Priv: 3; Virt: 0
0x800053a2:  02071613          slli                    a2,a4,32
0x800053a6:  9201              srli                    a2,a2,32
0x800053a8:  4681              mv                      a3,zero
0x800053aa:  e601              bnez                    a2,8                    # 0x800053b2

----------------
IN: 
Priv: 3; Virt: 0
0x800053b2:  03071613          slli                    a2,a4,48
0x800053b6:  9241              srli                    a2,a2,48
0x800053b8:  e219              bnez                    a2,6                    # 0x800053be

----------------
IN: 
Priv: 3; Virt: 0
0x800053be:  0ff77613          andi                    a2,a4,255
0x800053c2:  e219              bnez                    a2,6                    # 0x800053c8

----------------
IN: 
Priv: 3; Virt: 0
0x800053c8:  00f77613          andi                    a2,a4,15
0x800053cc:  e219              bnez                    a2,6                    # 0x800053d2

----------------
IN: 
Priv: 3; Virt: 0
0x800053d2:  00377613          andi                    a2,a4,3
0x800053d6:  e219              bnez                    a2,6                    # 0x800053dc

----------------
IN: 
Priv: 3; Virt: 0
0x800053dc:  8b05              andi                    a4,a4,1
0x800053de:  cb05              beqz                    a4,48                   # 0x8000540e

----------------
IN: 
Priv: 3; Virt: 0
0x800053e0:  97b6              add                     a5,a5,a3
0x800053e2:  6422              ld                      s0,8(sp)
0x800053e4:  853e              mv                      a0,a5
0x800053e6:  0141              addi                    sp,sp,16
0x800053e8:  8082              ret                     

----------------
IN: 
Priv: 3; Virt: 0
0x800061e2:  0005049b          sext.w                  s1,a0
0x800061e6:  07f00793          addi                    a5,zero,127
0x800061ea:  0697eb63          bgtu                    s1,a5,118               # 0x80006260

----------------
IN: 
Priv: 3; Virt: 0
0x800061ee:  07f00a93          addi                    s5,zero,127
0x800061f2:  00091b63          bnez                    s2,22                   # 0x80006208

----------------
IN: 
Priv: 3; Virt: 0
0x80006208:  85a6              mv                      a1,s1
0x8000620a:  854a              mv                      a0,s2
0x8000620c:  05092a03          lw                      s4,80(s2)
0x80006210:  96afb0ef          jal                     ra,-20118               # 0x8000137a

----------------
IN: 
Priv: 3; Virt: 0
0x80006214:  0014861b          addiw                   a2,s1,1
0x80006218:  1602              slli                    a2,a2,32
0x8000621a:  2501              sext.w                  a0,a0
0x8000621c:  9201              srli                    a2,a2,32
0x8000621e:  08000593          addi                    a1,zero,128
0x80006222:  fd456be3          bgtu                    s4,a0,-42               # 0x800061f8

----------------
IN: 
Priv: 3; Virt: 0
0x800061f8:  0589b503          ld                      a0,88(s3)
0x800061fc:  b3cff0ef          jal                     ra,-3268                # 0x80005538

----------------
IN: 
Priv: 3; Virt: 0
0x80005538:  1141              addi                    sp,sp,-16
0x8000553a:  e422              sd                      s0,8(sp)
0x8000553c:  0800              addi                    s0,sp,16
0x8000553e:  0ab67363          bleu                    a1,a2,166               # 0x800055e4

----------------
IN: 
Priv: 3; Virt: 0
0x80005542:  00665713          srli                    a4,a2,6
0x80005546:  87aa              mv                      a5,a0
0x80005548:  070e              slli                    a4,a4,3
0x8000554a:  fc067513          andi                    a0,a2,-64
0x8000554e:  03f67613          andi                    a2,a2,63
0x80005552:  97ba              add                     a5,a5,a4
0x80005554:  8d89              sub                     a1,a1,a0
0x80005556:  e62d              bnez                    a2,106                  # 0x800055c0

----------------
IN: 
Priv: 3; Virt: 0
0x800055c0:  0007b803          ld                      a6,0(a5)
0x800055c4:  577d              addi                    a4,zero,-1
0x800055c6:  00c71733          sll                     a4,a4,a2
0x800055ca:  03f00693          addi                    a3,zero,63
0x800055ce:  01077733          and                     a4,a4,a6
0x800055d2:  00b6ff63          bleu                    a1,a3,30                # 0x800055f0

----------------
IN: 
Priv: 3; Virt: 0
0x800055d6:  f34d              bnez                    a4,-94                  # 0x80005578

----------------
IN: 
Priv: 3; Virt: 0
0x80005578:  02071693          slli                    a3,a4,32
0x8000557c:  9281              srli                    a3,a3,32
0x8000557e:  4781              mv                      a5,zero
0x80005580:  e681              bnez                    a3,8                    # 0x80005588

----------------
IN: 
Priv: 3; Virt: 0
0x80005588:  03071693          slli                    a3,a4,48
0x8000558c:  92c1              srli                    a3,a3,48
0x8000558e:  e299              bnez                    a3,6                    # 0x80005594

----------------
IN: 
Priv: 3; Virt: 0
0x80005594:  0ff77693          andi                    a3,a4,255
0x80005598:  e299              bnez                    a3,6                    # 0x8000559e

----------------
IN: 
Priv: 3; Virt: 0
0x8000559e:  00f77693          andi                    a3,a4,15
0x800055a2:  e299              bnez                    a3,6                    # 0x800055a8

----------------
IN: 
Priv: 3; Virt: 0
0x800055a8:  00377693          andi                    a3,a4,3
0x800055ac:  e299              bnez                    a3,6                    # 0x800055b2

----------------
IN: 
Priv: 3; Virt: 0
0x800055b2:  8b05              andi                    a4,a4,1
0x800055b4:  e311              bnez                    a4,4                    # 0x800055b8

----------------
IN: 
Priv: 3; Virt: 0
0x800055b6:  2785              addiw                   a5,a5,1
0x800055b8:  953e              add                     a0,a0,a5
0x800055ba:  6422              ld                      s0,8(sp)
0x800055bc:  0141              addi                    sp,sp,16
0x800055be:  8082              ret                     

----------------
IN: 
Priv: 3; Virt: 0
0x80006200:  0005049b          sext.w                  s1,a0
0x80006204:  049aee63          bgtu                    s1,s5,92                # 0x80006260

----------------
IN: 
Priv: 3; Virt: 0
0x800055ae:  2789              addiw                   a5,a5,2
0x800055b0:  8309              srli                    a4,a4,2
0x800055b2:  8b05              andi                    a4,a4,1
0x800055b4:  e311              bnez                    a4,4                    # 0x800055b8

----------------
IN: 
Priv: 3; Virt: 0
0x800055b8:  953e              add                     a0,a0,a5
0x800055ba:  6422              ld                      s0,8(sp)
0x800055bc:  0141              addi                    sp,sp,16
0x800055be:  8082              ret                     

----------------
IN: 
Priv: 3; Virt: 0
0x800055a4:  2791              addiw                   a5,a5,4
0x800055a6:  8311              srli                    a4,a4,4
0x800055a8:  00377693          andi                    a3,a4,3
0x800055ac:  e299              bnez                    a3,6                    # 0x800055b2

----------------
IN: 
Priv: 3; Virt: 0
0x800055d8:  07a1              addi                    a5,a5,8
0x800055da:  fc058593          addi                    a1,a1,-64
0x800055de:  04050513          addi                    a0,a0,64
0x800055e2:  bf9d              j                       -138                    # 0x80005558

----------------
IN: 
Priv: 3; Virt: 0
0x80005558:  fc05f713          andi                    a4,a1,-64
0x8000555c:  cb41              beqz                    a4,144                  # 0x800055ec

----------------
IN: 
Priv: 3; Virt: 0
0x8000555e:  00b506b3          add                     a3,a0,a1
0x80005562:  a801              j                       16                      # 0x80005572

----------------
IN: 
Priv: 3; Virt: 0
0x80005572:  6398              ld                      a4,0(a5)
0x80005574:  07a1              addi                    a5,a5,8
0x80005576:  d77d              beqz                    a4,-18                  # 0x80005564

----------------
IN: 
Priv: 3; Virt: 0
0x80005564:  04050513          addi                    a0,a0,64
0x80005568:  40a685b3          sub                     a1,a3,a0
0x8000556c:  fc05f713          andi                    a4,a1,-64
0x80005570:  cf35              beqz                    a4,124                  # 0x800055ec

----------------
IN: 
Priv: 3; Virt: 0
0x800055ec:  d5f9              beqz                    a1,-50                  # 0x800055ba

----------------
IN: 
Priv: 3; Virt: 0
0x800055ba:  6422              ld                      s0,8(sp)
0x800055bc:  0141              addi                    sp,sp,16
0x800055be:  8082              ret                     

----------------
IN: 
Priv: 3; Virt: 0
0x80006260:  0609b783          ld                      a5,96(s3)
0x80006264:  1a078d63          beqz                    a5,442                  # 0x8000641e

----------------
IN: 
Priv: 3; Virt: 0
0x80006268:  0007b803          ld                      a6,0(a5)
0x8000626c:  853e              mv                      a0,a5
0x8000626e:  03d00313          addi                    t1,zero,61
0x80006272:  8742              mv                      a4,a6
0x80006274:  04000e13          addi                    t3,zero,64
0x80006278:  58fd              addi                    a7,zero,-1
0x8000627a:  1c080063          beqz                    a6,448                  # 0x8000643a

----------------
IN: 
Priv: 3; Virt: 0
0x8000627e:  00e896b3          sll                     a3,a7,a4
0x80006282:  ffd70593          addi                    a1,a4,-3
0x80006286:  fff6c613          not                     a2,a3
0x8000628a:  6514              ld                      a3,8(a0)
0x8000628c:  04b36063          bgtu                    a1,t1,64                # 0x800062cc

----------------
IN: 
Priv: 3; Virt: 0
0x80006290:  03c70d63          beq                     a4,t3,58                # 0x800062ca

----------------
IN: 
Priv: 3; Virt: 0
0x80006294:  8e75              and                     a2,a2,a3
0x80006296:  ea1d              bnez                    a2,54                   # 0x800062cc

----------------
IN: 
Priv: 3; Virt: 0
0x80006298:  6d18              ld                      a4,24(a0)
0x8000629a:  0561              addi                    a0,a0,24
0x8000629c:  f36d              bnez                    a4,-30                  # 0x8000627e

----------------
IN: 
Priv: 3; Virt: 0
0x800062ca:  d6f9              beqz                    a3,-50                  # 0x80006298

----------------
IN: 
Priv: 3; Virt: 0
0x8000629e:  00023717          auipc                   a4,35                   # 0x8002929e
0x800062a2:  a0a70713          addi                    a4,a4,-1526
0x800062a6:  6314              ld                      a3,0(a4)
0x800062a8:  670c              ld                      a1,8(a4)
0x800062aa:  01073883          ld                      a7,16(a4)
0x800062ae:  4501              mv                      a0,zero
0x800062b0:  873e              mv                      a4,a5
0x800062b2:  4b01              mv                      s6,zero
0x800062b4:  03068b63          beq                     a3,a6,54                # 0x800062ea

----------------
IN: 
Priv: 3; Virt: 0
0x800062ea:  6710              ld                      a2,8(a4)
0x800062ec:  fcb616e3          bne                     a2,a1,-52               # 0x800062b8

----------------
IN: 
Priv: 3; Virt: 0
0x800062f0:  6b10              ld                      a2,16(a4)
0x800062f2:  fd1613e3          bne                     a2,a7,-58               # 0x800062b8

----------------
IN: 
Priv: 3; Virt: 0
0x800062f6:  4505              addi                    a0,zero,1
0x800062f8:  b7c1              j                       -64                     # 0x800062b8

----------------
IN: 
Priv: 3; Virt: 0
0x800062b8:  01873803          ld                      a6,24(a4)
0x800062bc:  001b0b9b          addiw                   s7,s6,1
0x800062c0:  0761              addi                    a4,a4,24
0x800062c2:  02080c63          beqz                    a6,56                   # 0x800062fa

----------------
IN: 
Priv: 3; Virt: 0
0x800062c6:  8b5e              mv                      s6,s7
0x800062c8:  b7f5              j                       -20                     # 0x800062b4

----------------
IN: 
Priv: 3; Virt: 0
0x800062b4:  03068b63          beq                     a3,a6,54                # 0x800062ea

----------------
IN: 
Priv: 3; Virt: 0
0x800062fa:  14050063          beqz                    a0,320                  # 0x8000643a

----------------
IN: 
Priv: 3; Virt: 0
0x800062fe:  4c85              addi                    s9,zero,1
0x80006300:  f7840a93          addi                    s5,s0,-136
0x80006304:  0c0b0e63          beqz                    s6,220                  # 0x800063e0

----------------
IN: 
Priv: 3; Virt: 0
0x80006308:  000c8c1b          sext.w                  s8,s9
0x8000630c:  01078db3          add                     s11,a5,a6
0x80006310:  01880913          addi                    s2,a6,24
0x80006314:  077c7b63          bleu                    s7,s8,118               # 0x8000638a

----------------
IN: 
Priv: 3; Virt: 0
0x80006318:  418b073b          subw                    a4,s6,s8
0x8000631c:  1702              slli                    a4,a4,32
0x8000631e:  9301              srli                    a4,a4,32
0x80006320:  001c8693          addi                    a3,s9,1
0x80006324:  9736              add                     a4,a4,a3
0x80006326:  00171d13          slli                    s10,a4,1
0x8000632a:  01880913          addi                    s2,a6,24
0x8000632e:  976a              add                     a4,a4,s10
0x80006330:  8a4a              mv                      s4,s2
0x80006332:  00371d13          slli                    s10,a4,3
0x80006336:  014784b3          add                     s1,a5,s4
0x8000633a:  85ee              mv                      a1,s11
0x8000633c:  8526              mv                      a0,s1
0x8000633e:  c71ff0ef          jal                     ra,-912                 # 0x80005fae

----------------
IN: 
Priv: 3; Virt: 0
0x80005fae:  1141              addi                    sp,sp,-16
0x80005fb0:  e422              sd                      s0,8(sp)
0x80005fb2:  0800              addi                    s0,sp,16
0x80005fb4:  6510              ld                      a2,8(a0)
0x80005fb6:  6118              ld                      a4,0(a0)
0x80005fb8:  0085b803          ld                      a6,8(a1)
0x80005fbc:  86aa              mv                      a3,a0
0x80005fbe:  6188              ld                      a0,0(a1)
0x80005fc0:  4785              addi                    a5,zero,1
0x80005fc2:  00e79733          sll                     a4,a5,a4
0x80005fc6:  fff60893          addi                    a7,a2,-1
0x80005fca:  00a797b3          sll                     a5,a5,a0
0x80005fce:  fff80513          addi                    a0,a6,-1
0x80005fd2:  97aa              add                     a5,a5,a0
0x80005fd4:  9746              add                     a4,a4,a7
0x80005fd6:  4501              mv                      a0,zero
0x80005fd8:  01066d63          bgtu                    a6,a2,26                # 0x80005ff2

----------------
IN: 
Priv: 3; Virt: 0
0x80005ff2:  fee87de3          bleu                    a4,a6,-6                # 0x80005fec

----------------
IN: 
Priv: 3; Virt: 0
0x80005fec:  6422              ld                      s0,8(sp)
0x80005fee:  0141              addi                    sp,sp,16
0x80005ff0:  8082              ret                     

----------------
IN: 
Priv: 3; Virt: 0
0x80006342:  0004b883          ld                      a7,0(s1)
0x80006346:  000db703          ld                      a4,0(s11)
0x8000634a:  0a61              addi                    s4,s4,24
0x8000634c:  e531              bnez                    a0,76                   # 0x80006398

----------------
IN: 
Priv: 3; Virt: 0
0x8000634e:  85a6              mv                      a1,s1
0x80006350:  4661              addi                    a2,zero,24
0x80006352:  8556              mv                      a0,s5
0x80006354:  00e8ee63          bgtu                    a4,a7,28                # 0x80006370

----------------
IN: 
Priv: 3; Virt: 0
0x80006358:  00e88763          beq                     a7,a4,14                # 0x80006366

----------------
IN: 
Priv: 3; Virt: 0
0x8000635c:  03aa0763          beq                     s4,s10,46               # 0x8000638a

----------------
IN: 
Priv: 3; Virt: 0
0x8000638a:  884a              mv                      a6,s2
0x8000638c:  056c7a63          bleu                    s6,s8,84                # 0x800063e0

----------------
IN: 
Priv: 3; Virt: 0
0x800063e0:  0809b603          ld                      a2,128(s3)
0x800063e4:  4785              addi                    a5,zero,1
0x800063e6:  06c7e863          bgtu                    a2,a5,112               # 0x80006456

----------------
IN: 
Priv: 3; Virt: 0
0x800063ea:  0789b483          ld                      s1,120(s3)
0x800063ee:  4691              addi                    a3,zero,4
0x800063f0:  854e              mv                      a0,s3
0x800063f2:  85a6              mv                      a1,s1
0x800063f4:  d21ff0ef          jal                     ra,-736                 # 0x80006114

----------------
IN: 
Priv: 3; Virt: 0
0x80006114:  1141              addi                    sp,sp,-16
0x80006116:  e422              sd                      s0,8(sp)
0x80006118:  0800              addi                    s0,sp,16
0x8000611a:  c559              beqz                    a0,142                  # 0x800061a8

----------------
IN: 
Priv: 3; Virt: 0
0x8000611c:  0026f793          andi                    a5,a3,2
0x80006120:  0016ff13          andi                    t5,a3,1
0x80006124:  c399              beqz                    a5,6                    # 0x8000612a

----------------
IN: 
Priv: 3; Virt: 0
0x8000612a:  0046f793          andi                    a5,a3,4
0x8000612e:  ebb5              bnez                    a5,116                  # 0x800061a2

----------------
IN: 
Priv: 3; Virt: 0
0x800061a2:  004f6f13          ori                     t5,t5,4
0x800061a6:  b769              j                       -118                    # 0x80006130

----------------
IN: 
Priv: 3; Virt: 0
0x80006130:  713c              ld                      a5,96(a0)
0x80006132:  6398              ld                      a4,0(a5)
0x80006134:  c32d              beqz                    a4,98                   # 0x80006196

----------------
IN: 
Priv: 3; Virt: 0
0x80006136:  4e0d              addi                    t3,zero,3
0x80006138:  03f00e93          addi                    t4,zero,63
0x8000613c:  4305              addi                    t1,zero,1
0x8000613e:  a819              j                       22                      # 0x80006154

----------------
IN: 
Priv: 3; Virt: 0
0x80006154:  0107b883          ld                      a7,16(a5)
0x80006158:  00e31533          sll                     a0,t1,a4
0x8000615c:  03c60663          beq                     a2,t3,44                # 0x80006188

----------------
IN: 
Priv: 3; Virt: 0
0x80006160:  0087b803          ld                      a6,8(a5)
0x80006164:  fceefee3          bleu                    a4,t4,-36               # 0x80006140

----------------
IN: 
Priv: 3; Virt: 0
0x80006140:  fff80713          addi                    a4,a6,-1
0x80006144:  953a              add                     a0,a0,a4
0x80006146:  0105e463          bgtu                    a6,a1,8                 # 0x8000614e

----------------
IN: 
Priv: 3; Virt: 0
0x8000614e:  6f98              ld                      a4,24(a5)
0x80006150:  07e1              addi                    a5,a5,24
0x80006152:  c331              beqz                    a4,68                   # 0x80006196

----------------
IN: 
Priv: 3; Virt: 0
0x80006168:  ff05e3e3          bgtu                    a6,a1,-26               # 0x8000614e

----------------
IN: 
Priv: 3; Virt: 0
0x8000616c:  828d              srli                    a3,a3,3
0x8000616e:  01f8d79b          srliw                   a5,a7,31
0x80006172:  8a85              andi                    a3,a3,1
0x80006174:  4501              mv                      a0,zero
0x80006176:  02d79363          bne                     a5,a3,38                # 0x8000619c

----------------
IN: 
Priv: 3; Virt: 0
0x8000617a:  011f7533          and                     a0,t5,a7
0x8000617e:  41e50533          sub                     a0,a0,t5
0x80006182:  00153513          seqz                    a0,a0
0x80006186:  a819              j                       22                      # 0x8000619c

----------------
IN: 
Priv: 3; Virt: 0
0x8000619c:  6422              ld                      s0,8(sp)
0x8000619e:  0141              addi                    sp,sp,16
0x800061a0:  8082              ret                     

----------------
IN: 
Priv: 3; Virt: 0
0x800063f8:  87aa              mv                      a5,a0
0x800063fa:  4501              mv                      a0,zero
0x800063fc:  e40793e3          bnez                    a5,-442                 # 0x80006242

----------------
IN: 
Priv: 3; Virt: 0
0x80006242:  60ea              ld                      ra,152(sp)
0x80006244:  644a              ld                      s0,144(sp)
0x80006246:  64aa              ld                      s1,136(sp)
0x80006248:  690a              ld                      s2,128(sp)
0x8000624a:  79e6              ld                      s3,120(sp)
0x8000624c:  7a46              ld                      s4,112(sp)
0x8000624e:  7aa6              ld                      s5,104(sp)
0x80006250:  7b06              ld                      s6,96(sp)
0x80006252:  6be6              ld                      s7,88(sp)
0x80006254:  6c46              ld                      s8,80(sp)
0x80006256:  6ca6              ld                      s9,72(sp)
0x80006258:  6d06              ld                      s10,64(sp)
0x8000625a:  7de2              ld                      s11,56(sp)
0x8000625c:  610d              addi                    sp,sp,160
0x8000625e:  8082              ret                     

----------------
IN: 
Priv: 3; Virt: 0
0x80006834:  8baa              mv                      s7,a0
0x80006836:  ed61              bnez                    a0,216                  # 0x8000690e

----------------
IN: 
Priv: 3; Virt: 0
0x80006838:  11cd2783          lw                      a5,284(s10)
0x8000683c:  08000593          addi                    a1,zero,128
0x80006840:  854e              mv                      a0,s3
0x80006842:  02079713          slli                    a4,a5,32
0x80006846:  8375              srli                    a4,a4,29
0x80006848:  00f92023          sw                      a5,0(s2)
0x8000684c:  976a              add                     a4,a4,s10
0x8000684e:  01273c23          sd                      s2,24(a4)
0x80006852:  2785              addiw                   a5,a5,1
0x80006854:  00093423          sd                      zero,8(s2)
0x80006858:  00093823          sd                      zero,16(s2)
0x8000685c:  10fd2e23          sw                      a5,284(s10)
0x80006860:  b1ffe0ef          jal                     ra,-5346                # 0x8000537e

----------------
IN: 
Priv: 3; Virt: 0
0x80006864:  0005049b          sext.w                  s1,a0
0x80006868:  07f00793          addi                    a5,zero,127
0x8000686c:  00890b13          addi                    s6,s2,8
0x80006870:  2a01              sext.w                  s4,s4
0x80006872:  4c05              addi                    s8,zero,1
0x80006874:  00010c97          auipc                   s9,16                   # 0x80016874
0x80006878:  df4c8c93          addi                    s9,s9,-524
0x8000687c:  07f00a93          addi                    s5,zero,127
0x80006880:  0297f063          bleu                    s1,a5,32                # 0x800068a0

----------------
IN: 
Priv: 3; Virt: 0
0x800068a0:  05893703          ld                      a4,88(s2)
0x800068a4:  4064d693          srai                    a3,s1,6
0x800068a8:  068e              slli                    a3,a3,3
0x800068aa:  9736              add                     a4,a4,a3
0x800068ac:  6318              ld                      a4,0(a4)
0x800068ae:  02049793          slli                    a5,s1,32
0x800068b2:  01d7d613          srli                    a2,a5,29
0x800068b6:  00cd0533          add                     a0,s10,a2
0x800068ba:  03f4f613          andi                    a2,s1,63
0x800068be:  00c75733          srl                     a4,a4,a2
0x800068c2:  8b05              andi                    a4,a4,1
0x800068c4:  00db05b3          add                     a1,s6,a3
0x800068c8:  df5d              beqz                    a4,-66                  # 0x80006886

----------------
IN: 
Priv: 3; Virt: 0
0x800068ca:  12053703          ld                      a4,288(a0)
0x800068ce:  00cc1633          sll                     a2,s8,a2
0x800068d2:  fff64813          not                     a6,a2
0x800068d6:  00870793          addi                    a5,a4,8
0x800068da:  96be              add                     a3,a3,a5
0x800068dc:  c709              beqz                    a4,10                   # 0x800068e6

----------------
IN: 
Priv: 3; Virt: 0
0x800068e6:  13253023          sd                      s2,288(a0)
0x800068ea:  619c              ld                      a5,0(a1)
0x800068ec:  8e5d              or                      a2,a2,a5
0x800068ee:  e190              sd                      a2,0(a1)
0x800068f0:  f89a1be3          bne                     s4,s1,-106              # 0x80006886

----------------
IN: 
Priv: 3; Virt: 0
0x800068f4:  06892783          lw                      a5,104(s2)
0x800068f8:  8652              mv                      a2,s4
0x800068fa:  8566              mv                      a0,s9
0x800068fc:  f94785e3          beq                     a5,s4,-118              # 0x80006886

----------------
IN: 
Priv: 3; Virt: 0
0x80006886:  0014861b          addiw                   a2,s1,1
0x8000688a:  1602              slli                    a2,a2,32
0x8000688c:  9201              srli                    a2,a2,32
0x8000688e:  08000593          addi                    a1,zero,128
0x80006892:  854e              mv                      a0,s3
0x80006894:  ca5fe0ef          jal                     ra,-4956                # 0x80005538

----------------
IN: 
Priv: 3; Virt: 0
0x80006898:  0005049b          sext.w                  s1,a0
0x8000689c:  f69ae4e3          bgtu                    s1,s5,-152              # 0x80006804

----------------
IN: 
Priv: 3; Virt: 0
0x80006804:  60e6              ld                      ra,88(sp)
0x80006806:  6446              ld                      s0,80(sp)
0x80006808:  64a6              ld                      s1,72(sp)
0x8000680a:  6906              ld                      s2,64(sp)
0x8000680c:  79e2              ld                      s3,56(sp)
0x8000680e:  7a42              ld                      s4,48(sp)
0x80006810:  7aa2              ld                      s5,40(sp)
0x80006812:  7b02              ld                      s6,32(sp)
0x80006814:  6c42              ld                      s8,16(sp)
0x80006816:  6ca2              ld                      s9,8(sp)
0x80006818:  6d02              ld                      s10,0(sp)
0x8000681a:  855e              mv                      a0,s7
0x8000681c:  6be2              ld                      s7,24(sp)
0x8000681e:  6125              addi                    sp,sp,96
0x80006820:  8082              ret                     

----------------
IN: 
Priv: 3; Virt: 0
0x80006dec:  70e2              ld                      ra,56(sp)
0x80006dee:  7442              ld                      s0,48(sp)
0x80006df0:  74a2              ld                      s1,40(sp)
0x80006df2:  7902              ld                      s2,32(sp)
0x80006df4:  69e2              ld                      s3,24(sp)
0x80006df6:  6a42              ld                      s4,16(sp)
0x80006df8:  6aa2              ld                      s5,8(sp)
0x80006dfa:  6b02              ld                      s6,0(sp)
0x80006dfc:  6121              addi                    sp,sp,64
0x80006dfe:  8082              ret                     

----------------
IN: 
Priv: 3; Virt: 0
0x80000650:  f161              bnez                    a0,-64                  # 0x80000610

----------------
IN: 
Priv: 3; Virt: 0
0x80000652:  4521              addi                    a0,zero,8
0x80000654:  609010ef          jal                     ra,7688                 # 0x8000245c

----------------
IN: 
Priv: 3; Virt: 0
0x8000245c:  7139              addi                    sp,sp,-64
0x8000245e:  f822              sd                      s0,48(sp)
0x80002460:  fc06              sd                      ra,56(sp)
0x80002462:  f426              sd                      s1,40(sp)
0x80002464:  f04a              sd                      s2,32(sp)
0x80002466:  ec4e              sd                      s3,24(sp)
0x80002468:  e852              sd                      s4,16(sp)
0x8000246a:  e456              sd                      s5,8(sp)
0x8000246c:  0080              addi                    s0,sp,64
0x8000246e:  c549              beqz                    a0,138                  # 0x800024f8

----------------
IN: 
Priv: 3; Virt: 0
0x80002470:  00757793          andi                    a5,a0,7
0x80002474:  84aa              mv                      s1,a0
0x80002476:  c781              beqz                    a5,8                    # 0x8000247e

----------------
IN: 
Priv: 3; Virt: 0
0x8000247e:  00026517          auipc                   a0,38                   # 0x8002847e
0x80002482:  5da50513          addi                    a0,a0,1498
0x80002486:  00016a97          auipc                   s5,22                   # 0x80018486
0x8000248a:  bb2a8a93          addi                    s5,s5,-1102
0x8000248e:  492020ef          jal                     ra,9362                 # 0x80004920

----------------
IN: 
Priv: 3; Virt: 0
0x80004920:  1141              addi                    sp,sp,-16
0x80004922:  e422              sd                      s0,8(sp)
0x80004924:  67c1              lui                     a5,16
0x80004926:  0800              addi                    s0,sp,16
0x80004928:  fff78713          addi                    a4,a5,-1
0x8000492c:  06f526af          amoadd.w.aq.rl          a3,a5,(a0)
0x80004930:  0106d613          srli                    a2,a3,16
0x80004934:  8e79              and                     a2,a2,a4
0x80004936:  00e6f5b3          and                     a1,a3,a4
0x8000493a:  00b60663          beq                     a2,a1,12                # 0x80004946

----------------
IN: 
Priv: 3; Virt: 0
0x80004946:  6422              ld                      s0,8(sp)
0x80004948:  0141              addi                    sp,sp,16
0x8000494a:  8082              ret                     

----------------
IN: 
Priv: 3; Virt: 0
0x80002492:  008aba03          ld                      s4,8(s5)
0x80002496:  6705              lui                     a4,1
0x80002498:  00026517          auipc                   a0,38                   # 0x80028498
0x8000249c:  5c050513          addi                    a0,a0,1472
0x800024a0:  009a07b3          add                     a5,s4,s1
0x800024a4:  04f76663          bgtu                    a5,a4,76                # 0x800024f0

----------------
IN: 
Priv: 3; Virt: 0
0x800024a8:  00fab423          sd                      a5,8(s5)
0x800024ac:  4a0020ef          jal                     ra,9376                 # 0x8000494c

----------------
IN: 
Priv: 3; Virt: 0
0x8000494c:  1141              addi                    sp,sp,-16
0x8000494e:  e422              sd                      s0,8(sp)
0x80004950:  0800              addi                    s0,sp,16
0x80004952:  0310000f          fence                   rw,w
0x80004956:  00055783          lhu                     a5,0(a0)
0x8000495a:  6422              ld                      s0,8(sp)
0x8000495c:  2785              addiw                   a5,a5,1
0x8000495e:  00f51023          sh                      a5,0(a0)
0x80004962:  0141              addi                    sp,sp,16
0x80004964:  8082              ret                     

----------------
IN: 
Priv: 3; Virt: 0
0x800024b0:  040a0463          beqz                    s4,72                   # 0x800024f8

----------------
IN: 
Priv: 3; Virt: 0
0x800024b4:  00026997          auipc                   s3,38                   # 0x800284b4
0x800024b8:  1a498993          addi                    s3,s3,420
0x800024bc:  4901              mv                      s2,zero
0x800024be:  0009b783          ld                      a5,0(s3)
0x800024c2:  2905              addiw                   s2,s2,1
0x800024c4:  8626              mv                      a2,s1
0x800024c6:  4581              mv                      a1,zero
0x800024c8:  01478533          add                     a0,a5,s4
0x800024cc:  c399              beqz                    a5,6                    # 0x800024d2

----------------
IN: 
Priv: 3; Virt: 0
0x800024ce:  1b2000ef          jal                     ra,434                  # 0x80002680

----------------
IN: 
Priv: 3; Virt: 0
0x80002680:  1141              addi                    sp,sp,-16
0x80002682:  e422              sd                      s0,8(sp)
0x80002684:  0800              addi                    s0,sp,16
0x80002686:  00c50733          add                     a4,a0,a2
0x8000268a:  ca09              beqz                    a2,18                   # 0x8000269c

----------------
IN: 
Priv: 3; Virt: 0
0x8000268c:  0ff5f593          andi                    a1,a1,255
0x80002690:  87aa              mv                      a5,a0
0x80002692:  0785              addi                    a5,a5,1
0x80002694:  feb78fa3          sb                      a1,-1(a5)
0x80002698:  fee79de3          bne                     a5,a4,-6                # 0x80002692

----------------
IN: 
Priv: 3; Virt: 0
0x80002692:  0785              addi                    a5,a5,1
0x80002694:  feb78fa3          sb                      a1,-1(a5)
0x80002698:  fee79de3          bne                     a5,a4,-6                # 0x80002692

----------------
IN: 
Priv: 3; Virt: 0
0x8000269c:  6422              ld                      s0,8(sp)
0x8000269e:  0141              addi                    sp,sp,16
0x800026a0:  8082              ret                     

----------------
IN: 
Priv: 3; Virt: 0
0x800024d2:  000aa783          lw                      a5,0(s5)
0x800024d6:  09a1              addi                    s3,s3,8
0x800024d8:  ff27f3e3          bleu                    s2,a5,-26               # 0x800024be

----------------
IN: 
Priv: 3; Virt: 0
0x800024be:  0009b783          ld                      a5,0(s3)
0x800024c2:  2905              addiw                   s2,s2,1
0x800024c4:  8626              mv                      a2,s1
0x800024c6:  4581              mv                      a1,zero
0x800024c8:  01478533          add                     a0,a5,s4
0x800024cc:  c399              beqz                    a5,6                    # 0x800024d2

----------------
IN: 
Priv: 3; Virt: 0
0x800024dc:  70e2              ld                      ra,56(sp)
0x800024de:  7442              ld                      s0,48(sp)
0x800024e0:  74a2              ld                      s1,40(sp)
0x800024e2:  7902              ld                      s2,32(sp)
0x800024e4:  69e2              ld                      s3,24(sp)
0x800024e6:  6aa2              ld                      s5,8(sp)
0x800024e8:  8552              mv                      a0,s4
0x800024ea:  6a42              ld                      s4,16(sp)
0x800024ec:  6121              addi                    sp,sp,64
0x800024ee:  8082              ret                     

----------------
IN: 
Priv: 3; Virt: 0
0x80000658:  0001ca97          auipc                   s5,28                   # 0x8001c658
0x8000065c:  9a8a8a93          addi                    s5,s5,-1624
0x80000660:  00aab423          sd                      a0,8(s5)
0x80000664:  d555              beqz                    a0,-84                  # 0x80000610

----------------
IN: 
Priv: 3; Virt: 0
0x80000666:  4605              addi                    a2,zero,1
0x80000668:  85ca              mv                      a1,s2
0x8000066a:  8526              mv                      a0,s1
0x8000066c:  230090ef          jal                     ra,37424                # 0x8000989c

----------------
IN: 
Priv: 3; Virt: 0
0x8000989c:  7179              addi                    sp,sp,-48
0x8000989e:  f022              sd                      s0,32(sp)
0x800098a0:  f406              sd                      ra,40(sp)
0x800098a2:  ec26              sd                      s1,24(sp)
0x800098a4:  e84a              sd                      s2,16(sp)
0x800098a6:  e44e              sd                      s3,8(sp)
0x800098a8:  1800              addi                    s0,sp,48
0x800098aa:  ce31              beqz                    a2,92                   # 0x80009906

----------------
IN: 
Priv: 3; Virt: 0
0x800098ac:  02000513          addi                    a0,zero,32
0x800098b0:  84ae              mv                      s1,a1
0x800098b2:  babf80ef          jal                     ra,-29782               # 0x8000245c

----------------
IN: 
Priv: 3; Virt: 0
0x800098b6:  00020797          auipc                   a5,32                   # 0x800298b6
0x800098ba:  aca7b523          sd                      a0,-1334(a5)
0x800098be:  cd25              beqz                    a0,120                  # 0x80009936

----------------
IN: 
Priv: 3; Virt: 0
0x800098c0:  4701              mv                      a4,zero
0x800098c2:  00010817          auipc                   a6,16                   # 0x800198c2
0x800098c6:  a4683803          ld                      a6,-1466(a6)
0x800098ca:  00010597          auipc                   a1,16                   # 0x800198ca
0x800098ce:  ab65b583          ld                      a1,-1354(a1)
0x800098d2:  02071793          slli                    a5,a4,32
0x800098d6:  83f5              srli                    a5,a5,29
0x800098d8:  97c2              add                     a5,a5,a6
0x800098da:  6394              ld                      a3,0(a5)
0x800098dc:  40e487b3          sub                     a5,s1,a4
0x800098e0:  0017b793          seqz                    a5,a5
0x800098e4:  2705              addiw                   a4,a4,1
0x800098e6:  00a68633          add                     a2,a3,a0
0x800098ea:  0785              addi                    a5,a5,1
0x800098ec:  c291              beqz                    a3,4                    # 0x800098f0

----------------
IN: 
Priv: 3; Virt: 0
0x800098ee:  e21c              sd                      a5,0(a2)
0x800098f0:  419c              lw                      a5,0(a1)
0x800098f2:  fee7f0e3          bleu                    a4,a5,-32               # 0x800098d2

----------------
IN: 
Priv: 3; Virt: 0
0x800098d2:  02071793          slli                    a5,a4,32
0x800098d6:  83f5              srli                    a5,a5,29
0x800098d8:  97c2              add                     a5,a5,a6
0x800098da:  6394              ld                      a3,0(a5)
0x800098dc:  40e487b3          sub                     a5,s1,a4
0x800098e0:  0017b793          seqz                    a5,a5
0x800098e4:  2705              addiw                   a4,a4,1
0x800098e6:  00a68633          add                     a2,a3,a0
0x800098ea:  0785              addi                    a5,a5,1
0x800098ec:  c291              beqz                    a3,4                    # 0x800098f0

----------------
IN: 
Priv: 3; Virt: 0
0x800098f6:  4501              mv                      a0,zero
0x800098f8:  70a2              ld                      ra,40(sp)
0x800098fa:  7402              ld                      s0,32(sp)
0x800098fc:  64e2              ld                      s1,24(sp)
0x800098fe:  6942              ld                      s2,16(sp)
0x80009900:  69a2              ld                      s3,8(sp)
0x80009902:  6145              addi                    sp,sp,48
0x80009904:  8082              ret                     

----------------
IN: 
Priv: 3; Virt: 0
0x80000670:  f145              bnez                    a0,-96                  # 0x80000610

----------------
IN: 
Priv: 3; Virt: 0
0x80000672:  00098963          beqz                    s3,18                   # 0x80000684

----------------
IN: 
Priv: 3; Virt: 0
0x80000676:  0589b783          ld                      a5,88(s3)
0x8000067a:  679c              ld                      a5,8(a5)
0x8000067c:  c781              beqz                    a5,8                    # 0x80000684

----------------
IN: 
Priv: 3; Virt: 0
0x8000067e:  4505              addi                    a0,zero,1
0x80000680:  9782              jalr                    ra,a5,0

----------------
IN: 
Priv: 3; Virt: 0
0x80003a54:  1141              addi                    sp,sp,-16
0x80003a56:  e422              sd                      s0,8(sp)
0x80003a58:  0800              addi                    s0,sp,16
0x80003a5a:  6422              ld                      s0,8(sp)
0x80003a5c:  4501              mv                      a0,zero
0x80003a5e:  0141              addi                    sp,sp,16
0x80003a60:  8082              ret                     

----------------
IN: 
Priv: 3; Virt: 0
0x80000682:  f559              bnez                    a0,-114                 # 0x80000610

----------------
IN: 
Priv: 3; Virt: 0
0x80000684:  4585              addi                    a1,zero,1
0x80000686:  8526              mv                      a0,s1
0x80000688:  7f3060ef          jal                     ra,28658                # 0x8000767a

----------------
IN: 
Priv: 3; Virt: 0
0x8000767a:  7119              addi                    sp,sp,-128
0x8000767c:  f8a2              sd                      s0,112(sp)
0x8000767e:  f0ca              sd                      s2,96(sp)
0x80007680:  fc86              sd                      ra,120(sp)
0x80007682:  f4a6              sd                      s1,104(sp)
0x80007684:  0100              addi                    s0,sp,128
0x80007686:  892a              mv                      s2,a0
0x80007688:  ed8d              bnez                    a1,58                   # 0x800076c2

----------------
IN: 
Priv: 3; Virt: 0
0x800076c2:  04800513          addi                    a0,zero,72
0x800076c6:  d3afc0ef          jal                     ra,-15046               # 0x80003c00

----------------
IN: 
Priv: 3; Virt: 0
0x800076ca:  c909              beqz                    a0,18                   # 0x800076dc

----------------
IN: 
Priv: 3; Virt: 0
0x800076cc:  00012797          auipc                   a5,18                   # 0x800196cc
0x800076d0:  cc47b783          ld                      a5,-828(a5)
0x800076d4:  00011717          auipc                   a4,17                   # 0x800186d4
0x800076d8:  e4f73e23          sd                      a5,-420(a4)
0x800076dc:  02800513          addi                    a0,zero,40
0x800076e0:  d7dfa0ef          jal                     ra,-21124               # 0x8000245c

----------------
IN: 
Priv: 3; Virt: 0
0x800076e4:  00022797          auipc                   a5,34                   # 0x800296e4
0x800076e8:  c8a7ba23          sd                      a0,-876(a5)
0x800076ec:  84aa              mv                      s1,a0
0x800076ee:  f155              bnez                    a0,-92                  # 0x80007692

----------------
IN: 
Priv: 3; Virt: 0
0x80007692:  94ca              add                     s1,s1,s2
0x80007694:  408c              lw                      a1,0(s1)
0x80007696:  f8043023          sd                      zero,-128(s0)
0x8000769a:  f8043423          sd                      zero,-120(s0)
0x8000769e:  f8043823          sd                      zero,-112(s0)
0x800076a2:  f8043c23          sd                      zero,-104(s0)
0x800076a6:  fa043023          sd                      zero,-96(s0)
0x800076aa:  fa043423          sd                      zero,-88(s0)
0x800076ae:  c5a1              beqz                    a1,72                   # 0x800076f6

----------------
IN: 
Priv: 3; Virt: 0
0x800076f6:  00011797          auipc                   a5,17                   # 0x800186f6
0x800076fa:  e3a78793          addi                    a5,a5,-454
0x800076fe:  fb040893          addi                    a7,s0,-80
0x80007702:  6390              ld                      a2,0(a5)
0x80007704:  0004b423          sd                      zero,8(s1)
0x80007708:  0004a823          sw                      zero,16(s1)
0x8000770c:  0204a023          sw                      zero,32(s1)
0x80007710:  fa043823          sd                      zero,-80(s0)
0x80007714:  fa043c23          sd                      zero,-72(s0)
0x80007718:  fc043023          sd                      zero,-64(s0)
0x8000771c:  fc043423          sd                      zero,-56(s0)
0x80007720:  fc043823          sd                      zero,-48(s0)
0x80007724:  fc043c23          sd                      zero,-40(s0)
0x80007728:  86c6              mv                      a3,a7
0x8000772a:  4501              mv                      a0,zero
0x8000772c:  00068733          add                     a4,a3,zero
0x80007730:  30561673          csrrw                   a2,mtvec,a2

----------------
IN: 
Priv: 3; Virt: 0
0x80007734:  3a051073          csrrw                   zero,pmpcfg3,a0

----------------
IN: 
Priv: 3; Virt: 0
0x80007738:  30561073          csrrw                   zero,mtvec,a2

----------------
IN: 
Priv: 3; Virt: 0
0x8000773c:  fb843683          ld                      a3,-72(s0)
0x80007740:  f8040613          addi                    a2,s0,-128
0x80007744:  c299              beqz                    a3,6                    # 0x8000774a

----------------
IN: 
Priv: 3; Virt: 0
0x8000774a:  587d              addi                    a6,zero,-1
0x8000774c:  6388              ld                      a0,0(a5)
0x8000774e:  86c6              mv                      a3,a7
0x80007750:  00a85813          srli                    a6,a6,10
0x80007754:  00068733          add                     a4,a3,zero
0x80007758:  30551573          csrrw                   a0,mtvec,a0

----------------
IN: 
Priv: 3; Virt: 0
0x8000775c:  3b081073          csrrw                   zero,pmpaddr0,a6

----------------
IN: 
Priv: 3; Virt: 0
0x80007760:  30551073          csrrw                   zero,mtvec,a0

----------------
IN: 
Priv: 3; Virt: 0
0x80007764:  fb843683          ld                      a3,-72(s0)
0x80007768:  c299              beqz                    a3,6                    # 0x8000776e

----------------
IN: 
Priv: 3; Virt: 0
0x8000776e:  0007b803          ld                      a6,0(a5)
0x80007772:  86c6              mv                      a3,a7
0x80007774:  00068733          add                     a4,a3,zero
0x80007778:  30581873          csrrw                   a6,mtvec,a6

----------------
IN: 
Priv: 3; Virt: 0
0x8000777c:  3b002573          csrrs                   a0,pmpaddr0,zero

----------------
IN: 
Priv: 3; Virt: 0
0x80007780:  30581073          csrrw                   zero,mtvec,a6

----------------
IN: 
Priv: 3; Virt: 0
0x80007784:  fb843683          ld                      a3,-72(s0)
0x80007788:  c299              beqz                    a3,6                    # 0x8000778e

----------------
IN: 
Priv: 3; Virt: 0
0x8000778e:  e119              bnez                    a0,6                    # 0x80007794

----------------
IN: 
Priv: 3; Virt: 0
0x80007794:  02051813          slli                    a6,a0,32
0x80007798:  02085813          srli                    a6,a6,32
0x8000779c:  86aa              mv                      a3,a0
0x8000779e:  00081663          bnez                    a6,12                   # 0x800077aa

----------------
IN: 
Priv: 3; Virt: 0
0x800077aa:  03069813          slli                    a6,a3,48
0x800077ae:  03085813          srli                    a6,a6,48
0x800077b2:  00081463          bnez                    a6,8                    # 0x800077ba

----------------
IN: 
Priv: 3; Virt: 0
0x800077ba:  0ff6f813          andi                    a6,a3,255
0x800077be:  00081463          bnez                    a6,8                    # 0x800077c6

----------------
IN: 
Priv: 3; Virt: 0
0x800077c6:  00f6f813          andi                    a6,a3,15
0x800077ca:  00081463          bnez                    a6,8                    # 0x800077d2

----------------
IN: 
Priv: 3; Virt: 0
0x800077d2:  0036f813          andi                    a6,a3,3
0x800077d6:  00081463          bnez                    a6,8                    # 0x800077de

----------------
IN: 
Priv: 3; Virt: 0
0x800077de:  8a85              andi                    a3,a3,1
0x800077e0:  e291              bnez                    a3,4                    # 0x800077e4

----------------
IN: 
Priv: 3; Virt: 0
0x800077e4:  4685              addi                    a3,zero,1
0x800077e6:  2589              addiw                   a1,a1,2
0x800077e8:  00b695bb          sllw                    a1,a3,a1
0x800077ec:  ec8c              sd                      a1,24(s1)
0x800077ee:  02055693          srli                    a3,a0,32
0x800077f2:  c299              beqz                    a3,6                    # 0x800077f8

----------------
IN: 
Priv: 3; Virt: 0
0x800077f4:  5cb0106f          j                       7626                    # 0x800095be

----------------
IN: 
Priv: 3; Virt: 0
0x800095be:  86aa              mv                      a3,a0
0x800095c0:  03f00593          addi                    a1,zero,63
0x800095c4:  a3afe06f          j                       -7622                   # 0x800077fe

----------------
IN: 
Priv: 3; Virt: 0
0x800077fe:  0306d813          srli                    a6,a3,48
0x80007802:  00081463          bnez                    a6,8                    # 0x8000780a

----------------
IN: 
Priv: 3; Virt: 0
0x8000780a:  0386d813          srli                    a6,a3,56
0x8000780e:  00081463          bnez                    a6,8                    # 0x80007816

----------------
IN: 
Priv: 3; Virt: 0
0x80007812:  35e1              addiw                   a1,a1,-8
0x80007814:  06a2              slli                    a3,a3,8
0x80007816:  03c6d813          srli                    a6,a3,60
0x8000781a:  00081463          bnez                    a6,8                    # 0x80007822

----------------
IN: 
Priv: 3; Virt: 0
0x80007822:  03e6d813          srli                    a6,a3,62
0x80007826:  00081463          bnez                    a6,8                    # 0x8000782e

----------------
IN: 
Priv: 3; Virt: 0
0x8000782a:  35f9              addiw                   a1,a1,-2
0x8000782c:  068a              slli                    a3,a3,2
0x8000782e:  0006c363          bltz                    a3,6                    # 0x80007834

----------------
IN: 
Priv: 3; Virt: 0
0x80007834:  2585              addiw                   a1,a1,1
0x80007836:  c8cc              sw                      a1,20(s1)
0x80007838:  86b2              mv                      a3,a2
0x8000783a:  638c              ld                      a1,0(a5)
0x8000783c:  f8043423          sd                      zero,-120(s0)
0x80007840:  00068733          add                     a4,a3,zero
0x80007844:  305595f3          csrrw                   a1,mtvec,a1

----------------
IN: 
Priv: 3; Virt: 0
0x80007848:  3b002873          csrrs                   a6,pmpaddr0,zero

----------------
IN: 
Priv: 3; Virt: 0
0x8000784c:  30559073          csrrw                   zero,mtvec,a1

----------------
IN: 
Priv: 3; Virt: 0
0x80007850:  f8843683          ld                      a3,-120(s0)
0x80007854:  c299              beqz                    a3,6                    # 0x8000785a

----------------
IN: 
Priv: 3; Virt: 0
0x8000785a:  638c              ld                      a1,0(a5)
0x8000785c:  86b2              mv                      a3,a2
0x8000785e:  00068733          add                     a4,a3,zero
0x80007862:  305595f3          csrrw                   a1,mtvec,a1

----------------
IN: 
Priv: 3; Virt: 0
0x80007866:  3b051073          csrrw                   zero,pmpaddr0,a0

----------------
IN: 
Priv: 3; Virt: 0
0x8000786a:  30559073          csrrw                   zero,mtvec,a1

----------------
IN: 
Priv: 3; Virt: 0
0x8000786e:  f8843683          ld                      a3,-120(s0)
0x80007872:  c299              beqz                    a3,6                    # 0x80007878

----------------
IN: 
Priv: 3; Virt: 0
0x80007878:  3b081873          csrrw                   a6,pmpaddr0,a6

----------------
IN: 
Priv: 3; Virt: 0
0x8000787c:  00a80463          beq                     a6,a0,8                 # 0x80007884

----------------
IN: 
Priv: 3; Virt: 0
0x80007884:  488c              lw                      a1,16(s1)
0x80007886:  86b2              mv                      a3,a2
0x80007888:  f8043423          sd                      zero,-120(s0)
0x8000788c:  2585              addiw                   a1,a1,1
0x8000788e:  c88c              sw                      a1,16(s1)
0x80007890:  638c              ld                      a1,0(a5)
0x80007892:  00068733          add                     a4,a3,zero
0x80007896:  305595f3          csrrw                   a1,mtvec,a1

----------------
IN: 
Priv: 3; Virt: 0
0x8000789a:  3b102873          csrrs                   a6,pmpaddr1,zero

----------------
IN: 
Priv: 3; Virt: 0
0x8000789e:  30559073          csrrw                   zero,mtvec,a1

----------------
IN: 
Priv: 3; Virt: 0
0x800078a2:  f8843683          ld                      a3,-120(s0)
0x800078a6:  c299              beqz                    a3,6                    # 0x800078ac

----------------
IN: 
Priv: 3; Virt: 0
0x800078ac:  638c              ld                      a1,0(a5)
0x800078ae:  86b2              mv                      a3,a2
0x800078b0:  00068733          add                     a4,a3,zero
0x800078b4:  305595f3          csrrw                   a1,mtvec,a1

----------------
IN: 
Priv: 3; Virt: 0
0x800078b8:  3b151073          csrrw                   zero,pmpaddr1,a0

----------------
IN: 
Priv: 3; Virt: 0
0x800078bc:  30559073          csrrw                   zero,mtvec,a1

----------------
IN: 
Priv: 3; Virt: 0
0x800078c0:  f8843683          ld                      a3,-120(s0)
0x800078c4:  c299              beqz                    a3,6                    # 0x800078ca

----------------
IN: 
Priv: 3; Virt: 0
0x800078ca:  3b181873          csrrw                   a6,pmpaddr1,a6

----------------
IN: 
Priv: 3; Virt: 0
0x800078ce:  00a80463          beq                     a6,a0,8                 # 0x800078d6

----------------
IN: 
Priv: 3; Virt: 0
0x800078d6:  488c              lw                      a1,16(s1)
0x800078d8:  86b2              mv                      a3,a2
0x800078da:  f8043423          sd                      zero,-120(s0)
0x800078de:  2585              addiw                   a1,a1,1
0x800078e0:  c88c              sw                      a1,16(s1)
0x800078e2:  638c              ld                      a1,0(a5)
0x800078e4:  00068733          add                     a4,a3,zero
0x800078e8:  305595f3          csrrw                   a1,mtvec,a1

----------------
IN: 
Priv: 3; Virt: 0
0x800078ec:  3b202873          csrrs                   a6,pmpaddr2,zero

----------------
IN: 
Priv: 3; Virt: 0
0x800078f0:  30559073          csrrw                   zero,mtvec,a1

----------------
IN: 
Priv: 3; Virt: 0
0x800078f4:  f8843683          ld                      a3,-120(s0)
0x800078f8:  c299              beqz                    a3,6                    # 0x800078fe

----------------
IN: 
Priv: 3; Virt: 0
0x800078fe:  638c              ld                      a1,0(a5)
0x80007900:  86b2              mv                      a3,a2
0x80007902:  00068733          add                     a4,a3,zero
0x80007906:  305595f3          csrrw                   a1,mtvec,a1

----------------
IN: 
Priv: 3; Virt: 0
0x8000790a:  3b251073          csrrw                   zero,pmpaddr2,a0

----------------
IN: 
Priv: 3; Virt: 0
0x8000790e:  30559073          csrrw                   zero,mtvec,a1

----------------
IN: 
Priv: 3; Virt: 0
0x80007912:  f8843683          ld                      a3,-120(s0)
0x80007916:  c299              beqz                    a3,6                    # 0x8000791c

----------------
IN: 
Priv: 3; Virt: 0
0x8000791c:  3b281873          csrrw                   a6,pmpaddr2,a6

----------------
IN: 
Priv: 3; Virt: 0
0x80007920:  00a80463          beq                     a6,a0,8                 # 0x80007928

----------------
IN: 
Priv: 3; Virt: 0
0x80007928:  488c              lw                      a1,16(s1)
0x8000792a:  86b2              mv                      a3,a2
0x8000792c:  f8043423          sd                      zero,-120(s0)
0x80007930:  2585              addiw                   a1,a1,1
0x80007932:  c88c              sw                      a1,16(s1)
0x80007934:  638c              ld                      a1,0(a5)
0x80007936:  00068733          add                     a4,a3,zero
0x8000793a:  305595f3          csrrw                   a1,mtvec,a1

----------------
IN: 
Priv: 3; Virt: 0
0x8000793e:  3b302873          csrrs                   a6,pmpaddr3,zero

----------------
IN: 
Priv: 3; Virt: 0
0x80007942:  30559073          csrrw                   zero,mtvec,a1

----------------
IN: 
Priv: 3; Virt: 0
0x80007946:  f8843683          ld                      a3,-120(s0)
0x8000794a:  c299              beqz                    a3,6                    # 0x80007950

----------------
IN: 
Priv: 3; Virt: 0
0x80007950:  638c              ld                      a1,0(a5)
0x80007952:  86b2              mv                      a3,a2
0x80007954:  f8043423          sd                      zero,-120(s0)
0x80007958:  00068733          add                     a4,a3,zero
0x8000795c:  305595f3          csrrw                   a1,mtvec,a1

----------------
IN: 
Priv: 3; Virt: 0
0x80007960:  3b351073          csrrw                   zero,pmpaddr3,a0

----------------
IN: 
Priv: 3; Virt: 0
0x80007964:  30559073          csrrw                   zero,mtvec,a1

----------------
IN: 
Priv: 3; Virt: 0
0x80007968:  f8843683          ld                      a3,-120(s0)
0x8000796c:  c299              beqz                    a3,6                    # 0x80007972

----------------
IN: 
Priv: 3; Virt: 0
0x80007972:  3b381873          csrrw                   a6,pmpaddr3,a6

----------------
IN: 
Priv: 3; Virt: 0
0x80007976:  00a80463          beq                     a6,a0,8                 # 0x8000797e

----------------
IN: 
Priv: 3; Virt: 0
0x8000797e:  488c              lw                      a1,16(s1)
0x80007980:  86b2              mv                      a3,a2
0x80007982:  f8043423          sd                      zero,-120(s0)
0x80007986:  2585              addiw                   a1,a1,1
0x80007988:  c88c              sw                      a1,16(s1)
0x8000798a:  638c              ld                      a1,0(a5)
0x8000798c:  00068733          add                     a4,a3,zero
0x80007990:  305595f3          csrrw                   a1,mtvec,a1

----------------
IN: 
Priv: 3; Virt: 0
0x80007994:  3b402873          csrrs                   a6,pmpaddr4,zero

----------------
IN: 
Priv: 3; Virt: 0
0x80007998:  30559073          csrrw                   zero,mtvec,a1

----------------
IN: 
Priv: 3; Virt: 0
0x8000799c:  f8843683          ld                      a3,-120(s0)
0x800079a0:  c299              beqz                    a3,6                    # 0x800079a6

----------------
IN: 
Priv: 3; Virt: 0
0x800079a6:  638c              ld                      a1,0(a5)
0x800079a8:  86b2              mv                      a3,a2
0x800079aa:  00068733          add                     a4,a3,zero
0x800079ae:  305595f3          csrrw                   a1,mtvec,a1

----------------
IN: 
Priv: 3; Virt: 0
0x800079b2:  3b451073          csrrw                   zero,pmpaddr4,a0

----------------
IN: 
Priv: 3; Virt: 0
0x800079b6:  30559073          csrrw                   zero,mtvec,a1

----------------
IN: 
Priv: 3; Virt: 0
0x800079ba:  f8843683          ld                      a3,-120(s0)
0x800079be:  c299              beqz                    a3,6                    # 0x800079c4

----------------
IN: 
Priv: 3; Virt: 0
0x800079c4:  3b481873          csrrw                   a6,pmpaddr4,a6

----------------
IN: 
Priv: 3; Virt: 0
0x800079c8:  00a80463          beq                     a6,a0,8                 # 0x800079d0

----------------
IN: 
Priv: 3; Virt: 0
0x800079d0:  488c              lw                      a1,16(s1)
0x800079d2:  86b2              mv                      a3,a2
0x800079d4:  f8043423          sd                      zero,-120(s0)
0x800079d8:  2585              addiw                   a1,a1,1
0x800079da:  c88c              sw                      a1,16(s1)
0x800079dc:  638c              ld                      a1,0(a5)
0x800079de:  00068733          add                     a4,a3,zero
0x800079e2:  305595f3          csrrw                   a1,mtvec,a1

----------------
IN: 
Priv: 3; Virt: 0
0x800079e6:  3b502873          csrrs                   a6,pmpaddr5,zero

----------------
IN: 
Priv: 3; Virt: 0
0x800079ea:  30559073          csrrw                   zero,mtvec,a1

----------------
IN: 
Priv: 3; Virt: 0
0x800079ee:  f8843683          ld                      a3,-120(s0)
0x800079f2:  c299              beqz                    a3,6                    # 0x800079f8

----------------
IN: 
Priv: 3; Virt: 0
0x800079f8:  638c              ld                      a1,0(a5)
0x800079fa:  86b2              mv                      a3,a2
0x800079fc:  00068733          add                     a4,a3,zero
0x80007a00:  305595f3          csrrw                   a1,mtvec,a1

----------------
IN: 
Priv: 3; Virt: 0
0x80007a04:  3b551073          csrrw                   zero,pmpaddr5,a0

----------------
IN: 
Priv: 3; Virt: 0
0x80007a08:  30559073          csrrw                   zero,mtvec,a1

----------------
IN: 
Priv: 3; Virt: 0
0x80007a0c:  f8843683          ld                      a3,-120(s0)
0x80007a10:  c299              beqz                    a3,6                    # 0x80007a16

----------------
IN: 
Priv: 3; Virt: 0
0x80007a16:  3b581873          csrrw                   a6,pmpaddr5,a6

----------------
IN: 
Priv: 3; Virt: 0
0x80007a1a:  00a80463          beq                     a6,a0,8                 # 0x80007a22

----------------
IN: 
Priv: 3; Virt: 0
0x80007a22:  488c              lw                      a1,16(s1)
0x80007a24:  86b2              mv                      a3,a2
0x80007a26:  f8043423          sd                      zero,-120(s0)
0x80007a2a:  2585              addiw                   a1,a1,1
0x80007a2c:  c88c              sw                      a1,16(s1)
0x80007a2e:  638c              ld                      a1,0(a5)
0x80007a30:  00068733          add                     a4,a3,zero
0x80007a34:  305595f3          csrrw                   a1,mtvec,a1

----------------
IN: 
Priv: 3; Virt: 0
0x80007a38:  3b602873          csrrs                   a6,pmpaddr6,zero

----------------
IN: 
Priv: 3; Virt: 0
0x80007a3c:  30559073          csrrw                   zero,mtvec,a1

----------------
IN: 
Priv: 3; Virt: 0
0x80007a40:  f8843683          ld                      a3,-120(s0)
0x80007a44:  c299              beqz                    a3,6                    # 0x80007a4a

----------------
IN: 
Priv: 3; Virt: 0
0x80007a4a:  638c              ld                      a1,0(a5)
0x80007a4c:  86b2              mv                      a3,a2
0x80007a4e:  00068733          add                     a4,a3,zero
0x80007a52:  305595f3          csrrw                   a1,mtvec,a1

----------------
IN: 
Priv: 3; Virt: 0
0x80007a56:  3b651073          csrrw                   zero,pmpaddr6,a0

----------------
IN: 
Priv: 3; Virt: 0
0x80007a5a:  30559073          csrrw                   zero,mtvec,a1

----------------
IN: 
Priv: 3; Virt: 0
0x80007a5e:  f8843683          ld                      a3,-120(s0)
0x80007a62:  c299              beqz                    a3,6                    # 0x80007a68

----------------
IN: 
Priv: 3; Virt: 0
0x80007a68:  3b681873          csrrw                   a6,pmpaddr6,a6

----------------
IN: 
Priv: 3; Virt: 0
0x80007a6c:  00a80463          beq                     a6,a0,8                 # 0x80007a74

----------------
IN: 
Priv: 3; Virt: 0
0x80007a74:  488c              lw                      a1,16(s1)
0x80007a76:  86b2              mv                      a3,a2
0x80007a78:  f8043423          sd                      zero,-120(s0)
0x80007a7c:  2585              addiw                   a1,a1,1
0x80007a7e:  c88c              sw                      a1,16(s1)
0x80007a80:  638c              ld                      a1,0(a5)
0x80007a82:  00068733          add                     a4,a3,zero
0x80007a86:  305595f3          csrrw                   a1,mtvec,a1

----------------
IN: 
Priv: 3; Virt: 0
0x80007a8a:  3b702873          csrrs                   a6,pmpaddr7,zero

----------------
IN: 
Priv: 3; Virt: 0
0x80007a8e:  30559073          csrrw                   zero,mtvec,a1

----------------
IN: 
Priv: 3; Virt: 0
0x80007a92:  f8843683          ld                      a3,-120(s0)
0x80007a96:  c299              beqz                    a3,6                    # 0x80007a9c

----------------
IN: 
Priv: 3; Virt: 0
0x80007a9c:  638c              ld                      a1,0(a5)
0x80007a9e:  86b2              mv                      a3,a2
0x80007aa0:  00068733          add                     a4,a3,zero
0x80007aa4:  305595f3          csrrw                   a1,mtvec,a1

----------------
IN: 
Priv: 3; Virt: 0
0x80007aa8:  3b751073          csrrw                   zero,pmpaddr7,a0

----------------
IN: 
Priv: 3; Virt: 0
0x80007aac:  30559073          csrrw                   zero,mtvec,a1

----------------
IN: 
Priv: 3; Virt: 0
0x80007ab0:  f8843683          ld                      a3,-120(s0)
0x80007ab4:  c299              beqz                    a3,6                    # 0x80007aba

----------------
IN: 
Priv: 3; Virt: 0
0x80007aba:  3b781873          csrrw                   a6,pmpaddr7,a6

----------------
IN: 
Priv: 3; Virt: 0
0x80007abe:  00a80463          beq                     a6,a0,8                 # 0x80007ac6

----------------
IN: 
Priv: 3; Virt: 0
0x80007ac6:  488c              lw                      a1,16(s1)
0x80007ac8:  86b2              mv                      a3,a2
0x80007aca:  f8043423          sd                      zero,-120(s0)
0x80007ace:  2585              addiw                   a1,a1,1
0x80007ad0:  c88c              sw                      a1,16(s1)
0x80007ad2:  638c              ld                      a1,0(a5)
0x80007ad4:  00068733          add                     a4,a3,zero
0x80007ad8:  305595f3          csrrw                   a1,mtvec,a1

----------------
IN: 
Priv: 3; Virt: 0
0x80007adc:  3b802873          csrrs                   a6,pmpaddr8,zero

----------------
IN: 
Priv: 3; Virt: 0
0x80007ae0:  30559073          csrrw                   zero,mtvec,a1

----------------
IN: 
Priv: 3; Virt: 0
0x80007ae4:  f8843683          ld                      a3,-120(s0)
0x80007ae8:  c299              beqz                    a3,6                    # 0x80007aee

----------------
IN: 
Priv: 3; Virt: 0
0x80007aee:  638c              ld                      a1,0(a5)
0x80007af0:  86b2              mv                      a3,a2
0x80007af2:  00068733          add                     a4,a3,zero
0x80007af6:  305595f3          csrrw                   a1,mtvec,a1

----------------
IN: 
Priv: 3; Virt: 0
0x80007afa:  3b851073          csrrw                   zero,pmpaddr8,a0

----------------
IN: 
Priv: 3; Virt: 0
0x80007afe:  30559073          csrrw                   zero,mtvec,a1

----------------
IN: 
Priv: 3; Virt: 0
0x80007b02:  f8843683          ld                      a3,-120(s0)
0x80007b06:  c299              beqz                    a3,6                    # 0x80007b0c

----------------
IN: 
Priv: 3; Virt: 0
0x80007b0c:  3b881873          csrrw                   a6,pmpaddr8,a6

----------------
IN: 
Priv: 3; Virt: 0
0x80007b10:  7ea81de3          bne                     a6,a0,4090              # 0x80008b0a

----------------
IN: 
Priv: 3; Virt: 0
0x80007b14:  488c              lw                      a1,16(s1)
0x80007b16:  86b2              mv                      a3,a2
0x80007b18:  f8043423          sd                      zero,-120(s0)
0x80007b1c:  2585              addiw                   a1,a1,1
0x80007b1e:  c88c              sw                      a1,16(s1)
0x80007b20:  638c              ld                      a1,0(a5)
0x80007b22:  00068733          add                     a4,a3,zero
0x80007b26:  305595f3          csrrw                   a1,mtvec,a1

----------------
IN: 
Priv: 3; Virt: 0
0x80007b2a:  3b902873          csrrs                   a6,pmpaddr9,zero

----------------
IN: 
Priv: 3; Virt: 0
0x80007b2e:  30559073          csrrw                   zero,mtvec,a1

----------------
IN: 
Priv: 3; Virt: 0
0x80007b32:  f8843683          ld                      a3,-120(s0)
0x80007b36:  7c069ae3          bnez                    a3,4052                 # 0x80008b0a

----------------
IN: 
Priv: 3; Virt: 0
0x80007b3a:  638c              ld                      a1,0(a5)
0x80007b3c:  86b2              mv                      a3,a2
0x80007b3e:  00068733          add                     a4,a3,zero
0x80007b42:  305595f3          csrrw                   a1,mtvec,a1

----------------
IN: 
Priv: 3; Virt: 0
0x80007b46:  3b951073          csrrw                   zero,pmpaddr9,a0

----------------
IN: 
Priv: 3; Virt: 0
0x80007b4a:  30559073          csrrw                   zero,mtvec,a1

----------------
IN: 
Priv: 3; Virt: 0
0x80007b4e:  f8843683          ld                      a3,-120(s0)
0x80007b52:  7a069ce3          bnez                    a3,4024                 # 0x80008b0a

----------------
IN: 
Priv: 3; Virt: 0
0x80007b56:  3b981873          csrrw                   a6,pmpaddr9,a6

----------------
IN: 
Priv: 3; Virt: 0
0x80007b5a:  7aa818e3          bne                     a6,a0,4016              # 0x80008b0a

----------------
IN: 
Priv: 3; Virt: 0
0x80007b5e:  488c              lw                      a1,16(s1)
0x80007b60:  86b2              mv                      a3,a2
0x80007b62:  f8043423          sd                      zero,-120(s0)
0x80007b66:  2585              addiw                   a1,a1,1
0x80007b68:  c88c              sw                      a1,16(s1)
0x80007b6a:  638c              ld                      a1,0(a5)
0x80007b6c:  00068733          add                     a4,a3,zero
0x80007b70:  305595f3          csrrw                   a1,mtvec,a1

----------------
IN: 
Priv: 3; Virt: 0
0x80007b74:  3ba02873          csrrs                   a6,pmpaddr10,zero

----------------
IN: 
Priv: 3; Virt: 0
0x80007b78:  30559073          csrrw                   zero,mtvec,a1

----------------
IN: 
Priv: 3; Virt: 0
0x80007b7c:  f8843683          ld                      a3,-120(s0)
0x80007b80:  780695e3          bnez                    a3,3978                 # 0x80008b0a

----------------
IN: 
Priv: 3; Virt: 0
0x80007b84:  638c              ld                      a1,0(a5)
0x80007b86:  86b2              mv                      a3,a2
0x80007b88:  00068733          add                     a4,a3,zero
0x80007b8c:  305595f3          csrrw                   a1,mtvec,a1

----------------
IN: 
Priv: 3; Virt: 0
0x80007b90:  3ba51073          csrrw                   zero,pmpaddr10,a0

----------------
IN: 
Priv: 3; Virt: 0
0x80007b94:  30559073          csrrw                   zero,mtvec,a1

----------------
IN: 
Priv: 3; Virt: 0
0x80007b98:  f8843683          ld                      a3,-120(s0)
0x80007b9c:  760697e3          bnez                    a3,3950                 # 0x80008b0a

----------------
IN: 
Priv: 3; Virt: 0
0x80007ba0:  3ba81873          csrrw                   a6,pmpaddr10,a6

----------------
IN: 
Priv: 3; Virt: 0
0x80007ba4:  76a813e3          bne                     a6,a0,3942              # 0x80008b0a

----------------
IN: 
Priv: 3; Virt: 0
0x80007ba8:  488c              lw                      a1,16(s1)
0x80007baa:  86b2              mv                      a3,a2
0x80007bac:  f8043423          sd                      zero,-120(s0)
0x80007bb0:  2585              addiw                   a1,a1,1
0x80007bb2:  c88c              sw                      a1,16(s1)
0x80007bb4:  638c              ld                      a1,0(a5)
0x80007bb6:  00068733          add                     a4,a3,zero
0x80007bba:  305595f3          csrrw                   a1,mtvec,a1

----------------
IN: 
Priv: 3; Virt: 0
0x80007bbe:  3bb02873          csrrs                   a6,pmpaddr11,zero

----------------
IN: 
Priv: 3; Virt: 0
0x80007bc2:  30559073          csrrw                   zero,mtvec,a1

----------------
IN: 
Priv: 3; Virt: 0
0x80007bc6:  f8843683          ld                      a3,-120(s0)
0x80007bca:  740690e3          bnez                    a3,3904                 # 0x80008b0a

----------------
IN: 
Priv: 3; Virt: 0
0x80007bce:  638c              ld                      a1,0(a5)
0x80007bd0:  86b2              mv                      a3,a2
0x80007bd2:  00068733          add                     a4,a3,zero
0x80007bd6:  305595f3          csrrw                   a1,mtvec,a1

----------------
IN: 
Priv: 3; Virt: 0
0x80007bda:  3bb51073          csrrw                   zero,pmpaddr11,a0

----------------
IN: 
Priv: 3; Virt: 0
0x80007bde:  30559073          csrrw                   zero,mtvec,a1

----------------
IN: 
Priv: 3; Virt: 0
0x80007be2:  f8843683          ld                      a3,-120(s0)
0x80007be6:  720692e3          bnez                    a3,3876                 # 0x80008b0a

----------------
IN: 
Priv: 3; Virt: 0
0x80007bea:  3bb81873          csrrw                   a6,pmpaddr11,a6

----------------
IN: 
Priv: 3; Virt: 0
0x80007bee:  70a81ee3          bne                     a6,a0,3868              # 0x80008b0a

----------------
IN: 
Priv: 3; Virt: 0
0x80007bf2:  488c              lw                      a1,16(s1)
0x80007bf4:  86b2              mv                      a3,a2
0x80007bf6:  f8043423          sd                      zero,-120(s0)
0x80007bfa:  2585              addiw                   a1,a1,1
0x80007bfc:  c88c              sw                      a1,16(s1)
0x80007bfe:  638c              ld                      a1,0(a5)
0x80007c00:  00068733          add                     a4,a3,zero
0x80007c04:  305595f3          csrrw                   a1,mtvec,a1

----------------
IN: 
Priv: 3; Virt: 0
0x80007c08:  3bc02873          csrrs                   a6,pmpaddr12,zero

----------------
IN: 
Priv: 3; Virt: 0
0x80007c0c:  30559073          csrrw                   zero,mtvec,a1

----------------
IN: 
Priv: 3; Virt: 0
0x80007c10:  f8843683          ld                      a3,-120(s0)
0x80007c14:  6e069be3          bnez                    a3,3830                 # 0x80008b0a

----------------
IN: 
Priv: 3; Virt: 0
0x80007c18:  638c              ld                      a1,0(a5)
0x80007c1a:  86b2              mv                      a3,a2
0x80007c1c:  00068733          add                     a4,a3,zero
0x80007c20:  305595f3          csrrw                   a1,mtvec,a1

----------------
IN: 
Priv: 3; Virt: 0
0x80007c24:  3bc51073          csrrw                   zero,pmpaddr12,a0

----------------
IN: 
Priv: 3; Virt: 0
0x80007c28:  30559073          csrrw                   zero,mtvec,a1

----------------
IN: 
Priv: 3; Virt: 0
0x80007c2c:  f8843683          ld                      a3,-120(s0)
0x80007c30:  6c069de3          bnez                    a3,3802                 # 0x80008b0a

----------------
IN: 
Priv: 3; Virt: 0
0x80007c34:  3bc81873          csrrw                   a6,pmpaddr12,a6

----------------
IN: 
Priv: 3; Virt: 0
0x80007c38:  6ca819e3          bne                     a6,a0,3794              # 0x80008b0a

----------------
IN: 
Priv: 3; Virt: 0
0x80007c3c:  488c              lw                      a1,16(s1)
0x80007c3e:  86b2              mv                      a3,a2
0x80007c40:  f8043423          sd                      zero,-120(s0)
0x80007c44:  2585              addiw                   a1,a1,1
0x80007c46:  c88c              sw                      a1,16(s1)
0x80007c48:  638c              ld                      a1,0(a5)
0x80007c4a:  00068733          add                     a4,a3,zero
0x80007c4e:  305595f3          csrrw                   a1,mtvec,a1

----------------
IN: 
Priv: 3; Virt: 0
0x80007c52:  3bd02873          csrrs                   a6,pmpaddr13,zero

----------------
IN: 
Priv: 3; Virt: 0
0x80007c56:  30559073          csrrw                   zero,mtvec,a1

----------------
IN: 
Priv: 3; Virt: 0
0x80007c5a:  f8843683          ld                      a3,-120(s0)
0x80007c5e:  6a0696e3          bnez                    a3,3756                 # 0x80008b0a

----------------
IN: 
Priv: 3; Virt: 0
0x80007c62:  638c              ld                      a1,0(a5)
0x80007c64:  86b2              mv                      a3,a2
0x80007c66:  f8043423          sd                      zero,-120(s0)
0x80007c6a:  00068733          add                     a4,a3,zero
0x80007c6e:  305595f3          csrrw                   a1,mtvec,a1

----------------
IN: 
Priv: 3; Virt: 0
0x80007c72:  3bd51073          csrrw                   zero,pmpaddr13,a0

----------------
IN: 
Priv: 3; Virt: 0
0x80007c76:  30559073          csrrw                   zero,mtvec,a1

----------------
IN: 
Priv: 3; Virt: 0
0x80007c7a:  f8843683          ld                      a3,-120(s0)
0x80007c7e:  680696e3          bnez                    a3,3724                 # 0x80008b0a

----------------
IN: 
Priv: 3; Virt: 0
0x80007c82:  3bd81873          csrrw                   a6,pmpaddr13,a6

----------------
IN: 
Priv: 3; Virt: 0
0x80007c86:  68a812e3          bne                     a6,a0,3716              # 0x80008b0a

----------------
IN: 
Priv: 3; Virt: 0
0x80007c8a:  488c              lw                      a1,16(s1)
0x80007c8c:  86b2              mv                      a3,a2
0x80007c8e:  f8043423          sd                      zero,-120(s0)
0x80007c92:  2585              addiw                   a1,a1,1
0x80007c94:  c88c              sw                      a1,16(s1)
0x80007c96:  638c              ld                      a1,0(a5)
0x80007c98:  00068733          add                     a4,a3,zero
0x80007c9c:  305595f3          csrrw                   a1,mtvec,a1

----------------
IN: 
Priv: 3; Virt: 0
0x80007ca0:  3be02873          csrrs                   a6,pmpaddr14,zero

----------------
IN: 
Priv: 3; Virt: 0
0x80007ca4:  30559073          csrrw                   zero,mtvec,a1

----------------
IN: 
Priv: 3; Virt: 0
0x80007ca8:  f8843683          ld                      a3,-120(s0)
0x80007cac:  64069fe3          bnez                    a3,3678                 # 0x80008b0a

----------------
IN: 
Priv: 3; Virt: 0
0x80007cb0:  638c              ld                      a1,0(a5)
0x80007cb2:  86b2              mv                      a3,a2
0x80007cb4:  00068733          add                     a4,a3,zero
0x80007cb8:  305595f3          csrrw                   a1,mtvec,a1

----------------
IN: 
Priv: 3; Virt: 0
0x80007cbc:  3be51073          csrrw                   zero,pmpaddr14,a0

----------------
IN: 
Priv: 3; Virt: 0
0x80007cc0:  30559073          csrrw                   zero,mtvec,a1

----------------
IN: 
Priv: 3; Virt: 0
0x80007cc4:  f8843683          ld                      a3,-120(s0)
0x80007cc8:  640691e3          bnez                    a3,3650                 # 0x80008b0a

----------------
IN: 
Priv: 3; Virt: 0
0x80007ccc:  3be81873          csrrw                   a6,pmpaddr14,a6

----------------
IN: 
Priv: 3; Virt: 0
0x80007cd0:  62a81de3          bne                     a6,a0,3642              # 0x80008b0a

----------------
IN: 
Priv: 3; Virt: 0
0x80007cd4:  488c              lw                      a1,16(s1)
0x80007cd6:  86b2              mv                      a3,a2
0x80007cd8:  f8043423          sd                      zero,-120(s0)
0x80007cdc:  2585              addiw                   a1,a1,1
0x80007cde:  c88c              sw                      a1,16(s1)
0x80007ce0:  638c              ld                      a1,0(a5)
0x80007ce2:  00068733          add                     a4,a3,zero
0x80007ce6:  305595f3          csrrw                   a1,mtvec,a1

----------------
IN: 
Priv: 3; Virt: 0
0x80007cea:  3bf02873          csrrs                   a6,pmpaddr15,zero

----------------
IN: 
Priv: 3; Virt: 0
0x80007cee:  30559073          csrrw                   zero,mtvec,a1

----------------
IN: 
Priv: 3; Virt: 0
0x80007cf2:  f8843683          ld                      a3,-120(s0)
0x80007cf6:  60069ae3          bnez                    a3,3604                 # 0x80008b0a

----------------
IN: 
Priv: 3; Virt: 0
0x80007cfa:  638c              ld                      a1,0(a5)
0x80007cfc:  86b2              mv                      a3,a2
0x80007cfe:  00068733          add                     a4,a3,zero
0x80007d02:  305595f3          csrrw                   a1,mtvec,a1

----------------
IN: 
Priv: 3; Virt: 0
0x80007d06:  3bf51073          csrrw                   zero,pmpaddr15,a0

----------------
IN: 
Priv: 3; Virt: 0
0x80007d0a:  30559073          csrrw                   zero,mtvec,a1

----------------
IN: 
Priv: 3; Virt: 0
0x80007d0e:  f8843683          ld                      a3,-120(s0)
0x80007d12:  5e069ce3          bnez                    a3,3576                 # 0x80008b0a

----------------
IN: 
Priv: 3; Virt: 0
0x80007d16:  3bf81873          csrrw                   a6,pmpaddr15,a6

----------------
IN: 
Priv: 3; Virt: 0
0x80007d1a:  5ea818e3          bne                     a6,a0,3568              # 0x80008b0a

----------------
IN: 
Priv: 3; Virt: 0
0x80007d1e:  488c              lw                      a1,16(s1)
0x80007d20:  86b2              mv                      a3,a2
0x80007d22:  f8043423          sd                      zero,-120(s0)
0x80007d26:  2585              addiw                   a1,a1,1
0x80007d28:  c88c              sw                      a1,16(s1)
0x80007d2a:  638c              ld                      a1,0(a5)
0x80007d2c:  00068733          add                     a4,a3,zero
0x80007d30:  305595f3          csrrw                   a1,mtvec,a1

----------------
IN: 
Priv: 3; Virt: 0
0x80007d34:  3c002873          csrrs                   a6,0x3c0,zero

----------------
IN: 
Priv: 3; Virt: 0
0x8000a800:  34102773          csrrs                   a4,mepc,zero

----------------
IN: 
Priv: 3; Virt: 0
0x8000a804:  e298              sd                      a4,0(a3)
0x8000a806:  34202773          csrrs                   a4,mcause,zero

----------------
IN: 
Priv: 3; Virt: 0
0x8000a80a:  e698              sd                      a4,8(a3)
0x8000a80c:  34302773          csrrs                   a4,mtval,zero

----------------
IN: 
Priv: 3; Virt: 0
0x8000a810:  ea98              sd                      a4,16(a3)
0x8000a812:  34b02773          csrrs                   a4,0x34b,zero

----------------
IN: 
Priv: 3; Virt: 0
0x8000a816:  ee98              sd                      a4,24(a3)
0x8000a818:  34a02773          csrrs                   a4,0x34a,zero

----------------
IN: 
Priv: 3; Virt: 0
0x8000a81c:  f298              sd                      a4,32(a3)
0x8000a81e:  30002773          csrrs                   a4,mstatus,zero

----------------
IN: 
Priv: 3; Virt: 0
0x8000a822:  9319              srli                    a4,a4,38
0x8000a824:  8b05              andi                    a4,a4,1
0x8000a826:  f698              sd                      a4,40(a3)
0x8000a828:  34102773          csrrs                   a4,mepc,zero

----------------
IN: 
Priv: 3; Virt: 0
0x8000a82c:  0711              addi                    a4,a4,4
0x8000a82e:  34171073          csrrw                   zero,mepc,a4

----------------
IN: 
Priv: 3; Virt: 0
0x8000a832:  30200073          mret                    

----------------
IN: 
Priv: 3; Virt: 0
0x80007d38:  30559073          csrrw                   zero,mtvec,a1

----------------
IN: 
Priv: 3; Virt: 0
0x80007d3c:  f8843683          ld                      a3,-120(s0)
0x80007d40:  5c0695e3          bnez                    a3,3530                 # 0x80008b0a

----------------
IN: 
Priv: 3; Virt: 0
0x80008b0a:  638c              ld                      a1,0(a5)
0x80008b0c:  86b2              mv                      a3,a2
0x80008b0e:  f8043423          sd                      zero,-120(s0)
0x80008b12:  00068733          add                     a4,a3,zero
0x80008b16:  305595f3          csrrw                   a1,mtvec,a1

----------------
IN: 
Priv: 3; Virt: 0
0x80008b1a:  b0302873          csrrs                   a6,mhpmcounter3,zero

----------------
IN: 
Priv: 3; Virt: 0
0x80008b1e:  30559073          csrrw                   zero,mtvec,a1

----------------
IN: 
Priv: 3; Virt: 0
0x80008b22:  f8843683          ld                      a3,-120(s0)
0x80008b26:  e29d              bnez                    a3,38                   # 0x80008b4c

----------------
IN: 
Priv: 3; Virt: 0
0x80008b28:  638c              ld                      a1,0(a5)
0x80008b2a:  86b2              mv                      a3,a2
0x80008b2c:  4505              addi                    a0,zero,1
0x80008b2e:  00068733          add                     a4,a3,zero
0x80008b32:  305595f3          csrrw                   a1,mtvec,a1

----------------
IN: 
Priv: 3; Virt: 0
0x80008b36:  b0351073          csrrw                   zero,mhpmcounter3,a0

----------------
IN: 
Priv: 3; Virt: 0
0x80008b3a:  30559073          csrrw                   zero,mtvec,a1

----------------
IN: 
Priv: 3; Virt: 0
0x80008b3e:  f8843683          ld                      a3,-120(s0)
0x80008b42:  e689              bnez                    a3,10                   # 0x80008b4c

----------------
IN: 
Priv: 3; Virt: 0
0x80008b44:  b0381873          csrrw                   a6,mhpmcounter3,a6

----------------
IN: 
Priv: 3; Virt: 0
0x80008b48:  16a80a63          beq                     a6,a0,372               # 0x80008cbc

----------------
IN: 
Priv: 3; Virt: 0
0x80008cbc:  5094              lw                      a3,32(s1)
0x80008cbe:  638c              ld                      a1,0(a5)
0x80008cc0:  fa043823          sd                      zero,-80(s0)
0x80008cc4:  2685              addiw                   a3,a3,1
0x80008cc6:  d094              sw                      a3,32(s1)
0x80008cc8:  fa043c23          sd                      zero,-72(s0)
0x80008ccc:  fc043023          sd                      zero,-64(s0)
0x80008cd0:  fc043423          sd                      zero,-56(s0)
0x80008cd4:  fc043823          sd                      zero,-48(s0)
0x80008cd8:  fc043c23          sd                      zero,-40(s0)
0x80008cdc:  86c6              mv                      a3,a7
0x80008cde:  557d              addi                    a0,zero,-1
0x80008ce0:  00068733          add                     a4,a3,zero
0x80008ce4:  305595f3          csrrw                   a1,mtvec,a1

----------------
IN: 
Priv: 3; Virt: 0
0x80008ce8:  b0351073          csrrw                   zero,mhpmcounter3,a0

----------------
IN: 
Priv: 3; Virt: 0
0x80008cec:  30559073          csrrw                   zero,mtvec,a1

----------------
IN: 
Priv: 3; Virt: 0
0x80008cf0:  fb843683          ld                      a3,-72(s0)
0x80008cf4:  0c069ae3          bnez                    a3,2260                 # 0x800095c8

----------------
IN: 
Priv: 3; Virt: 0
0x80008cf8:  0007b803          ld                      a6,0(a5)
0x80008cfc:  86c6              mv                      a3,a7
0x80008cfe:  00068733          add                     a4,a3,zero
0x80008d02:  30581873          csrrw                   a6,mtvec,a6

----------------
IN: 
Priv: 3; Virt: 0
0x80008d06:  b03025f3          csrrs                   a1,mhpmcounter3,zero

----------------
IN: 
Priv: 3; Virt: 0
0x80008d0a:  30581073          csrrw                   zero,mtvec,a6

----------------
IN: 
Priv: 3; Virt: 0
0x80008d0e:  fb843803          ld                      a6,-72(s0)
0x80008d12:  86ae              mv                      a3,a1
0x80008d14:  4581              mv                      a1,zero
0x80008d16:  04081463          bnez                    a6,72                   # 0x80008d5e

----------------
IN: 
Priv: 3; Virt: 0
0x80008d1a:  1502              slli                    a0,a0,32
0x80008d1c:  8d75              and                     a0,a0,a3
0x80008d1e:  0a051de3          bnez                    a0,2234                 # 0x800095d8

----------------
IN: 
Priv: 3; Virt: 0
0x800095d8:  03f00593          addi                    a1,zero,63
0x800095dc:  f4aff06f          j                       -2230                   # 0x80008d26

----------------
IN: 
Priv: 3; Virt: 0
0x80008d26:  557d              addi                    a0,zero,-1
0x80008d28:  03051813          slli                    a6,a0,48
0x80008d2c:  0106f833          and                     a6,a3,a6
0x80008d30:  0a0810e3          bnez                    a6,2208                 # 0x800095d0

----------------
IN: 
Priv: 3; Virt: 0
0x800095d0:  1562              slli                    a0,a0,56
0x800095d2:  8d75              and                     a0,a0,a3
0x800095d4:  f68ff06f          j                       -2200                   # 0x80008d3c

----------------
IN: 
Priv: 3; Virt: 0
0x80008d3c:  e119              bnez                    a0,6                    # 0x80008d42

----------------
IN: 
Priv: 3; Virt: 0
0x80008d42:  03c6d513          srli                    a0,a3,60
0x80008d46:  e119              bnez                    a0,6                    # 0x80008d4c

----------------
IN: 
Priv: 3; Virt: 0
0x80008d4c:  03e6d513          srli                    a0,a3,62
0x80008d50:  e119              bnez                    a0,6                    # 0x80008d56

----------------
IN: 
Priv: 3; Virt: 0
0x80008d56:  0006c363          bltz                    a3,6                    # 0x80008d5c

----------------
IN: 
Priv: 3; Virt: 0
0x80008d5c:  2585              addiw                   a1,a1,1
0x80008d5e:  d0cc              sw                      a1,36(s1)
0x80008d60:  86b2              mv                      a3,a2
0x80008d62:  638c              ld                      a1,0(a5)
0x80008d64:  f8043423          sd                      zero,-120(s0)
0x80008d68:  00068733          add                     a4,a3,zero
0x80008d6c:  305595f3          csrrw                   a1,mtvec,a1

----------------
IN: 
Priv: 3; Virt: 0
0x80008d70:  b0402873          csrrs                   a6,mhpmcounter4,zero

----------------
IN: 
Priv: 3; Virt: 0
0x80008d74:  30559073          csrrw                   zero,mtvec,a1

----------------
IN: 
Priv: 3; Virt: 0
0x80008d78:  f8843683          ld                      a3,-120(s0)
0x80008d7c:  dc0698e3          bnez                    a3,-560                 # 0x80008b4c

----------------
IN: 
Priv: 3; Virt: 0
0x80008d80:  638c              ld                      a1,0(a5)
0x80008d82:  86b2              mv                      a3,a2
0x80008d84:  4505              addi                    a0,zero,1
0x80008d86:  00068733          add                     a4,a3,zero
0x80008d8a:  305595f3          csrrw                   a1,mtvec,a1

----------------
IN: 
Priv: 3; Virt: 0
0x80008d8e:  b0451073          csrrw                   zero,mhpmcounter4,a0

----------------
IN: 
Priv: 3; Virt: 0
0x80008d92:  30559073          csrrw                   zero,mtvec,a1

----------------
IN: 
Priv: 3; Virt: 0
0x80008d96:  f8843683          ld                      a3,-120(s0)
0x80008d9a:  da0699e3          bnez                    a3,-590                 # 0x80008b4c

----------------
IN: 
Priv: 3; Virt: 0
0x80008d9e:  b0481873          csrrw                   a6,mhpmcounter4,a6

----------------
IN: 
Priv: 3; Virt: 0
0x80008da2:  daa815e3          bne                     a6,a0,-598              # 0x80008b4c

----------------
IN: 
Priv: 3; Virt: 0
0x80008da6:  508c              lw                      a1,32(s1)
0x80008da8:  86b2              mv                      a3,a2
0x80008daa:  f8043423          sd                      zero,-120(s0)
0x80008dae:  2585              addiw                   a1,a1,1
0x80008db0:  d08c              sw                      a1,32(s1)
0x80008db2:  638c              ld                      a1,0(a5)
0x80008db4:  00068733          add                     a4,a3,zero
0x80008db8:  305595f3          csrrw                   a1,mtvec,a1

----------------
IN: 
Priv: 3; Virt: 0
0x80008dbc:  b0502573          csrrs                   a0,mhpmcounter5,zero

----------------
IN: 
Priv: 3; Virt: 0
0x80008dc0:  30559073          csrrw                   zero,mtvec,a1

----------------
IN: 
Priv: 3; Virt: 0
0x80008dc4:  f8843683          ld                      a3,-120(s0)
0x80008dc8:  d80692e3          bnez                    a3,-636                 # 0x80008b4c

----------------
IN: 
Priv: 3; Virt: 0
0x80008dcc:  638c              ld                      a1,0(a5)
0x80008dce:  86b2              mv                      a3,a2
0x80008dd0:  00068733          add                     a4,a3,zero
0x80008dd4:  305595f3          csrrw                   a1,mtvec,a1

----------------
IN: 
Priv: 3; Virt: 0
0x80008dd8:  b0581073          csrrw                   zero,mhpmcounter5,a6

----------------
IN: 
Priv: 3; Virt: 0
0x80008ddc:  30559073          csrrw                   zero,mtvec,a1

----------------
IN: 
Priv: 3; Virt: 0
0x80008de0:  f8843683          ld                      a3,-120(s0)
0x80008de4:  d60694e3          bnez                    a3,-664                 # 0x80008b4c

----------------
IN: 
Priv: 3; Virt: 0
0x80008de8:  b0551573          csrrw                   a0,mhpmcounter5,a0

----------------
IN: 
Priv: 3; Virt: 0
0x80008dec:  d70510e3          bne                     a0,a6,-672              # 0x80008b4c

----------------
IN: 
Priv: 3; Virt: 0
0x80008df0:  508c              lw                      a1,32(s1)
0x80008df2:  86b2              mv                      a3,a2
0x80008df4:  f8043423          sd                      zero,-120(s0)
0x80008df8:  2585              addiw                   a1,a1,1
0x80008dfa:  d08c              sw                      a1,32(s1)
0x80008dfc:  638c              ld                      a1,0(a5)
0x80008dfe:  00068733          add                     a4,a3,zero
0x80008e02:  305595f3          csrrw                   a1,mtvec,a1

----------------
IN: 
Priv: 3; Virt: 0
0x80008e06:  b0602873          csrrs                   a6,mhpmcounter6,zero

----------------
IN: 
Priv: 3; Virt: 0
0x80008e0a:  30559073          csrrw                   zero,mtvec,a1

----------------
IN: 
Priv: 3; Virt: 0
0x80008e0e:  f8843683          ld                      a3,-120(s0)
0x80008e12:  d2069de3          bnez                    a3,-710                 # 0x80008b4c

----------------
IN: 
Priv: 3; Virt: 0
0x80008e16:  638c              ld                      a1,0(a5)
0x80008e18:  86b2              mv                      a3,a2
0x80008e1a:  00068733          add                     a4,a3,zero
0x80008e1e:  305595f3          csrrw                   a1,mtvec,a1

----------------
IN: 
Priv: 3; Virt: 0
0x80008e22:  b0651073          csrrw                   zero,mhpmcounter6,a0

----------------
IN: 
Priv: 3; Virt: 0
0x80008e26:  30559073          csrrw                   zero,mtvec,a1

----------------
IN: 
Priv: 3; Virt: 0
0x80008e2a:  f8843683          ld                      a3,-120(s0)
0x80008e2e:  d0069fe3          bnez                    a3,-738                 # 0x80008b4c

----------------
IN: 
Priv: 3; Virt: 0
0x80008e32:  b0681873          csrrw                   a6,mhpmcounter6,a6

----------------
IN: 
Priv: 3; Virt: 0
0x80008e36:  d0a81be3          bne                     a6,a0,-746              # 0x80008b4c

----------------
IN: 
Priv: 3; Virt: 0
0x80008e3a:  508c              lw                      a1,32(s1)
0x80008e3c:  86b2              mv                      a3,a2
0x80008e3e:  f8043423          sd                      zero,-120(s0)
0x80008e42:  2585              addiw                   a1,a1,1
0x80008e44:  d08c              sw                      a1,32(s1)
0x80008e46:  638c              ld                      a1,0(a5)
0x80008e48:  00068733          add                     a4,a3,zero
0x80008e4c:  305595f3          csrrw                   a1,mtvec,a1

----------------
IN: 
Priv: 3; Virt: 0
0x80008e50:  b0702573          csrrs                   a0,mhpmcounter7,zero

----------------
IN: 
Priv: 3; Virt: 0
0x80008e54:  30559073          csrrw                   zero,mtvec,a1

----------------
IN: 
Priv: 3; Virt: 0
0x80008e58:  f8843683          ld                      a3,-120(s0)
0x80008e5c:  ce0698e3          bnez                    a3,-784                 # 0x80008b4c

----------------
IN: 
Priv: 3; Virt: 0
0x80008e60:  638c              ld                      a1,0(a5)
0x80008e62:  86b2              mv                      a3,a2
0x80008e64:  f8043423          sd                      zero,-120(s0)
0x80008e68:  4805              addi                    a6,zero,1
0x80008e6a:  00068733          add                     a4,a3,zero
0x80008e6e:  305595f3          csrrw                   a1,mtvec,a1

----------------
IN: 
Priv: 3; Virt: 0
0x80008e72:  b0781073          csrrw                   zero,mhpmcounter7,a6

----------------
IN: 
Priv: 3; Virt: 0
0x80008e76:  30559073          csrrw                   zero,mtvec,a1

----------------
IN: 
Priv: 3; Virt: 0
0x80008e7a:  f8843683          ld                      a3,-120(s0)
0x80008e7e:  cc0697e3          bnez                    a3,-818                 # 0x80008b4c

----------------
IN: 
Priv: 3; Virt: 0
0x80008e82:  b0751573          csrrw                   a0,mhpmcounter7,a0

----------------
IN: 
Priv: 3; Virt: 0
0x80008e86:  cd0513e3          bne                     a0,a6,-826              # 0x80008b4c

----------------
IN: 
Priv: 3; Virt: 0
0x80008e8a:  508c              lw                      a1,32(s1)
0x80008e8c:  0007b803          ld                      a6,0(a5)
0x80008e90:  86b2              mv                      a3,a2
0x80008e92:  2585              addiw                   a1,a1,1
0x80008e94:  d08c              sw                      a1,32(s1)
0x80008e96:  f8043423          sd                      zero,-120(s0)
0x80008e9a:  00068733          add                     a4,a3,zero
0x80008e9e:  30581873          csrrw                   a6,mtvec,a6

----------------
IN: 
Priv: 3; Virt: 0
0x80008ea2:  b08025f3          csrrs                   a1,mhpmcounter8,zero

----------------
IN: 
Priv: 3; Virt: 0
0x80008ea6:  30581073          csrrw                   zero,mtvec,a6

----------------
IN: 
Priv: 3; Virt: 0
0x80008eaa:  f8843683          ld                      a3,-120(s0)
0x80008eae:  c8069fe3          bnez                    a3,-866                 # 0x80008b4c

----------------
IN: 
Priv: 3; Virt: 0
0x80008eb2:  0007b803          ld                      a6,0(a5)
0x80008eb6:  86b2              mv                      a3,a2
0x80008eb8:  00068733          add                     a4,a3,zero
0x80008ebc:  30581873          csrrw                   a6,mtvec,a6

----------------
IN: 
Priv: 3; Virt: 0
0x80008ec0:  b0851073          csrrw                   zero,mhpmcounter8,a0

----------------
IN: 
Priv: 3; Virt: 0
0x80008ec4:  30581073          csrrw                   zero,mtvec,a6

----------------
IN: 
Priv: 3; Virt: 0
0x80008ec8:  f8843683          ld                      a3,-120(s0)
0x80008ecc:  c80690e3          bnez                    a3,-896                 # 0x80008b4c

----------------
IN: 
Priv: 3; Virt: 0
0x80008ed0:  b08595f3          csrrw                   a1,mhpmcounter8,a1

----------------
IN: 
Priv: 3; Virt: 0
0x80008ed4:  c6a59ce3          bne                     a1,a0,-904              # 0x80008b4c

----------------
IN: 
Priv: 3; Virt: 0
0x80008ed8:  5088              lw                      a0,32(s1)
0x80008eda:  86b2              mv                      a3,a2
0x80008edc:  f8043423          sd                      zero,-120(s0)
0x80008ee0:  2505              addiw                   a0,a0,1
0x80008ee2:  d088              sw                      a0,32(s1)
0x80008ee4:  6388              ld                      a0,0(a5)
0x80008ee6:  00068733          add                     a4,a3,zero
0x80008eea:  30551573          csrrw                   a0,mtvec,a0

----------------
IN: 
Priv: 3; Virt: 0
0x80008eee:  b0902873          csrrs                   a6,mhpmcounter9,zero

----------------
IN: 
Priv: 3; Virt: 0
0x80008ef2:  30551073          csrrw                   zero,mtvec,a0

----------------
IN: 
Priv: 3; Virt: 0
0x80008ef6:  f8843683          ld                      a3,-120(s0)
0x80008efa:  c40699e3          bnez                    a3,-942                 # 0x80008b4c

----------------
IN: 
Priv: 3; Virt: 0
0x80008efe:  6388              ld                      a0,0(a5)
0x80008f00:  86b2              mv                      a3,a2
0x80008f02:  00068733          add                     a4,a3,zero
0x80008f06:  30551573          csrrw                   a0,mtvec,a0

----------------
IN: 
Priv: 3; Virt: 0
0x80008f0a:  b0959073          csrrw                   zero,mhpmcounter9,a1

----------------
IN: 
Priv: 3; Virt: 0
0x80008f0e:  30551073          csrrw                   zero,mtvec,a0

----------------
IN: 
Priv: 3; Virt: 0
0x80008f12:  f8843683          ld                      a3,-120(s0)
0x80008f16:  c2069be3          bnez                    a3,-970                 # 0x80008b4c

----------------
IN: 
Priv: 3; Virt: 0
0x80008f1a:  b0981873          csrrw                   a6,mhpmcounter9,a6

----------------
IN: 
Priv: 3; Virt: 0
0x80008f1e:  c2b817e3          bne                     a6,a1,-978              # 0x80008b4c

----------------
IN: 
Priv: 3; Virt: 0
0x80008f22:  508c              lw                      a1,32(s1)
0x80008f24:  6388              ld                      a0,0(a5)
0x80008f26:  86b2              mv                      a3,a2
0x80008f28:  2585              addiw                   a1,a1,1
0x80008f2a:  d08c              sw                      a1,32(s1)
0x80008f2c:  f8043423          sd                      zero,-120(s0)
0x80008f30:  00068733          add                     a4,a3,zero
0x80008f34:  30551573          csrrw                   a0,mtvec,a0

----------------
IN: 
Priv: 3; Virt: 0
0x80008f38:  b0a025f3          csrrs                   a1,mhpmcounter10,zero

----------------
IN: 
Priv: 3; Virt: 0
0x80008f3c:  30551073          csrrw                   zero,mtvec,a0

----------------
IN: 
Priv: 3; Virt: 0
0x80008f40:  f8843683          ld                      a3,-120(s0)
0x80008f44:  c00694e3          bnez                    a3,-1016                # 0x80008b4c

----------------
IN: 
Priv: 3; Virt: 0
0x80008f48:  6388              ld                      a0,0(a5)
0x80008f4a:  86b2              mv                      a3,a2
0x80008f4c:  00068733          add                     a4,a3,zero
0x80008f50:  30551573          csrrw                   a0,mtvec,a0

----------------
IN: 
Priv: 3; Virt: 0
0x80008f54:  b0a81073          csrrw                   zero,mhpmcounter10,a6

----------------
IN: 
Priv: 3; Virt: 0
0x80008f58:  30551073          csrrw                   zero,mtvec,a0

----------------
IN: 
Priv: 3; Virt: 0
0x80008f5c:  f8843683          ld                      a3,-120(s0)
0x80008f60:  be0696e3          bnez                    a3,-1044                # 0x80008b4c

----------------
IN: 
Priv: 3; Virt: 0
0x80008f64:  b0a595f3          csrrw                   a1,mhpmcounter10,a1

----------------
IN: 
Priv: 3; Virt: 0
0x80008f68:  4685              addi                    a3,zero,1
0x80008f6a:  bed591e3          bne                     a1,a3,-1054             # 0x80008b4c

----------------
IN: 
Priv: 3; Virt: 0
0x80008f6e:  5088              lw                      a0,32(s1)
0x80008f70:  0007b803          ld                      a6,0(a5)
0x80008f74:  86b2              mv                      a3,a2
0x80008f76:  2505              addiw                   a0,a0,1
0x80008f78:  d088              sw                      a0,32(s1)
0x80008f7a:  f8043423          sd                      zero,-120(s0)
0x80008f7e:  00068733          add                     a4,a3,zero
0x80008f82:  30581873          csrrw                   a6,mtvec,a6

----------------
IN: 
Priv: 3; Virt: 0
0x80008f86:  b0b02573          csrrs                   a0,mhpmcounter11,zero

----------------
IN: 
Priv: 3; Virt: 0
0x80008f8a:  30581073          csrrw                   zero,mtvec,a6

----------------
IN: 
Priv: 3; Virt: 0
0x80008f8e:  f8843683          ld                      a3,-120(s0)
0x80008f92:  ba069de3          bnez                    a3,-1094                # 0x80008b4c

----------------
IN: 
Priv: 3; Virt: 0
0x80008f96:  0007b803          ld                      a6,0(a5)
0x80008f9a:  86b2              mv                      a3,a2
0x80008f9c:  00068733          add                     a4,a3,zero
0x80008fa0:  30581873          csrrw                   a6,mtvec,a6

----------------
IN: 
Priv: 3; Virt: 0
0x80008fa4:  b0b59073          csrrw                   zero,mhpmcounter11,a1

----------------
IN: 
Priv: 3; Virt: 0
0x80008fa8:  30581073          csrrw                   zero,mtvec,a6

----------------
IN: 
Priv: 3; Virt: 0
0x80008fac:  f8843683          ld                      a3,-120(s0)
0x80008fb0:  b8069ee3          bnez                    a3,-1124                # 0x80008b4c

----------------
IN: 
Priv: 3; Virt: 0
0x80008fb4:  b0b51573          csrrw                   a0,mhpmcounter11,a0

----------------
IN: 
Priv: 3; Virt: 0
0x80008fb8:  b8b51ae3          bne                     a0,a1,-1132             # 0x80008b4c

----------------
IN: 
Priv: 3; Virt: 0
0x80008fbc:  508c              lw                      a1,32(s1)
0x80008fbe:  0007b803          ld                      a6,0(a5)
0x80008fc2:  86b2              mv                      a3,a2
0x80008fc4:  2585              addiw                   a1,a1,1
0x80008fc6:  d08c              sw                      a1,32(s1)
0x80008fc8:  f8043423          sd                      zero,-120(s0)
0x80008fcc:  00068733          add                     a4,a3,zero
0x80008fd0:  30581873          csrrw                   a6,mtvec,a6

----------------
IN: 
Priv: 3; Virt: 0
0x80008fd4:  b0c025f3          csrrs                   a1,mhpmcounter12,zero

----------------
IN: 
Priv: 3; Virt: 0
0x80008fd8:  30581073          csrrw                   zero,mtvec,a6

----------------
IN: 
Priv: 3; Virt: 0
0x80008fdc:  f8843683          ld                      a3,-120(s0)
0x80008fe0:  b60696e3          bnez                    a3,-1172                # 0x80008b4c

----------------
IN: 
Priv: 3; Virt: 0
0x80008fe4:  0007b803          ld                      a6,0(a5)
0x80008fe8:  86b2              mv                      a3,a2
0x80008fea:  00068733          add                     a4,a3,zero
0x80008fee:  30581873          csrrw                   a6,mtvec,a6

----------------
IN: 
Priv: 3; Virt: 0
0x80008ff2:  b0c51073          csrrw                   zero,mhpmcounter12,a0

----------------
IN: 
Priv: 3; Virt: 0
0x80008ff6:  30581073          csrrw                   zero,mtvec,a6

----------------
IN: 
Priv: 3; Virt: 0
0x80008ffa:  f8843683          ld                      a3,-120(s0)

----------------
IN: 
Priv: 3; Virt: 0
0x80008ffe:  b40697e3          bnez                    a3,-1202                # 0x80008b4c

----------------
IN: 
Priv: 3; Virt: 0
0x80009002:  b0c595f3          csrrw                   a1,mhpmcounter12,a1

----------------
IN: 
Priv: 3; Virt: 0
0x80009006:  b4a593e3          bne                     a1,a0,-1210             # 0x80008b4c

----------------
IN: 
Priv: 3; Virt: 0
0x8000900a:  5088              lw                      a0,32(s1)
0x8000900c:  86b2              mv                      a3,a2
0x8000900e:  f8043423          sd                      zero,-120(s0)
0x80009012:  2505              addiw                   a0,a0,1
0x80009014:  d088              sw                      a0,32(s1)
0x80009016:  6388              ld                      a0,0(a5)
0x80009018:  00068733          add                     a4,a3,zero
0x8000901c:  30551573          csrrw                   a0,mtvec,a0

----------------
IN: 
Priv: 3; Virt: 0
0x80009020:  b0d02873          csrrs                   a6,mhpmcounter13,zero

----------------
IN: 
Priv: 3; Virt: 0
0x80009024:  30551073          csrrw                   zero,mtvec,a0

----------------
IN: 
Priv: 3; Virt: 0
0x80009028:  f8843683          ld                      a3,-120(s0)
0x8000902c:  b20690e3          bnez                    a3,-1248                # 0x80008b4c

----------------
IN: 
Priv: 3; Virt: 0
0x80009030:  6388              ld                      a0,0(a5)
0x80009032:  86b2              mv                      a3,a2
0x80009034:  00068733          add                     a4,a3,zero
0x80009038:  30551573          csrrw                   a0,mtvec,a0

----------------
IN: 
Priv: 3; Virt: 0
0x8000903c:  b0d59073          csrrw                   zero,mhpmcounter13,a1

----------------
IN: 
Priv: 3; Virt: 0
0x80009040:  30551073          csrrw                   zero,mtvec,a0

----------------
IN: 
Priv: 3; Virt: 0
0x80009044:  f8843683          ld                      a3,-120(s0)
0x80009048:  b00692e3          bnez                    a3,-1276                # 0x80008b4c

----------------
IN: 
Priv: 3; Virt: 0
0x8000904c:  b0d81873          csrrw                   a6,mhpmcounter13,a6

----------------
IN: 
Priv: 3; Virt: 0
0x80009050:  aeb81ee3          bne                     a6,a1,-1284             # 0x80008b4c

----------------
IN: 
Priv: 3; Virt: 0
0x80009054:  508c              lw                      a1,32(s1)
0x80009056:  86b2              mv                      a3,a2
0x80009058:  f8043423          sd                      zero,-120(s0)
0x8000905c:  2585              addiw                   a1,a1,1
0x8000905e:  d08c              sw                      a1,32(s1)
0x80009060:  638c              ld                      a1,0(a5)
0x80009062:  00068733          add                     a4,a3,zero
0x80009066:  305595f3          csrrw                   a1,mtvec,a1

----------------
IN: 
Priv: 3; Virt: 0
0x8000906a:  b0e02573          csrrs                   a0,mhpmcounter14,zero

----------------
IN: 
Priv: 3; Virt: 0
0x8000906e:  30559073          csrrw                   zero,mtvec,a1

----------------
IN: 
Priv: 3; Virt: 0
0x80009072:  f8843683          ld                      a3,-120(s0)
0x80009076:  ac069be3          bnez                    a3,-1322                # 0x80008b4c

----------------
IN: 
Priv: 3; Virt: 0
0x8000907a:  638c              ld                      a1,0(a5)
0x8000907c:  86b2              mv                      a3,a2
0x8000907e:  4805              addi                    a6,zero,1
0x80009080:  00068733          add                     a4,a3,zero
0x80009084:  305595f3          csrrw                   a1,mtvec,a1

----------------
IN: 
Priv: 3; Virt: 0
0x80009088:  b0e81073          csrrw                   zero,mhpmcounter14,a6

----------------
IN: 
Priv: 3; Virt: 0
0x8000908c:  30559073          csrrw                   zero,mtvec,a1

----------------
IN: 
Priv: 3; Virt: 0
0x80009090:  f8843683          ld                      a3,-120(s0)
0x80009094:  aa069ce3          bnez                    a3,-1352                # 0x80008b4c

----------------
IN: 
Priv: 3; Virt: 0
0x80009098:  b0e51573          csrrw                   a0,mhpmcounter14,a0

----------------
IN: 
Priv: 3; Virt: 0
0x8000909c:  ab0518e3          bne                     a0,a6,-1360             # 0x80008b4c

----------------
IN: 
Priv: 3; Virt: 0
0x800090a0:  508c              lw                      a1,32(s1)
0x800090a2:  0007b803          ld                      a6,0(a5)
0x800090a6:  86b2              mv                      a3,a2
0x800090a8:  2585              addiw                   a1,a1,1
0x800090aa:  d08c              sw                      a1,32(s1)
0x800090ac:  f8043423          sd                      zero,-120(s0)
0x800090b0:  00068733          add                     a4,a3,zero
0x800090b4:  30581873          csrrw                   a6,mtvec,a6

----------------
IN: 
Priv: 3; Virt: 0
0x800090b8:  b0f025f3          csrrs                   a1,mhpmcounter15,zero

----------------
IN: 
Priv: 3; Virt: 0
0x800090bc:  30581073          csrrw                   zero,mtvec,a6

----------------
IN: 
Priv: 3; Virt: 0
0x800090c0:  f8843683          ld                      a3,-120(s0)
0x800090c4:  a80694e3          bnez                    a3,-1400                # 0x80008b4c

----------------
IN: 
Priv: 3; Virt: 0
0x800090c8:  0007b803          ld                      a6,0(a5)
0x800090cc:  86b2              mv                      a3,a2
0x800090ce:  00068733          add                     a4,a3,zero
0x800090d2:  30581873          csrrw                   a6,mtvec,a6

----------------
IN: 
Priv: 3; Virt: 0
0x800090d6:  b0f51073          csrrw                   zero,mhpmcounter15,a0

----------------
IN: 
Priv: 3; Virt: 0
0x800090da:  30581073          csrrw                   zero,mtvec,a6

----------------
IN: 
Priv: 3; Virt: 0
0x800090de:  f8843683          ld                      a3,-120(s0)
0x800090e2:  a60695e3          bnez                    a3,-1430                # 0x80008b4c

----------------
IN: 
Priv: 3; Virt: 0
0x800090e6:  b0f595f3          csrrw                   a1,mhpmcounter15,a1

----------------
IN: 
Priv: 3; Virt: 0
0x800090ea:  a6a591e3          bne                     a1,a0,-1438             # 0x80008b4c

----------------
IN: 
Priv: 3; Virt: 0
0x800090ee:  5088              lw                      a0,32(s1)
0x800090f0:  86b2              mv                      a3,a2
0x800090f2:  f8043423          sd                      zero,-120(s0)
0x800090f6:  2505              addiw                   a0,a0,1
0x800090f8:  d088              sw                      a0,32(s1)
0x800090fa:  6388              ld                      a0,0(a5)
0x800090fc:  00068733          add                     a4,a3,zero
0x80009100:  30551573          csrrw                   a0,mtvec,a0

----------------
IN: 
Priv: 3; Virt: 0
0x80009104:  b1002873          csrrs                   a6,mhpmcounter16,zero

----------------
IN: 
Priv: 3; Virt: 0
0x80009108:  30551073          csrrw                   zero,mtvec,a0

----------------
IN: 
Priv: 3; Virt: 0
0x8000910c:  f8843683          ld                      a3,-120(s0)
0x80009110:  a2069ee3          bnez                    a3,-1476                # 0x80008b4c

----------------
IN: 
Priv: 3; Virt: 0
0x80009114:  6388              ld                      a0,0(a5)
0x80009116:  86b2              mv                      a3,a2
0x80009118:  00068733          add                     a4,a3,zero
0x8000911c:  30551573          csrrw                   a0,mtvec,a0

----------------
IN: 
Priv: 3; Virt: 0
0x80009120:  b1059073          csrrw                   zero,mhpmcounter16,a1

----------------
IN: 
Priv: 3; Virt: 0
0x80009124:  30551073          csrrw                   zero,mtvec,a0

----------------
IN: 
Priv: 3; Virt: 0
0x80009128:  f8843683          ld                      a3,-120(s0)
0x8000912c:  a20690e3          bnez                    a3,-1504                # 0x80008b4c

----------------
IN: 
Priv: 3; Virt: 0
0x80009130:  b1081873          csrrw                   a6,mhpmcounter16,a6

----------------
IN: 
Priv: 3; Virt: 0
0x80009134:  a0b81ce3          bne                     a6,a1,-1512             # 0x80008b4c

----------------
IN: 
Priv: 3; Virt: 0
0x80009138:  508c              lw                      a1,32(s1)
0x8000913a:  86b2              mv                      a3,a2
0x8000913c:  f8043423          sd                      zero,-120(s0)
0x80009140:  2585              addiw                   a1,a1,1
0x80009142:  d08c              sw                      a1,32(s1)
0x80009144:  638c              ld                      a1,0(a5)
0x80009146:  00068733          add                     a4,a3,zero
0x8000914a:  305595f3          csrrw                   a1,mtvec,a1

----------------
IN: 
Priv: 3; Virt: 0
0x8000914e:  b1102573          csrrs                   a0,mhpmcounter17,zero

----------------
IN: 
Priv: 3; Virt: 0
0x80009152:  30559073          csrrw                   zero,mtvec,a1

----------------
IN: 
Priv: 3; Virt: 0
0x80009156:  f8843683          ld                      a3,-120(s0)
0x8000915a:  9e0699e3          bnez                    a3,-1550                # 0x80008b4c

----------------
IN: 
Priv: 3; Virt: 0
0x8000915e:  638c              ld                      a1,0(a5)
0x80009160:  86b2              mv                      a3,a2
0x80009162:  f8043423          sd                      zero,-120(s0)
0x80009166:  4805              addi                    a6,zero,1
0x80009168:  00068733          add                     a4,a3,zero
0x8000916c:  305595f3          csrrw                   a1,mtvec,a1

----------------
IN: 
Priv: 3; Virt: 0
0x80009170:  b1181073          csrrw                   zero,mhpmcounter17,a6

----------------
IN: 
Priv: 3; Virt: 0
0x80009174:  30559073          csrrw                   zero,mtvec,a1

----------------
IN: 
Priv: 3; Virt: 0
0x80009178:  f8843683          ld                      a3,-120(s0)
0x8000917c:  9c0698e3          bnez                    a3,-1584                # 0x80008b4c

----------------
IN: 
Priv: 3; Virt: 0
0x80009180:  b1151573          csrrw                   a0,mhpmcounter17,a0

----------------
IN: 
Priv: 3; Virt: 0
0x80009184:  9d0514e3          bne                     a0,a6,-1592             # 0x80008b4c

----------------
IN: 
Priv: 3; Virt: 0
0x80009188:  508c              lw                      a1,32(s1)
0x8000918a:  0007b803          ld                      a6,0(a5)
0x8000918e:  86b2              mv                      a3,a2
0x80009190:  2585              addiw                   a1,a1,1
0x80009192:  d08c              sw                      a1,32(s1)
0x80009194:  f8043423          sd                      zero,-120(s0)
0x80009198:  00068733          add                     a4,a3,zero
0x8000919c:  30581873          csrrw                   a6,mtvec,a6

----------------
IN: 
Priv: 3; Virt: 0
0x800091a0:  b12025f3          csrrs                   a1,mhpmcounter18,zero

----------------
IN: 
Priv: 3; Virt: 0
0x800091a4:  30581073          csrrw                   zero,mtvec,a6

----------------
IN: 
Priv: 3; Virt: 0
0x800091a8:  f8843683          ld                      a3,-120(s0)
0x800091ac:  9a0690e3          bnez                    a3,-1632                # 0x80008b4c

----------------
IN: 
Priv: 3; Virt: 0
0x800091b0:  0007b803          ld                      a6,0(a5)
0x800091b4:  86b2              mv                      a3,a2
0x800091b6:  00068733          add                     a4,a3,zero
0x800091ba:  30581873          csrrw                   a6,mtvec,a6

----------------
IN: 
Priv: 3; Virt: 0
0x800091be:  b1251073          csrrw                   zero,mhpmcounter18,a0

----------------
IN: 
Priv: 3; Virt: 0
0x800091c2:  30581073          csrrw                   zero,mtvec,a6

----------------
IN: 
Priv: 3; Virt: 0
0x800091c6:  f8843683          ld                      a3,-120(s0)
0x800091ca:  980691e3          bnez                    a3,-1662                # 0x80008b4c

----------------
IN: 
Priv: 3; Virt: 0
0x800091ce:  b12595f3          csrrw                   a1,mhpmcounter18,a1

----------------
IN: 
Priv: 3; Virt: 0
0x800091d2:  96a59de3          bne                     a1,a0,-1670             # 0x80008b4c

----------------
IN: 
Priv: 3; Virt: 0
0x800091d6:  5088              lw                      a0,32(s1)
0x800091d8:  86b2              mv                      a3,a2
0x800091da:  f8043423          sd                      zero,-120(s0)
0x800091de:  2505              addiw                   a0,a0,1
0x800091e0:  d088              sw                      a0,32(s1)
0x800091e2:  6388              ld                      a0,0(a5)
0x800091e4:  00068733          add                     a4,a3,zero
0x800091e8:  30551573          csrrw                   a0,mtvec,a0

----------------
IN: 
Priv: 3; Virt: 0
0x800091ec:  b1302873          csrrs                   a6,mhpmcounter19,zero

----------------
IN: 
Priv: 3; Virt: 0
0x800091f0:  30551073          csrrw                   zero,mtvec,a0

----------------
IN: 
Priv: 3; Virt: 0
0x800091f4:  f8843683          ld                      a3,-120(s0)
0x800091f8:  94069ae3          bnez                    a3,-1708                # 0x80008b4c

----------------
IN: 
Priv: 3; Virt: 0
0x80008b4c:  638c              ld                      a1,0(a5)
0x80008b4e:  86b2              mv                      a3,a2
0x80008b50:  f8043423          sd                      zero,-120(s0)
0x80008b54:  00068733          add                     a4,a3,zero
0x80008b58:  305595f3          csrrw                   a1,mtvec,a1

----------------
IN: 
Priv: 3; Virt: 0
0x80008b5c:  30602573          csrrs                   a0,mcounteren,zero

----------------
IN: 
Priv: 3; Virt: 0
0x80008b60:  30559073          csrrw                   zero,mtvec,a1

----------------
IN: 
Priv: 3; Virt: 0
0x80008b64:  f8843683          ld                      a3,-120(s0)
0x80008b68:  e299              bnez                    a3,6                    # 0x80008b6e

----------------
IN: 
Priv: 3; Virt: 0
0x80008b6a:  4685              addi                    a3,zero,1
0x80008b6c:  c0d4              sw                      a3,4(s1)
0x80008b6e:  638c              ld                      a1,0(a5)
0x80008b70:  86b2              mv                      a3,a2
0x80008b72:  f8043423          sd                      zero,-120(s0)
0x80008b76:  00068733          add                     a4,a3,zero
0x80008b7a:  305595f3          csrrw                   a1,mtvec,a1

----------------
IN: 
Priv: 3; Virt: 0
0x80008b7e:  32002573          csrrs                   a0,mucounteren,zero

----------------
IN: 
Priv: 3; Virt: 0
0x80008b82:  30559073          csrrw                   zero,mtvec,a1

----------------
IN: 
Priv: 3; Virt: 0
0x80008b86:  f8843683          ld                      a3,-120(s0)
0x80008b8a:  e691              bnez                    a3,12                   # 0x80008b96

----------------
IN: 
Priv: 3; Virt: 0
0x80008b8c:  40d4              lw                      a3,4(s1)
0x80008b8e:  00d05463          blez                    a3,8                    # 0x80008b96

----------------
IN: 
Priv: 3; Virt: 0
0x80008b92:  4689              addi                    a3,zero,2
0x80008b94:  c0d4              sw                      a3,4(s1)
0x80008b96:  638c              ld                      a1,0(a5)
0x80008b98:  86b2              mv                      a3,a2
0x80008b9a:  f8043423          sd                      zero,-120(s0)
0x80008b9e:  00068733          add                     a4,a3,zero
0x80008ba2:  305595f3          csrrw                   a1,mtvec,a1

----------------
IN: 
Priv: 3; Virt: 0
0x80008ba6:  30a02573          csrrs                   a0,0x30a,zero

----------------
IN: 
Priv: 3; Virt: 0
0x80008baa:  30559073          csrrw                   zero,mtvec,a1

----------------
IN: 
Priv: 3; Virt: 0
0x80008bae:  f8843683          ld                      a3,-120(s0)
0x80008bb2:  40cc              lw                      a1,4(s1)
0x80008bb4:  e2ed              bnez                    a3,226                  # 0x80008c96

----------------
IN: 
Priv: 3; Virt: 0
0x80008bb6:  4685              addi                    a3,zero,1
0x80008bb8:  02b6d363          ble                     a1,a3,38                # 0x80008bde

----------------
IN: 
Priv: 3; Virt: 0
0x80008bbc:  468d              addi                    a3,zero,3
0x80008bbe:  c0d4              sw                      a3,4(s1)
0x80008bc0:  638c              ld                      a1,0(a5)
0x80008bc2:  86b2              mv                      a3,a2
0x80008bc4:  f8043423          sd                      zero,-120(s0)
0x80008bc8:  00068733          add                     a4,a3,zero
0x80008bcc:  305595f3          csrrw                   a1,mtvec,a1

----------------
IN: 
Priv: 3; Virt: 0
0x80008bd0:  da002573          csrrs                   a0,0xda0,zero

----------------
IN: 
Priv: 3; Virt: 0
0x80008bd4:  30559073          csrrw                   zero,mtvec,a1

----------------
IN: 
Priv: 3; Virt: 0
0x80008bd8:  f8843683          ld                      a3,-120(s0)
0x80008bdc:  caf9              beqz                    a3,214                  # 0x80008cb2

----------------
IN: 
Priv: 3; Virt: 0
0x80008bde:  638c              ld                      a1,0(a5)
0x80008be0:  86b2              mv                      a3,a2
0x80008be2:  f8043423          sd                      zero,-120(s0)
0x80008be6:  00068733          add                     a4,a3,zero
0x80008bea:  305595f3          csrrw                   a1,mtvec,a1

----------------
IN: 
Priv: 3; Virt: 0
0x80008bee:  c0102573          rdtime                  a0

----------------
IN: 
Priv: 3; Virt: 0
0x80008bf2:  30559073          csrrw                   zero,mtvec,a1

----------------
IN: 
Priv: 3; Virt: 0
0x80008bf6:  f8843683          ld                      a3,-120(s0)
0x80008bfa:  e689              bnez                    a3,10                   # 0x80008c04

----------------
IN: 
Priv: 3; Virt: 0
0x80008bfc:  6494              ld                      a3,8(s1)
0x80008bfe:  0026e693          ori                     a3,a3,2
0x80008c02:  e494              sd                      a3,8(s1)
0x80008c04:  638c              ld                      a1,0(a5)
0x80008c06:  86b2              mv                      a3,a2
0x80008c08:  f8043423          sd                      zero,-120(s0)
0x80008c0c:  00068733          add                     a4,a3,zero
0x80008c10:  305595f3          csrrw                   a1,mtvec,a1

----------------
IN: 
Priv: 3; Virt: 0
0x80008c14:  fb002573          csrrs                   a0,0xfb0,zero

----------------
IN: 
Priv: 3; Virt: 0
0x80008c18:  30559073          csrrw                   zero,mtvec,a1

----------------
IN: 
Priv: 3; Virt: 0
0x80008c1c:  f8843683          ld                      a3,-120(s0)
0x80008c20:  e689              bnez                    a3,10                   # 0x80008c2a

----------------
IN: 
Priv: 3; Virt: 0
0x80008c2a:  40cc              lw                      a1,4(s1)
0x80008c2c:  4689              addi                    a3,zero,2
0x80008c2e:  04b6d463          ble                     a1,a3,72                # 0x80008c76

----------------
IN: 
Priv: 3; Virt: 0
0x80008c32:  638c              ld                      a1,0(a5)
0x80008c34:  86b2              mv                      a3,a2
0x80008c36:  f8043423          sd                      zero,-120(s0)
0x80008c3a:  00068733          add                     a4,a3,zero
0x80008c3e:  305595f3          csrrw                   a1,mtvec,a1

----------------
IN: 
Priv: 3; Virt: 0
0x80008c42:  14d02573          csrrs                   a0,0x14d,zero

----------------
IN: 
Priv: 3; Virt: 0
0x80008c46:  30559073          csrrw                   zero,mtvec,a1

----------------
IN: 
Priv: 3; Virt: 0
0x80008c4a:  f8843683          ld                      a3,-120(s0)
0x80008c4e:  cea9              beqz                    a3,90                   # 0x80008ca8

----------------
IN: 
Priv: 3; Virt: 0
0x80008ca8:  6494              ld                      a3,8(s1)
0x80008caa:  0106e693          ori                     a3,a3,16
0x80008cae:  e494              sd                      a3,8(s1)
0x80008cb0:  b745              j                       -96                     # 0x80008c50

----------------
IN: 
Priv: 3; Virt: 0
0x80008c50:  40cc              lw                      a1,4(s1)
0x80008c52:  4689              addi                    a3,zero,2
0x80008c54:  02b6d163          ble                     a1,a3,34                # 0x80008c76

----------------
IN: 
Priv: 3; Virt: 0
0x80008c58:  639c              ld                      a5,0(a5)
0x80008c5a:  86b2              mv                      a3,a2
0x80008c5c:  f8043423          sd                      zero,-120(s0)
0x80008c60:  00068733          add                     a4,a3,zero
0x80008c64:  305797f3          csrrw                   a5,mtvec,a5

----------------
IN: 
Priv: 3; Virt: 0
0x80008c68:  30c02673          csrrs                   a2,0x30c,zero

----------------
IN: 
Priv: 3; Virt: 0
0x80008c6c:  30579073          csrrw                   zero,mtvec,a5

----------------
IN: 
Priv: 3; Virt: 0
0x80008c70:  f8843783          ld                      a5,-120(s0)
0x80008c74:  c78d              beqz                    a5,42                   # 0x80008c9e

----------------
IN: 
Priv: 3; Virt: 0
0x80008c76:  340027f3          csrrs                   a5,mscratch,zero

----------------
IN: 
Priv: 3; Virt: 0
0x80008c7a:  7b9c              ld                      a5,48(a5)
0x80008c7c:  cb89              beqz                    a5,18                   # 0x80008c8e

----------------
IN: 
Priv: 3; Virt: 0
0x80008c7e:  6fbc              ld                      a5,88(a5)
0x80008c80:  7f9c              ld                      a5,56(a5)
0x80008c82:  c791              beqz                    a5,12                   # 0x80008c8e

----------------
IN: 
Priv: 3; Virt: 0
0x80008c8e:  4785              addi                    a5,zero,1
0x80008c90:  c09c              sw                      a5,0(s1)
0x80008c92:  a1ffe06f          j                       -5602                   # 0x800076b0

----------------
IN: 
Priv: 3; Virt: 0
0x800076b0:  854a              mv                      a0,s2
0x800076b2:  debff0ef          jal                     ra,-534                 # 0x8000749c

----------------
IN: 
Priv: 3; Virt: 0
0x8000749c:  7139              addi                    sp,sp,-64
0x8000749e:  f822              sd                      s0,48(sp)
0x800074a0:  f426              sd                      s1,40(sp)
0x800074a2:  f04a              sd                      s2,32(sp)
0x800074a4:  fc06              sd                      ra,56(sp)
0x800074a6:  ec4e              sd                      s3,24(sp)
0x800074a8:  e852              sd                      s4,16(sp)
0x800074aa:  e456              sd                      s5,8(sp)
0x800074ac:  e05a              sd                      s6,0(sp)
0x800074ae:  0080              addi                    s0,sp,64
0x800074b0:  00022917          auipc                   s2,34                   # 0x800294b0
0x800074b4:  ec890913          addi                    s2,s2,-312
0x800074b8:  00093783          ld                      a5,0(s2)
0x800074bc:  84aa              mv                      s1,a0
0x800074be:  97aa              add                     a5,a5,a0
0x800074c0:  04400513          addi                    a0,zero,68
0x800074c4:  0207aa83          lw                      s5,32(a5)
0x800074c8:  f38fc0ef          jal                     ra,-14536               # 0x80003c00

----------------
IN: 
Priv: 3; Virt: 0
0x800074cc:  12050963          beqz                    a0,306                  # 0x800075fe

----------------
IN: 
Priv: 3; Virt: 0
0x800074d0:  6999              lui                     s3,6
0x800074d2:  05600513          addi                    a0,zero,86
0x800074d6:  f2afc0ef          jal                     ra,-14550               # 0x80003c00

----------------
IN: 
Priv: 3; Virt: 0
0x800074da:  c119              beqz                    a0,6                    # 0x800074e0

----------------
IN: 
Priv: 3; Virt: 0
0x800074e0:  30099073          csrrw                   zero,mstatus,s3

----------------
IN: 
Priv: 3; Virt: 0
0x800074e4:  05300513          addi                    a0,zero,83
0x800074e8:  f18fc0ef          jal                     ra,-14568               # 0x80003c00

----------------
IN: 
Priv: 3; Virt: 0
0x80003c00:  301027f3          csrrs                   a5,misa,zero

----------------
IN: 
Priv: 3; Virt: 0
0x80003c04:  c785              beqz                    a5,40                   # 0x80003c2c

----------------
IN: 
Priv: 3; Virt: 0
0x80003c06:  fbf5061b          addiw                   a2,a0,-65
0x80003c0a:  0ff67593          andi                    a1,a2,255
0x80003c0e:  46e5              addi                    a3,zero,25
0x80003c10:  04b6f063          bleu                    a1,a3,64                # 0x80003c50

----------------
IN: 
Priv: 3; Virt: 0
0x80003c50:  4505              addi                    a0,zero,1
0x80003c52:  00c5153b          sllw                    a0,a0,a2
0x80003c56:  8d7d              and                     a0,a0,a5
0x80003c58:  2501              sext.w                  a0,a0
0x80003c5a:  8082              ret                     

----------------
IN: 
Priv: 3; Virt: 0
0x800074ec:  c909              beqz                    a0,18                   # 0x800074fe

----------------
IN: 
Priv: 3; Virt: 0
0x800074ee:  00093783          ld                      a5,0(s2)
0x800074f2:  97a6              add                     a5,a5,s1
0x800074f4:  43dc              lw                      a5,4(a5)
0x800074f6:  02f05863          blez                    a5,48                   # 0x80007526

----------------
IN: 
Priv: 3; Virt: 0
0x800074fa:  1063d073          csrrwi                  zero,scounteren,7

----------------
IN: 
Priv: 3; Virt: 0
0x800074fe:  00093783          ld                      a5,0(s2)
0x80007502:  97a6              add                     a5,a5,s1
0x80007504:  43dc              lw                      a5,4(a5)
0x80007506:  02f05063          blez                    a5,32                   # 0x80007526

----------------
IN: 
Priv: 3; Virt: 0
0x8000750a:  57fd              addi                    a5,zero,-1
0x8000750c:  30679073          csrrw                   zero,mcounteren,a5

----------------
IN: 
Priv: 3; Virt: 0
0x80007510:  00093703          ld                      a4,0(s2)
0x80007514:  4785              addi                    a5,zero,1
0x80007516:  9726              add                     a4,a4,s1
0x80007518:  4358              lw                      a4,4(a4)
0x8000751a:  00e7d663          ble                     a4,a5,12                # 0x80007526

----------------
IN: 
Priv: 3; Virt: 0
0x8000751e:  1782              slli                    a5,a5,32
0x80007520:  17e1              addi                    a5,a5,-8
0x80007522:  32079073          csrrw                   zero,mucounteren,a5

----------------
IN: 
Priv: 3; Virt: 0
0x80007526:  5a7d              addi                    s4,zero,-1
0x80007528:  323a8b1b          addiw                   s6,s5,803
0x8000752c:  32300993          addi                    s3,zero,803
0x80007530:  1a7a              slli                    s4,s4,62
0x80007532:  000a8963          beqz                    s5,18                   # 0x80007544

----------------
IN: 
Priv: 3; Virt: 0
0x80007536:  854e              mv                      a0,s3
0x80007538:  85d2              mv                      a1,s4
0x8000753a:  2985              addiw                   s3,s3,1
0x8000753c:  c49fc0ef          jal                     ra,-13240               # 0x80004184

----------------
IN: 
Priv: 3; Virt: 0
0x80004184:  3ef00793          addi                    a5,zero,1007
0x80004188:  02a7c963          bgt                     a0,a5,50                # 0x800041ba

----------------
IN: 
Priv: 3; Virt: 0
0x8000418c:  31f00793          addi                    a5,zero,799
0x80004190:  3aa7d063          ble                     a0,a5,928               # 0x80004530

----------------
IN: 
Priv: 3; Virt: 0
0x80004194:  ce05079b          addiw                   a5,a0,-800
0x80004198:  0007869b          sext.w                  a3,a5
0x8000419c:  0cf00713          addi                    a4,zero,207
0x800041a0:  38d76863          bgtu                    a3,a4,912               # 0x80004530

----------------
IN: 
Priv: 3; Virt: 0
0x800041a4:  1782              slli                    a5,a5,32
0x800041a6:  9381              srli                    a5,a5,32
0x800041a8:  00012717          auipc                   a4,18                   # 0x800161a8
0x800041ac:  bf070713          addi                    a4,a4,-1040
0x800041b0:  078a              slli                    a5,a5,2
0x800041b2:  97ba              add                     a5,a5,a4
0x800041b4:  439c              lw                      a5,0(a5)
0x800041b6:  97ba              add                     a5,a5,a4
0x800041b8:  8782              jr                      a5

----------------
IN: 
Priv: 3; Virt: 0
0x80004524:  32359073          csrrw                   zero,mhpmevent3,a1

----------------
IN: 
Priv: 3; Virt: 0
0x80004528:  8082              ret                     

----------------
IN: 
Priv: 3; Virt: 0
0x80007540:  ff3b1be3          bne                     s6,s3,-10               # 0x80007536

----------------
IN: 
Priv: 3; Virt: 0
0x8000451e:  32459073          csrrw                   zero,mhpmevent4,a1

----------------
IN: 
Priv: 3; Virt: 0
0x80004522:  8082              ret                     

----------------
IN: 
Priv: 3; Virt: 0
0x80004518:  32559073          csrrw                   zero,mhpmevent5,a1

----------------
IN: 
Priv: 3; Virt: 0
0x8000451c:  8082              ret                     

----------------
IN: 
Priv: 3; Virt: 0
0x80004512:  32659073          csrrw                   zero,mhpmevent6,a1

----------------
IN: 
Priv: 3; Virt: 0
0x80004516:  8082              ret                     

----------------
IN: 
Priv: 3; Virt: 0
0x8000450c:  32759073          csrrw                   zero,mhpmevent7,a1

----------------
IN: 
Priv: 3; Virt: 0
0x80004510:  8082              ret                     

----------------
IN: 
Priv: 3; Virt: 0
0x80004506:  32859073          csrrw                   zero,mhpmevent8,a1

----------------
IN: 
Priv: 3; Virt: 0
0x8000450a:  8082              ret                     

----------------
IN: 
Priv: 3; Virt: 0
0x80004500:  32959073          csrrw                   zero,mhpmevent9,a1

----------------
IN: 
Priv: 3; Virt: 0
0x80004504:  8082              ret                     

----------------
IN: 
Priv: 3; Virt: 0
0x800044fa:  32a59073          csrrw                   zero,mhpmevent10,a1

----------------
IN: 
Priv: 3; Virt: 0
0x800044fe:  8082              ret                     

----------------
IN: 
Priv: 3; Virt: 0
0x800044f4:  32b59073          csrrw                   zero,mhpmevent11,a1

----------------
IN: 
Priv: 3; Virt: 0
0x800044f8:  8082              ret                     

----------------
IN: 
Priv: 3; Virt: 0
0x800044ee:  32c59073          csrrw                   zero,mhpmevent12,a1

----------------
IN: 
Priv: 3; Virt: 0
0x800044f2:  8082              ret                     

----------------
IN: 
Priv: 3; Virt: 0
0x800044e8:  32d59073          csrrw                   zero,mhpmevent13,a1

----------------
IN: 
Priv: 3; Virt: 0
0x800044ec:  8082              ret                     

----------------
IN: 
Priv: 3; Virt: 0
0x800044e2:  32e59073          csrrw                   zero,mhpmevent14,a1

----------------
IN: 
Priv: 3; Virt: 0
0x800044e6:  8082              ret                     

----------------
IN: 
Priv: 3; Virt: 0
0x800044dc:  32f59073          csrrw                   zero,mhpmevent15,a1

----------------
IN: 
Priv: 3; Virt: 0
0x800044e0:  8082              ret                     

----------------
IN: 
Priv: 3; Virt: 0
0x800044d6:  33059073          csrrw                   zero,mhpmevent16,a1

----------------
IN: 
Priv: 3; Virt: 0
0x800044da:  8082              ret                     

----------------
IN: 
Priv: 3; Virt: 0
0x800044d0:  33159073          csrrw                   zero,mhpmevent17,a1

----------------
IN: 
Priv: 3; Virt: 0
0x800044d4:  8082              ret                     

----------------
IN: 
Priv: 3; Virt: 0
0x800044ca:  33259073          csrrw                   zero,mhpmevent18,a1

----------------
IN: 
Priv: 3; Virt: 0
0x800044ce:  8082              ret                     

----------------
IN: 
Priv: 3; Virt: 0
0x80007544:  00093783          ld                      a5,0(s2)
0x80007548:  97a6              add                     a5,a5,s1
0x8000754a:  6798              ld                      a4,8(a5)
0x8000754c:  830d              srli                    a4,a4,3
0x8000754e:  8b05              andi                    a4,a4,1
0x80007550:  c315              beqz                    a4,36                   # 0x80007574

----------------
IN: 
Priv: 3; Virt: 0
0x80007574:  43d8              lw                      a4,4(a5)
0x80007576:  4789              addi                    a5,zero,2
0x80007578:  02e7d263          ble                     a4,a5,36                # 0x8000759c

----------------
IN: 
Priv: 3; Virt: 0
0x8000757c:  30a02773          csrrs                   a4,0x30a,zero

----------------
IN: 
Priv: 3; Virt: 0
0x80007580:  00093783          ld                      a5,0(s2)
0x80007584:  97a6              add                     a5,a5,s1
0x80007586:  679c              ld                      a5,8(a5)
0x80007588:  8391              srli                    a5,a5,4
0x8000758a:  8b85              andi                    a5,a5,1
0x8000758c:  cbc9              beqz                    a5,146                  # 0x8000761e

----------------
IN: 
Priv: 3; Virt: 0
0x8000758e:  57fd              addi                    a5,zero,-1
0x80007590:  17fa              slli                    a5,a5,62
0x80007592:  0f078793          addi                    a5,a5,240
0x80007596:  8fd9              or                      a5,a5,a4
0x80007598:  30a79073          csrrw                   zero,0x30a,a5

----------------
IN: 
Priv: 3; Virt: 0
0x8000759c:  30405073          csrrwi                  zero,mie,0

----------------
IN: 
Priv: 3; Virt: 0
0x800075a0:  05300513          addi                    a0,zero,83
0x800075a4:  e5cfc0ef          jal                     ra,-14756               # 0x80003c00

----------------
IN: 
Priv: 3; Virt: 0
0x800075a8:  c119              beqz                    a0,6                    # 0x800075ae

----------------
IN: 
Priv: 3; Virt: 0
0x800075aa:  18005073          csrrwi                  zero,satp,0

----------------
IN: 
Priv: 3; Virt: 0
0x800075ae:  04400513          addi                    a0,zero,68
0x800075b2:  e4efc0ef          jal                     ra,-14770               # 0x80003c00

----------------
IN: 
Priv: 3; Virt: 0
0x800075b6:  c955              beqz                    a0,180                  # 0x8000766a

----------------
IN: 
Priv: 3; Virt: 0
0x800075b8:  300027f3          csrrs                   a5,mstatus,zero

----------------
IN: 
Priv: 3; Virt: 0
0x800075bc:  6719              lui                     a4,6
0x800075be:  8ff9              and                     a5,a5,a4
0x800075c0:  cbdd              beqz                    a5,182                  # 0x80007676

----------------
IN: 
Priv: 3; Virt: 0
0x800075c2:  4781              mv                      a5,zero
0x800075c4:  10000713          addi                    a4,zero,256
0x800075c8:  4501              mv                      a0,zero
0x800075ca:  0000b697          auipc                   a3,11                   # 0x800125ca
0x800075ce:  96be              add                     a3,a3,a5
0x800075d0:  d96682e7          jalr                    t0,a3,-618

----------------
IN: 
Priv: 3; Virt: 0
0x80012360:  f0050053          fmv.s.x                 ft0,a0
0x80012364:  00028067          jr                      t0

----------------
IN: 
Priv: 3; Virt: 0
0x800075d4:  07a1              addi                    a5,a5,8
0x800075d6:  fee799e3          bne                     a5,a4,-14               # 0x800075c8

----------------
IN: 
Priv: 3; Virt: 0
0x800075c8:  4501              mv                      a0,zero
0x800075ca:  0000b697          auipc                   a3,11                   # 0x800125ca
0x800075ce:  96be              add                     a3,a3,a5
0x800075d0:  d96682e7          jalr                    t0,a3,-618

----------------
IN: 
Priv: 3; Virt: 0
0x80012368:  f00500d3          fmv.s.x                 ft1,a0
0x8001236c:  00028067          jr                      t0

----------------
IN: 
Priv: 3; Virt: 0
0x80012370:  f0050153          fmv.s.x                 ft2,a0
0x80012374:  00028067          jr                      t0

----------------
IN: 
Priv: 3; Virt: 0
0x80012378:  f00501d3          fmv.s.x                 ft3,a0
0x8001237c:  00028067          jr                      t0

----------------
IN: 
Priv: 3; Virt: 0
0x80012380:  f0050253          fmv.s.x                 ft4,a0
0x80012384:  00028067          jr                      t0

----------------
IN: 
Priv: 3; Virt: 0
0x80012388:  f00502d3          fmv.s.x                 ft5,a0
0x8001238c:  00028067          jr                      t0

----------------
IN: 
Priv: 3; Virt: 0
0x80012390:  f0050353          fmv.s.x                 ft6,a0
0x80012394:  00028067          jr                      t0

----------------
IN: 
Priv: 3; Virt: 0
0x80012398:  f00503d3          fmv.s.x                 ft7,a0
0x8001239c:  00028067          jr                      t0

----------------
IN: 
Priv: 3; Virt: 0
0x800123a0:  f0050453          fmv.s.x                 fs0,a0
0x800123a4:  00028067          jr                      t0

----------------
IN: 
Priv: 3; Virt: 0
0x800123a8:  f00504d3          fmv.s.x                 fs1,a0
0x800123ac:  00028067          jr                      t0

----------------
IN: 
Priv: 3; Virt: 0
0x800123b0:  f0050553          fmv.s.x                 fa0,a0
0x800123b4:  00028067          jr                      t0

----------------
IN: 
Priv: 3; Virt: 0
0x800123b8:  f00505d3          fmv.s.x                 fa1,a0
0x800123bc:  00028067          jr                      t0

----------------
IN: 
Priv: 3; Virt: 0
0x800123c0:  f0050653          fmv.s.x                 fa2,a0
0x800123c4:  00028067          jr                      t0

----------------
IN: 
Priv: 3; Virt: 0
0x800123c8:  f00506d3          fmv.s.x                 fa3,a0
0x800123cc:  00028067          jr                      t0

----------------
IN: 
Priv: 3; Virt: 0
0x800123d0:  f0050753          fmv.s.x                 fa4,a0
0x800123d4:  00028067          jr                      t0

----------------
IN: 
Priv: 3; Virt: 0
0x800123d8:  f00507d3          fmv.s.x                 fa5,a0
0x800123dc:  00028067          jr                      t0

----------------
IN: 
Priv: 3; Virt: 0
0x800123e0:  f0050853          fmv.s.x                 fa6,a0
0x800123e4:  00028067          jr                      t0

----------------
IN: 
Priv: 3; Virt: 0
0x800123e8:  f00508d3          fmv.s.x                 fa7,a0
0x800123ec:  00028067          jr                      t0

----------------
IN: 
Priv: 3; Virt: 0
0x800123f0:  f0050953          fmv.s.x                 fs2,a0
0x800123f4:  00028067          jr                      t0

----------------
IN: 
Priv: 3; Virt: 0
0x800123f8:  f00509d3          fmv.s.x                 fs3,a0
0x800123fc:  00028067          jr                      t0

----------------
IN: 
Priv: 3; Virt: 0
0x80012400:  f0050a53          fmv.s.x                 fs4,a0
0x80012404:  00028067          jr                      t0

----------------
IN: 
Priv: 3; Virt: 0
0x80012408:  f0050ad3          fmv.s.x                 fs5,a0
0x8001240c:  00028067          jr                      t0

----------------
IN: 
Priv: 3; Virt: 0
0x80012410:  f0050b53          fmv.s.x                 fs6,a0
0x80012414:  00028067          jr                      t0

----------------
IN: 
Priv: 3; Virt: 0
0x80012418:  f0050bd3          fmv.s.x                 fs7,a0
0x8001241c:  00028067          jr                      t0

----------------
IN: 
Priv: 3; Virt: 0
0x80012420:  f0050c53          fmv.s.x                 fs8,a0
0x80012424:  00028067          jr                      t0

----------------
IN: 
Priv: 3; Virt: 0
0x80012428:  f0050cd3          fmv.s.x                 fs9,a0
0x8001242c:  00028067          jr                      t0

----------------
IN: 
Priv: 3; Virt: 0
0x80012430:  f0050d53          fmv.s.x                 fs10,a0
0x80012434:  00028067          jr                      t0

----------------
IN: 
Priv: 3; Virt: 0
0x80012438:  f0050dd3          fmv.s.x                 fs11,a0
0x8001243c:  00028067          jr                      t0

----------------
IN: 
Priv: 3; Virt: 0
0x80012440:  f0050e53          fmv.s.x                 ft8,a0
0x80012444:  00028067          jr                      t0

----------------
IN: 
Priv: 3; Virt: 0
0x80012448:  f0050ed3          fmv.s.x                 ft9,a0
0x8001244c:  00028067          jr                      t0

----------------
IN: 
Priv: 3; Virt: 0
0x80012450:  f0050f53          fmv.s.x                 ft10,a0
0x80012454:  00028067          jr                      t0

----------------
IN: 
Priv: 3; Virt: 0
0x80012458:  f0050fd3          fmv.s.x                 ft11,a0
0x8001245c:  00028067          jr                      t0

----------------
IN: 
Priv: 3; Virt: 0
0x800075da:  00305073          csrrwi                  zero,fcsr,0

----------------
IN: 
Priv: 3; Virt: 0
0x800075de:  05300513          addi                    a0,zero,83
0x800075e2:  7884              ld                      s1,48(s1)
0x800075e4:  e1cfc0ef          jal                     ra,-14820               # 0x80003c00

----------------
IN: 
Priv: 3; Virt: 0
0x800075e8:  e139              bnez                    a0,70                   # 0x8000762e

----------------
IN: 
Priv: 3; Virt: 0
0x8000762e:  8fcfa0ef          jal                     ra,-24324               # 0x8000172a

----------------
IN: 
Priv: 3; Virt: 0
0x8000172a:  1141              addi                    sp,sp,-16
0x8000172c:  e022              sd                      s0,0(sp)
0x8000172e:  e406              sd                      ra,8(sp)
0x80001730:  0800              addi                    s0,sp,16
0x80001732:  34002573          csrrs                   a0,mscratch,zero

----------------
IN: 
Priv: 3; Virt: 0
0x80001736:  4581              mv                      a1,zero
0x80001738:  431050ef          jal                     ra,23600                # 0x80007368

----------------
IN: 
Priv: 3; Virt: 0
0x80007368:  1141              addi                    sp,sp,-16
0x8000736a:  e422              sd                      s0,8(sp)
0x8000736c:  0800              addi                    s0,sp,16
0x8000736e:  00022797          auipc                   a5,34                   # 0x8002936e
0x80007372:  00a7b783          ld                      a5,10(a5)
0x80007376:  953e              add                     a0,a0,a5
0x80007378:  6508              ld                      a0,8(a0)
0x8000737a:  6422              ld                      s0,8(sp)
0x8000737c:  00b55533          srl                     a0,a0,a1
0x80007380:  8905              andi                    a0,a0,1
0x80007382:  0141              addi                    sp,sp,16
0x80007384:  8082              ret                     

----------------
IN: 
Priv: 3; Virt: 0
0x8000173c:  ed09              bnez                    a0,26                   # 0x80001756

----------------
IN: 
Priv: 3; Virt: 0
0x8000173e:  0001b797          auipc                   a5,27                   # 0x8001c73e
0x80001742:  b0a7b783          ld                      a5,-1270(a5)
0x80001746:  c781              beqz                    a5,8                    # 0x8000174e

----------------
IN: 
Priv: 3; Virt: 0
0x8000174e:  60a2              ld                      ra,8(sp)
0x80001750:  6402              ld                      s0,0(sp)
0x80001752:  0141              addi                    sp,sp,16
0x80001754:  8082              ret                     

----------------
IN: 
Priv: 3; Virt: 0
0x80007632:  64bc              ld                      a5,72(s1)
0x80007634:  22256493          ori                     s1,a0,546
0x80007638:  2481              sext.w                  s1,s1
0x8000763a:  8b89              andi                    a5,a5,2
0x8000763c:  10900913          addi                    s2,zero,265
0x80007640:  c781              beqz                    a5,8                    # 0x80007648

----------------
IN: 
Priv: 3; Virt: 0
0x80007642:  692d              lui                     s2,11
0x80007644:  10990913          addi                    s2,s2,265
0x80007648:  04800513          addi                    a0,zero,72
0x8000764c:  db4fc0ef          jal                     ra,-14924               # 0x80003c00

----------------
IN: 
Priv: 3; Virt: 0
0x80007650:  c519              beqz                    a0,14                   # 0x8000765e

----------------
IN: 
Priv: 3; Virt: 0
0x80007652:  00f007b7          lui                     a5,3840
0x80007656:  40078793          addi                    a5,a5,1024
0x8000765a:  00f96933          or                      s2,s2,a5
0x8000765e:  30349073          csrrw                   zero,mideleg,s1

----------------
IN: 
Priv: 3; Virt: 0
0x80007662:  30291073          csrrw                   zero,medeleg,s2

----------------
IN: 
Priv: 3; Virt: 0
0x80007666:  4501              mv                      a0,zero
0x80007668:  b749              j                       -126                    # 0x800075ea

----------------
IN: 
Priv: 3; Virt: 0
0x800075ea:  70e2              ld                      ra,56(sp)
0x800075ec:  7442              ld                      s0,48(sp)
0x800075ee:  74a2              ld                      s1,40(sp)
0x800075f0:  7902              ld                      s2,32(sp)
0x800075f2:  69e2              ld                      s3,24(sp)
0x800075f4:  6a42              ld                      s4,16(sp)
0x800075f6:  6aa2              ld                      s5,8(sp)
0x800075f8:  6b02              ld                      s6,0(sp)
0x800075fa:  6121              addi                    sp,sp,64
0x800075fc:  8082              ret                     

----------------
IN: 
Priv: 3; Virt: 0
0x800076b6:  70e6              ld                      ra,120(sp)
0x800076b8:  7446              ld                      s0,112(sp)
0x800076ba:  74a6              ld                      s1,104(sp)
0x800076bc:  7906              ld                      s2,96(sp)
0x800076be:  6109              addi                    sp,sp,128
0x800076c0:  8082              ret                     

----------------
IN: 
Priv: 3; Virt: 0
0x8000068c:  f151              bnez                    a0,-124                 # 0x80000610

----------------
IN: 
Priv: 3; Virt: 0
0x8000068e:  8526              mv                      a0,s1
0x80000690:  0fb050ef          jal                     ra,22778                # 0x80005f8a

----------------
IN: 
Priv: 3; Virt: 0
0x80005f8a:  791c              ld                      a5,48(a0)
0x80005f8c:  cf99              beqz                    a5,30                   # 0x80005faa

----------------
IN: 
Priv: 3; Virt: 0
0x80005f8e:  6fbc              ld                      a5,88(a5)
0x80005f90:  4501              mv                      a0,zero
0x80005f92:  6fbc              ld                      a5,88(a5)
0x80005f94:  cb91              beqz                    a5,20                   # 0x80005fa8

----------------
IN: 
Priv: 3; Virt: 0
0x80005f96:  1141              addi                    sp,sp,-16
0x80005f98:  e022              sd                      s0,0(sp)
0x80005f9a:  e406              sd                      ra,8(sp)
0x80005f9c:  0800              addi                    s0,sp,16
0x80005f9e:  9782              jalr                    ra,a5,0

----------------
IN: 
Priv: 3; Virt: 0
0x8000ab40:  711d              addi                    sp,sp,-96
0x8000ab42:  e8a2              sd                      s0,80(sp)
0x8000ab44:  ec86              sd                      ra,88(sp)
0x8000ab46:  e4a6              sd                      s1,72(sp)
0x8000ab48:  e0ca              sd                      s2,64(sp)
0x8000ab4a:  fc4e              sd                      s3,56(sp)
0x8000ab4c:  f852              sd                      s4,48(sp)
0x8000ab4e:  f456              sd                      s5,40(sp)
0x8000ab50:  f05a              sd                      s6,32(sp)
0x8000ab52:  ec5e              sd                      s7,24(sp)
0x8000ab54:  e862              sd                      s8,16(sp)
0x8000ab56:  1080              addi                    s0,sp,96
0x8000ab58:  340027f3          csrrs                   a5,mscratch,zero

----------------
IN: 
Priv: 3; Virt: 0
0x8000ab5c:  6b84              ld                      s1,16(a5)
0x8000ab5e:  0000c597          auipc                   a1,12                   # 0x80016b5e
0x8000ab62:  ee258593          addi                    a1,a1,-286
0x8000ab66:  8526              mv                      a0,s1
0x8000ab68:  201020ef          jal                     ra,10752                # 0x8000d568

----------------
IN: 
Priv: 3; Virt: 0
0x8000d568:  1101              addi                    sp,sp,-32
0x8000d56a:  ec06              sd                      ra,24(sp)
0x8000d56c:  e822              sd                      s0,16(sp)
0x8000d56e:  e426              sd                      s1,8(sp)
0x8000d570:  e04a              sd                      s2,0(sp)
0x8000d572:  1000              addi                    s0,sp,32
0x8000d574:  892a              mv                      s2,a0
0x8000d576:  852e              mv                      a0,a1
0x8000d578:  84ae              mv                      s1,a1
0x8000d57a:  ffff40ef          jal                     ra,-45058               # 0x80002578

----------------
IN: 
Priv: 3; Virt: 0
0x80002578:  1141              addi                    sp,sp,-16
0x8000257a:  e422              sd                      s0,8(sp)
0x8000257c:  0800              addi                    s0,sp,16
0x8000257e:  00054783          lbu                     a5,0(a0)
0x80002582:  cf81              beqz                    a5,24                   # 0x8000259a

----------------
IN: 
Priv: 3; Virt: 0
0x80002584:  872a              mv                      a4,a0
0x80002586:  4501              mv                      a0,zero
0x80002588:  0505              addi                    a0,a0,1
0x8000258a:  00a707b3          add                     a5,a4,a0
0x8000258e:  0007c783          lbu                     a5,0(a5)
0x80002592:  fbfd              bnez                    a5,-10                  # 0x80002588

----------------
IN: 
Priv: 3; Virt: 0
0x80002588:  0505              addi                    a0,a0,1
0x8000258a:  00a707b3          add                     a5,a4,a0
0x8000258e:  0007c783          lbu                     a5,0(a5)
0x80002592:  fbfd              bnez                    a5,-10                  # 0x80002588

----------------
IN: 
Priv: 3; Virt: 0
0x80002594:  6422              ld                      s0,8(sp)
0x80002596:  0141              addi                    sp,sp,16
0x80002598:  8082              ret                     

----------------
IN: 
Priv: 3; Virt: 0
0x8000d57e:  0005061b          sext.w                  a2,a0
0x8000d582:  85a6              mv                      a1,s1
0x8000d584:  854a              mv                      a0,s2
0x8000d586:  f11ff0ef          jal                     ra,-240                 # 0x8000d496

----------------
IN: 
Priv: 3; Virt: 0
0x8000d496:  715d              addi                    sp,sp,-80
0x8000d498:  e0a2              sd                      s0,64(sp)
0x8000d49a:  fc26              sd                      s1,56(sp)
0x8000d49c:  f44e              sd                      s3,40(sp)
0x8000d49e:  f052              sd                      s4,32(sp)
0x8000d4a0:  ec56              sd                      s5,24(sp)
0x8000d4a2:  e486              sd                      ra,72(sp)
0x8000d4a4:  f84a              sd                      s2,48(sp)
0x8000d4a6:  e85a              sd                      s6,16(sp)
0x8000d4a8:  e45e              sd                      s7,8(sp)
0x8000d4aa:  0880              addi                    s0,sp,80
0x8000d4ac:  8aaa              mv                      s5,a0
0x8000d4ae:  84ae              mv                      s1,a1
0x8000d4b0:  89b2              mv                      s3,a2
0x8000d4b2:  c07fe0ef          jal                     ra,-5114                # 0x8000c0b8

----------------
IN: 
Priv: 3; Virt: 0
0x8000c0b8:  1141              addi                    sp,sp,-16
0x8000c0ba:  e422              sd                      s0,8(sp)
0x8000c0bc:  0800              addi                    s0,sp,16
0x8000c0be:  00454783          lbu                     a5,4(a0)
0x8000c0c2:  00554683          lbu                     a3,5(a0)
0x8000c0c6:  00754603          lbu                     a2,7(a0)
0x8000c0ca:  00654703          lbu                     a4,6(a0)
0x8000c0ce:  0187979b          slliw                   a5,a5,24
0x8000c0d2:  0106969b          slliw                   a3,a3,16
0x8000c0d6:  8fd5              or                      a5,a5,a3
0x8000c0d8:  0087171b          slliw                   a4,a4,8
0x8000c0dc:  8fd1              or                      a5,a5,a2
0x8000c0de:  8fd9              or                      a5,a5,a4
0x8000c0e0:  00757713          andi                    a4,a0,7
0x8000c0e4:  ef71              bnez                    a4,220                  # 0x8000c1c0

----------------
IN: 
Priv: 3; Virt: 0
0x8000c0e6:  00054703          lbu                     a4,0(a0)
0x8000c0ea:  00154603          lbu                     a2,1(a0)
0x8000c0ee:  00354583          lbu                     a1,3(a0)
0x8000c0f2:  00254683          lbu                     a3,2(a0)
0x8000c0f6:  0187171b          slliw                   a4,a4,24
0x8000c0fa:  0106161b          slliw                   a2,a2,16
0x8000c0fe:  8f51              or                      a4,a4,a2
0x8000c100:  0086969b          slliw                   a3,a3,8
0x8000c104:  8f4d              or                      a4,a4,a1
0x8000c106:  8f55              or                      a4,a4,a3
0x8000c108:  d00e06b7          lui                     a3,-196384
0x8000c10c:  2701              sext.w                  a4,a4
0x8000c10e:  eed68693          addi                    a3,a3,-275
0x8000c112:  2781              sext.w                  a5,a5
0x8000c114:  04d70663          beq                     a4,a3,76                # 0x8000c160

----------------
IN: 
Priv: 3; Virt: 0
0x8000c160:  01454703          lbu                     a4,20(a0)
0x8000c164:  01554603          lbu                     a2,21(a0)
0x8000c168:  01754583          lbu                     a1,23(a0)
0x8000c16c:  01654683          lbu                     a3,22(a0)
0x8000c170:  0187171b          slliw                   a4,a4,24
0x8000c174:  0106161b          slliw                   a2,a2,16
0x8000c178:  8f51              or                      a4,a4,a2
0x8000c17a:  0086969b          slliw                   a3,a3,8
0x8000c17e:  8f4d              or                      a4,a4,a1
0x8000c180:  8f55              or                      a4,a4,a3
0x8000c182:  2701              sext.w                  a4,a4
0x8000c184:  4685              addi                    a3,zero,1
0x8000c186:  02e6f763          bleu                    a4,a3,46                # 0x8000c1b4

----------------
IN: 
Priv: 3; Virt: 0
0x8000c18a:  01854703          lbu                     a4,24(a0)
0x8000c18e:  01954603          lbu                     a2,25(a0)
0x8000c192:  01b54583          lbu                     a1,27(a0)
0x8000c196:  01a54683          lbu                     a3,26(a0)
0x8000c19a:  0187171b          slliw                   a4,a4,24
0x8000c19e:  0106161b          slliw                   a2,a2,16
0x8000c1a2:  8f51              or                      a4,a4,a2
0x8000c1a4:  0086969b          slliw                   a3,a3,8
0x8000c1a8:  8f4d              or                      a4,a4,a1
0x8000c1aa:  8f55              or                      a4,a4,a3
0x8000c1ac:  2701              sext.w                  a4,a4
0x8000c1ae:  46c5              addi                    a3,zero,17
0x8000c1b0:  f8e6fde3          bleu                    a4,a3,-102              # 0x8000c14a

----------------
IN: 
Priv: 3; Virt: 0
0x8000c14a:  80000737          lui                     a4,-524288
0x8000c14e:  ffe74713          xori                    a4,a4,-2
0x8000c152:  06f76363          bgtu                    a5,a4,102               # 0x8000c1b8

----------------
IN: 
Priv: 3; Virt: 0
0x8000c156:  0007851b          sext.w                  a0,a5
0x8000c15a:  6422              ld                      s0,8(sp)
0x8000c15c:  0141              addi                    sp,sp,16
0x8000c15e:  8082              ret                     

----------------
IN: 
Priv: 3; Virt: 0
0x8000d4b6:  8a2a              mv                      s4,a0
0x8000d4b8:  06054063          bltz                    a0,96                   # 0x8000d518

----------------
IN: 
Priv: 3; Virt: 0
0x8000d4bc:  0004c703          lbu                     a4,0(s1)
0x8000d4c0:  02f00793          addi                    a5,zero,47
0x8000d4c4:  01348933          add                     s2,s1,s3
0x8000d4c8:  4a01              mv                      s4,zero
0x8000d4ca:  06f71363          bne                     a4,a5,102               # 0x8000d530

----------------
IN: 
Priv: 3; Virt: 0
0x8000d4ce:  02f00993          addi                    s3,zero,47
0x8000d4d2:  0124e663          bgtu                    s2,s1,12                # 0x8000d4de

----------------
IN: 
Priv: 3; Virt: 0
0x8000d4de:  0004c783          lbu                     a5,0(s1)
0x8000d4e2:  ff378be3          beq                     a5,s3,-10               # 0x8000d4d8

----------------
IN: 
Priv: 3; Virt: 0
0x8000d4d8:  0485              addi                    s1,s1,1
0x8000d4da:  02990f63          beq                     s2,s1,62                # 0x8000d518

----------------
IN: 
Priv: 3; Virt: 0
0x8000d4e6:  40990bb3          sub                     s7,s2,s1
0x8000d4ea:  865e              mv                      a2,s7
0x8000d4ec:  02f00593          addi                    a1,zero,47
0x8000d4f0:  8526              mv                      a0,s1
0x8000d4f2:  a54f50ef          jal                     ra,-44460               # 0x80002746

----------------
IN: 
Priv: 3; Virt: 0
0x80002746:  1141              addi                    sp,sp,-16
0x80002748:  e422              sd                      s0,8(sp)
0x8000274a:  0800              addi                    s0,sp,16
0x8000274c:  c20d              beqz                    a2,34                   # 0x8000276e

----------------
IN: 
Priv: 3; Virt: 0
0x8000274e:  87aa              mv                      a5,a0
0x80002750:  0ff5f593          andi                    a1,a1,255
0x80002754:  962a              add                     a2,a2,a0
0x80002756:  a019              j                       6                       # 0x8000275c

----------------
IN: 
Priv: 3; Virt: 0
0x8000275c:  0007c703          lbu                     a4,0(a5)
0x80002760:  853e              mv                      a0,a5
0x80002762:  0785              addi                    a5,a5,1
0x80002764:  feb71ae3          bne                     a4,a1,-12               # 0x80002758

----------------
IN: 
Priv: 3; Virt: 0
0x80002758:  00f60b63          beq                     a2,a5,22                # 0x8000276e

----------------
IN: 
Priv: 3; Virt: 0
0x8000276e:  6422              ld                      s0,8(sp)
0x80002770:  4501              mv                      a0,zero
0x80002772:  0141              addi                    sp,sp,16
0x80002774:  8082              ret                     

----------------
IN: 
Priv: 3; Virt: 0
0x8000d4f6:  8b2a              mv                      s6,a0
0x8000d4f8:  c525              beqz                    a0,104                  # 0x8000d560

----------------
IN: 
Priv: 3; Virt: 0
0x8000d560:  8b4a              mv                      s6,s2
0x8000d562:  bf71              j                       -100                    # 0x8000d4fe

----------------
IN: 
Priv: 3; Virt: 0
0x8000d4fe:  85d2              mv                      a1,s4
0x8000d500:  000b869b          sext.w                  a3,s7
0x8000d504:  8626              mv                      a2,s1
0x8000d506:  8556              mv                      a0,s5
0x8000d508:  943ff0ef          jal                     ra,-1726                # 0x8000ce4a

----------------
IN: 
Priv: 3; Virt: 0
0x8000ce4a:  711d              addi                    sp,sp,-96
0x8000ce4c:  e8a2              sd                      s0,80(sp)
0x8000ce4e:  e4a6              sd                      s1,72(sp)
0x8000ce50:  e0ca              sd                      s2,64(sp)
0x8000ce52:  fc4e              sd                      s3,56(sp)
0x8000ce54:  f05a              sd                      s6,32(sp)
0x8000ce56:  ec86              sd                      ra,88(sp)
0x8000ce58:  f852              sd                      s4,48(sp)
0x8000ce5a:  f456              sd                      s5,40(sp)
0x8000ce5c:  ec5e              sd                      s7,24(sp)
0x8000ce5e:  e862              sd                      s8,16(sp)
0x8000ce60:  1080              addi                    s0,sp,96
0x8000ce62:  892a              mv                      s2,a0
0x8000ce64:  84ae              mv                      s1,a1
0x8000ce66:  8b32              mv                      s6,a2
0x8000ce68:  89b6              mv                      s3,a3
0x8000ce6a:  a4eff0ef          jal                     ra,-3506                # 0x8000c0b8

----------------
IN: 
Priv: 3; Virt: 0
0x8000ce6e:  08054c63          bltz                    a0,152                  # 0x8000cf06

----------------
IN: 
Priv: 3; Virt: 0
0x8000ce72:  fa042423          sw                      zero,-88(s0)
0x8000ce76:  fa840a13          addi                    s4,s0,-88
0x8000ce7a:  4a85              addi                    s5,zero,1
0x8000ce7c:  fac40b93          addi                    s7,s0,-84
0x8000ce80:  0404c863          bltz                    s1,80                   # 0x8000ced0

----------------
IN: 
Priv: 3; Virt: 0
0x8000ce84:  85a6              mv                      a1,s1
0x8000ce86:  8652              mv                      a2,s4
0x8000ce88:  854a              mv                      a0,s2
0x8000ce8a:  863ff0ef          jal                     ra,-1950                # 0x8000c6ec

----------------
IN: 
Priv: 3; Virt: 0
0x8000c6ec:  711d              addi                    sp,sp,-96
0x8000c6ee:  e8a2              sd                      s0,80(sp)
0x8000c6f0:  e0ca              sd                      s2,64(sp)
0x8000c6f2:  fc4e              sd                      s3,56(sp)
0x8000c6f4:  1080              addi                    s0,sp,96
0x8000c6f6:  ec86              sd                      ra,88(sp)
0x8000c6f8:  e4a6              sd                      s1,72(sp)
0x8000c6fa:  f852              sd                      s4,48(sp)
0x8000c6fc:  f456              sd                      s5,40(sp)
0x8000c6fe:  f05a              sd                      s6,32(sp)
0x8000c700:  ec5e              sd                      s7,24(sp)
0x8000c702:  fa042623          sw                      zero,-84(s0)
0x8000c706:  89aa              mv                      s3,a0
0x8000c708:  8932              mv                      s2,a2
0x8000c70a:  0805dc63          bgez                    a1,152                  # 0x8000c7a2

----------------
IN: 
Priv: 3; Virt: 0
0x8000c7a2:  edfff0ef          jal                     ra,-290                 # 0x8000c680

----------------
IN: 
Priv: 3; Virt: 0
0x8000c680:  1101              addi                    sp,sp,-32
0x8000c682:  e822              sd                      s0,16(sp)
0x8000c684:  ec06              sd                      ra,24(sp)
0x8000c686:  1000              addi                    s0,sp,32
0x8000c688:  feb42623          sw                      a1,-20(s0)
0x8000c68c:  0205c363          bltz                    a1,38                   # 0x8000c6b2

----------------
IN: 
Priv: 3; Virt: 0
0x8000c690:  0035f793          andi                    a5,a1,3
0x8000c694:  ef99              bnez                    a5,30                   # 0x8000c6b2

----------------
IN: 
Priv: 3; Virt: 0
0x8000c696:  fec40613          addi                    a2,s0,-20
0x8000c69a:  eb3ff0ef          jal                     ra,-334                 # 0x8000c54c

----------------
IN: 
Priv: 3; Virt: 0
0x8000c54c:  7139              addi                    sp,sp,-64
0x8000c54e:  f822              sd                      s0,48(sp)
0x8000c550:  ec4e              sd                      s3,24(sp)
0x8000c552:  e852              sd                      s4,16(sp)
0x8000c554:  e456              sd                      s5,8(sp)
0x8000c556:  fc06              sd                      ra,56(sp)
0x8000c558:  f426              sd                      s1,40(sp)
0x8000c55a:  f04a              sd                      s2,32(sp)
0x8000c55c:  e05a              sd                      s6,0(sp)
0x8000c55e:  0080              addi                    s0,sp,64
0x8000c560:  57e1              addi                    a5,zero,-8
0x8000c562:  89b2              mv                      s3,a2
0x8000c564:  c21c              sw                      a5,0(a2)
0x8000c566:  4611              addi                    a2,zero,4
0x8000c568:  8a2a              mv                      s4,a0
0x8000c56a:  8aae              mv                      s5,a1
0x8000c56c:  ef5ff0ef          jal                     ra,-268                 # 0x8000c460

----------------
IN: 
Priv: 3; Virt: 0
0x8000c460:  1141              addi                    sp,sp,-16
0x8000c462:  e422              sd                      s0,8(sp)
0x8000c464:  0800              addi                    s0,sp,16
0x8000c466:  00954703          lbu                     a4,9(a0)
0x8000c46a:  00854803          lbu                     a6,8(a0)
0x8000c46e:  00b54783          lbu                     a5,11(a0)
0x8000c472:  00a54683          lbu                     a3,10(a0)
0x8000c476:  0188181b          slliw                   a6,a6,24
0x8000c47a:  0107171b          slliw                   a4,a4,16
0x8000c47e:  01076733          or                      a4,a4,a6
0x8000c482:  8f5d              or                      a4,a4,a5
0x8000c484:  0086969b          slliw                   a3,a3,8
0x8000c488:  00d767b3          or                      a5,a4,a3
0x8000c48c:  00b7883b          addw                    a6,a5,a1
0x8000c490:  0a05ca63          bltz                    a1,180                  # 0x8000c544

----------------
IN: 
Priv: 3; Virt: 0
0x8000c494:  0005831b          sext.w                  t1,a1
0x8000c498:  0a686663          bgtu                    t1,a6,172               # 0x8000c544

----------------
IN: 
Priv: 3; Virt: 0
0x8000c49c:  00c806bb          addw                    a3,a6,a2
0x8000c4a0:  0b06e263          bgtu                    a6,a3,164               # 0x8000c544

----------------
IN: 
Priv: 3; Virt: 0
0x8000c4a4:  00454703          lbu                     a4,4(a0)
0x8000c4a8:  00554883          lbu                     a7,5(a0)
0x8000c4ac:  00754e03          lbu                     t3,7(a0)
0x8000c4b0:  00654803          lbu                     a6,6(a0)
0x8000c4b4:  0187171b          slliw                   a4,a4,24
0x8000c4b8:  0108989b          slliw                   a7,a7,16
0x8000c4bc:  01176733          or                      a4,a4,a7
0x8000c4c0:  01c76733          or                      a4,a4,t3
0x8000c4c4:  0088181b          slliw                   a6,a6,8
0x8000c4c8:  01076733          or                      a4,a4,a6
0x8000c4cc:  2701              sext.w                  a4,a4
0x8000c4ce:  06d76b63          bgtu                    a3,a4,118               # 0x8000c544

----------------
IN: 
Priv: 3; Virt: 0
0x8000c4d2:  01454703          lbu                     a4,20(a0)
0x8000c4d6:  01554803          lbu                     a6,21(a0)
0x8000c4da:  01754883          lbu                     a7,23(a0)
0x8000c4de:  01654683          lbu                     a3,22(a0)
0x8000c4e2:  0187171b          slliw                   a4,a4,24
0x8000c4e6:  0108181b          slliw                   a6,a6,16
0x8000c4ea:  01076733          or                      a4,a4,a6
0x8000c4ee:  0086969b          slliw                   a3,a3,8
0x8000c4f2:  01176733          or                      a4,a4,a7
0x8000c4f6:  8f55              or                      a4,a4,a3
0x8000c4f8:  2701              sext.w                  a4,a4
0x8000c4fa:  46c1              addi                    a3,zero,16
0x8000c4fc:  2781              sext.w                  a5,a5
0x8000c4fe:  02e6fc63          bleu                    a4,a3,56                # 0x8000c536

----------------
IN: 
Priv: 3; Virt: 0
0x8000c502:  00c3063b          addw                    a2,t1,a2
0x8000c506:  02666f63          bgtu                    t1,a2,62                # 0x8000c544

----------------
IN: 
Priv: 3; Virt: 0
0x8000c50a:  02454703          lbu                     a4,36(a0)
0x8000c50e:  02554803          lbu                     a6,37(a0)
0x8000c512:  02754883          lbu                     a7,39(a0)
0x8000c516:  02654683          lbu                     a3,38(a0)
0x8000c51a:  0187171b          slliw                   a4,a4,24
0x8000c51e:  0108181b          slliw                   a6,a6,16
0x8000c522:  01076733          or                      a4,a4,a6
0x8000c526:  01176733          or                      a4,a4,a7
0x8000c52a:  0086969b          slliw                   a3,a3,8
0x8000c52e:  8f55              or                      a4,a4,a3
0x8000c530:  2701              sext.w                  a4,a4
0x8000c532:  00c76963          bgtu                    a2,a4,18                # 0x8000c544

----------------
IN: 
Priv: 3; Virt: 0
0x8000c536:  6422              ld                      s0,8(sp)
0x8000c538:  1782              slli                    a5,a5,32
0x8000c53a:  9381              srli                    a5,a5,32
0x8000c53c:  97ae              add                     a5,a5,a1
0x8000c53e:  953e              add                     a0,a0,a5
0x8000c540:  0141              addi                    sp,sp,16
0x8000c542:  8082              ret                     

----------------
IN: 
Priv: 3; Virt: 0
0x8000c570:  c13d              beqz                    a0,102                  # 0x8000c5d6

----------------
IN: 
Priv: 3; Virt: 0
0x8000c572:  411c              lw                      a5,0(a0)
0x8000c574:  5755              addi                    a4,zero,-11
0x8000c576:  00e9a023          sw                      a4,0(s3)
0x8000c57a:  0087d713          srli                    a4,a5,8
0x8000c57e:  0187949b          slliw                   s1,a5,24
0x8000c582:  0187d69b          srliw                   a3,a5,24
0x8000c586:  0ff77713          andi                    a4,a4,255
0x8000c58a:  83c1              srli                    a5,a5,16
0x8000c58c:  8cd5              or                      s1,s1,a3
0x8000c58e:  0107171b          slliw                   a4,a4,16
0x8000c592:  0ff7f793          andi                    a5,a5,255
0x8000c596:  0087979b          slliw                   a5,a5,8
0x8000c59a:  8cd9              or                      s1,s1,a4
0x8000c59c:  8cdd              or                      s1,s1,a5
0x8000c59e:  2481              sext.w                  s1,s1
0x8000c5a0:  47a5              addi                    a5,zero,9
0x8000c5a2:  000a8b1b          sext.w                  s6,s5
0x8000c5a6:  004a891b          addiw                   s2,s5,4
0x8000c5aa:  0297e663          bgtu                    s1,a5,44                # 0x8000c5d6

----------------
IN: 
Priv: 3; Virt: 0
0x8000c5ae:  0000a697          auipc                   a3,10                   # 0x800165ae
0x8000c5b2:  70668693          addi                    a3,a3,1798
0x8000c5b6:  00249713          slli                    a4,s1,2
0x8000c5ba:  9736              add                     a4,a4,a3
0x8000c5bc:  431c              lw                      a5,0(a4)
0x8000c5be:  97b6              add                     a5,a5,a3
0x8000c5c0:  8782              jr                      a5

----------------
IN: 
Priv: 3; Virt: 0
0x8000c5c8:  85ca              mv                      a1,s2
0x8000c5ca:  4605              addi                    a2,zero,1
0x8000c5cc:  8552              mv                      a0,s4
0x8000c5ce:  e93ff0ef          jal                     ra,-366                 # 0x8000c460

----------------
IN: 
Priv: 3; Virt: 0
0x8000c5d2:  2905              addiw                   s2,s2,1
0x8000c5d4:  f57d              bnez                    a0,-18                  # 0x8000c5c2

----------------
IN: 
Priv: 3; Virt: 0
0x8000c5c2:  00054783          lbu                     a5,0(a0)
0x8000c5c6:  c7d1              beqz                    a5,140                  # 0x8000c652

----------------
IN: 
Priv: 3; Virt: 0
0x8000c652:  4159063b          subw                    a2,s2,s5
0x8000c656:  85d6              mv                      a1,s5
0x8000c658:  8552              mv                      a0,s4
0x8000c65a:  e07ff0ef          jal                     ra,-506                 # 0x8000c460

----------------
IN: 
Priv: 3; Virt: 0
0x8000c65e:  dd25              beqz                    a0,-136                 # 0x8000c5d6

----------------
IN: 
Priv: 3; Virt: 0
0x8000c660:  290d              addiw                   s2,s2,3
0x8000c662:  ffc97913          andi                    s2,s2,-4
0x8000c666:  0129a023          sw                      s2,0(s3)
0x8000c66a:  70e2              ld                      ra,56(sp)
0x8000c66c:  7442              ld                      s0,48(sp)
0x8000c66e:  7902              ld                      s2,32(sp)
0x8000c670:  69e2              ld                      s3,24(sp)
0x8000c672:  6a42              ld                      s4,16(sp)
0x8000c674:  6aa2              ld                      s5,8(sp)
0x8000c676:  6b02              ld                      s6,0(sp)
0x8000c678:  8526              mv                      a0,s1
0x8000c67a:  74a2              ld                      s1,40(sp)
0x8000c67c:  6121              addi                    sp,sp,64
0x8000c67e:  8082              ret                     

----------------
IN: 
Priv: 3; Virt: 0
0x8000c69e:  2501              sext.w                  a0,a0
0x8000c6a0:  4785              addi                    a5,zero,1
0x8000c6a2:  00f51863          bne                     a0,a5,16                # 0x8000c6b2

----------------
IN: 
Priv: 3; Virt: 0
0x8000c6a6:  fec42503          lw                      a0,-20(s0)
0x8000c6aa:  60e2              ld                      ra,24(sp)
0x8000c6ac:  6442              ld                      s0,16(sp)
0x8000c6ae:  6105              addi                    sp,sp,32
0x8000c6b0:  8082              ret                     

----------------
IN: 
Priv: 3; Virt: 0
0x8000c7a6:  faa42623          sw                      a0,-84(s0)
0x8000c7aa:  84aa              mv                      s1,a0
0x8000c7ac:  f60552e3          bgez                    a0,-156                 # 0x8000c710

----------------
IN: 
Priv: 3; Virt: 0
0x8000c710:  fac40b93          addi                    s7,s0,-84
0x8000c714:  85a6              mv                      a1,s1
0x8000c716:  865e              mv                      a2,s7
0x8000c718:  854e              mv                      a0,s3
0x8000c71a:  e33ff0ef          jal                     ra,-462                 # 0x8000c54c

----------------
IN: 
Priv: 3; Virt: 0
0x8000c5da:  4611              addi                    a2,zero,4
0x8000c5dc:  85ca              mv                      a1,s2
0x8000c5de:  8552              mv                      a0,s4
0x8000c5e0:  e81ff0ef          jal                     ra,-384                 # 0x8000c460

----------------
IN: 
Priv: 3; Virt: 0
0x8000c5e4:  d96d              beqz                    a0,-14                  # 0x8000c5d6

----------------
IN: 
Priv: 3; Virt: 0
0x8000c5e6:  4118              lw                      a4,0(a0)
0x8000c5e8:  014a4783          lbu                     a5,20(s4)
0x8000c5ec:  015a4503          lbu                     a0,21(s4)
0x8000c5f0:  00875613          srli                    a2,a4,8
0x8000c5f4:  017a4803          lbu                     a6,23(s4)
0x8000c5f8:  016a4583          lbu                     a1,22(s4)
0x8000c5fc:  0187169b          slliw                   a3,a4,24
0x8000c600:  0187589b          srliw                   a7,a4,24
0x8000c604:  0ff67613          andi                    a2,a2,255
0x8000c608:  0187979b          slliw                   a5,a5,24
0x8000c60c:  0105151b          slliw                   a0,a0,16
0x8000c610:  0106161b          slliw                   a2,a2,16
0x8000c614:  8341              srli                    a4,a4,16
0x8000c616:  0116e6b3          or                      a3,a3,a7
0x8000c61a:  8fc9              or                      a5,a5,a0
0x8000c61c:  8ed1              or                      a3,a3,a2
0x8000c61e:  0ff77713          andi                    a4,a4,255
0x8000c622:  0085961b          slliw                   a2,a1,8
0x8000c626:  0107e7b3          or                      a5,a5,a6
0x8000c62a:  8fd1              or                      a5,a5,a2
0x8000c62c:  0087171b          slliw                   a4,a4,8
0x8000c630:  8f55              or                      a4,a4,a3
0x8000c632:  2b31              addiw                   s6,s6,12
0x8000c634:  2781              sext.w                  a5,a5
0x8000c636:  463d              addi                    a2,zero,15
0x8000c638:  00eb093b          addw                    s2,s6,a4
0x8000c63c:  2701              sext.w                  a4,a4
0x8000c63e:  00f66a63          bgtu                    a5,a2,20                # 0x8000c652

----------------
IN: 
Priv: 3; Virt: 0
0x8000c71e:  4b09              addi                    s6,zero,2
0x8000c720:  0005079b          sext.w                  a5,a0
0x8000c724:  4aa5              addi                    s5,zero,9
0x8000c726:  4a05              addi                    s4,zero,1
0x8000c728:  03678163          beq                     a5,s6,34                # 0x8000c74a

----------------
IN: 
Priv: 3; Virt: 0
0x8000c72c:  07578063          beq                     a5,s5,96                # 0x8000c78c

----------------
IN: 
Priv: 3; Virt: 0
0x8000c730:  03478b63          beq                     a5,s4,54                # 0x8000c766

----------------
IN: 
Priv: 3; Virt: 0
0x8000c734:  fac42483          lw                      s1,-84(s0)
0x8000c738:  865e              mv                      a2,s7
0x8000c73a:  854e              mv                      a0,s3
0x8000c73c:  85a6              mv                      a1,s1
0x8000c73e:  e0fff0ef          jal                     ra,-498                 # 0x8000c54c

----------------
IN: 
Priv: 3; Virt: 0
0x8000c742:  0005079b          sext.w                  a5,a0
0x8000c746:  ff6793e3          bne                     a5,s6,-26               # 0x8000c72c

----------------
IN: 
Priv: 3; Virt: 0
0x8000c766:  00090763          beqz                    s2,14                   # 0x8000c774

----------------
IN: 
Priv: 3; Virt: 0
0x8000c76a:  00092783          lw                      a5,0(s2)
0x8000c76e:  2785              addiw                   a5,a5,1
0x8000c770:  00f92023          sw                      a5,0(s2)
0x8000c774:  60e6              ld                      ra,88(sp)
0x8000c776:  6446              ld                      s0,80(sp)
0x8000c778:  6906              ld                      s2,64(sp)
0x8000c77a:  79e2              ld                      s3,56(sp)
0x8000c77c:  7a42              ld                      s4,48(sp)
0x8000c77e:  7aa2              ld                      s5,40(sp)
0x8000c780:  7b02              ld                      s6,32(sp)
0x8000c782:  6be2              ld                      s7,24(sp)
0x8000c784:  8526              mv                      a0,s1
0x8000c786:  64a6              ld                      s1,72(sp)
0x8000c788:  6125              addi                    sp,sp,96
0x8000c78a:  8082              ret                     

----------------
IN: 
Priv: 3; Virt: 0
0x8000ce8e:  fa842783          lw                      a5,-88(s0)
0x8000ce92:  84aa              mv                      s1,a0
0x8000ce94:  04054b63          bltz                    a0,86                   # 0x8000ceea

----------------
IN: 
Priv: 3; Virt: 0
0x8000ce98:  0407cb63          bltz                    a5,86                   # 0x8000ceee

----------------
IN: 
Priv: 3; Virt: 0
0x8000ce9c:  ff5794e3          bne                     a5,s5,-24               # 0x8000ce84

----------------
IN: 
Priv: 3; Virt: 0
0x8000cea0:  865e              mv                      a2,s7
0x8000cea2:  85a6              mv                      a1,s1
0x8000cea4:  854a              mv                      a0,s2
0x8000cea6:  ed1ff0ef          jal                     ra,-304                 # 0x8000cd76

----------------
IN: 
Priv: 3; Virt: 0
0x8000cd76:  715d              addi                    sp,sp,-80
0x8000cd78:  e0a2              sd                      s0,64(sp)
0x8000cd7a:  fc26              sd                      s1,56(sp)
0x8000cd7c:  f44e              sd                      s3,40(sp)
0x8000cd7e:  f052              sd                      s4,32(sp)
0x8000cd80:  e486              sd                      ra,72(sp)
0x8000cd82:  f84a              sd                      s2,48(sp)
0x8000cd84:  ec56              sd                      s5,24(sp)
0x8000cd86:  e85a              sd                      s6,16(sp)
0x8000cd88:  e45e              sd                      s7,8(sp)
0x8000cd8a:  0880              addi                    s0,sp,80
0x8000cd8c:  00854903          lbu                     s2,8(a0)
0x8000cd90:  00954b83          lbu                     s7,9(a0)
0x8000cd94:  00a54a83          lbu                     s5,10(a0)
0x8000cd98:  00b54b03          lbu                     s6,11(a0)
0x8000cd9c:  84aa              mv                      s1,a0
0x8000cd9e:  8a2e              mv                      s4,a1
0x8000cda0:  89b2              mv                      s3,a2
0x8000cda2:  b16ff0ef          jal                     ra,-3306                # 0x8000c0b8

----------------
IN: 
Priv: 3; Virt: 0
0x8000cda6:  08054363          bltz                    a0,134                  # 0x8000ce2c

----------------
IN: 
Priv: 3; Virt: 0
0x8000cdaa:  85d2              mv                      a1,s4
0x8000cdac:  8526              mv                      a0,s1
0x8000cdae:  8d3ff0ef          jal                     ra,-1838                # 0x8000c680

----------------
IN: 
Priv: 3; Virt: 0
0x8000cdb2:  06054d63          bltz                    a0,122                  # 0x8000ce2c

----------------
IN: 
Priv: 3; Virt: 0
0x8000cdb6:  0144c783          lbu                     a5,20(s1)
0x8000cdba:  0154c683          lbu                     a3,21(s1)
0x8000cdbe:  0189151b          slliw                   a0,s2,24
0x8000cdc2:  010b9b9b          slliw                   s7,s7,16
0x8000cdc6:  01756533          or                      a0,a0,s7
0x8000cdca:  0174c603          lbu                     a2,23(s1)
0x8000cdce:  0164c703          lbu                     a4,22(s1)
0x8000cdd2:  01656533          or                      a0,a0,s6
0x8000cdd6:  008a9a9b          slliw                   s5,s5,8
0x8000cdda:  0187979b          slliw                   a5,a5,24
0x8000cdde:  0106969b          slliw                   a3,a3,16
0x8000cde2:  01556533          or                      a0,a0,s5
0x8000cde6:  8fd5              or                      a5,a5,a3
0x8000cde8:  1502              slli                    a0,a0,32
0x8000cdea:  0087171b          slliw                   a4,a4,8
0x8000cdee:  9101              srli                    a0,a0,32
0x8000cdf0:  8fd1              or                      a5,a5,a2
0x8000cdf2:  8fd9              or                      a5,a5,a4
0x8000cdf4:  014505b3          add                     a1,a0,s4
0x8000cdf8:  94ae              add                     s1,s1,a1
0x8000cdfa:  2781              sext.w                  a5,a5
0x8000cdfc:  473d              addi                    a4,zero,15
0x8000cdfe:  0491              addi                    s1,s1,4
0x8000ce00:  02f77c63          bleu                    a5,a4,56                # 0x8000ce38

----------------
IN: 
Priv: 3; Virt: 0
0x8000ce04:  00098763          beqz                    s3,14                   # 0x8000ce12

----------------
IN: 
Priv: 3; Virt: 0
0x8000ce08:  8526              mv                      a0,s1
0x8000ce0a:  f6ef50ef          jal                     ra,-43154               # 0x80002578

----------------
IN: 
Priv: 3; Virt: 0
0x8000ce0e:  00a9a023          sw                      a0,0(s3)
0x8000ce12:  60a6              ld                      ra,72(sp)
0x8000ce14:  6406              ld                      s0,64(sp)
0x8000ce16:  7942              ld                      s2,48(sp)
0x8000ce18:  79a2              ld                      s3,40(sp)
0x8000ce1a:  7a02              ld                      s4,32(sp)
0x8000ce1c:  6ae2              ld                      s5,24(sp)
0x8000ce1e:  6b42              ld                      s6,16(sp)
0x8000ce20:  6ba2              ld                      s7,8(sp)
0x8000ce22:  8526              mv                      a0,s1
0x8000ce24:  74e2              ld                      s1,56(sp)
0x8000ce26:  6161              addi                    sp,sp,80
0x8000ce28:  8082              ret                     

----------------
IN: 
Priv: 3; Virt: 0
0x8000ceaa:  864e              mv                      a2,s3
0x8000ceac:  85da              mv                      a1,s6
0x8000ceae:  d979              beqz                    a0,-42                  # 0x8000ce84

----------------
IN: 
Priv: 3; Virt: 0
0x8000ceb0:  fac42703          lw                      a4,-84(s0)
0x8000ceb4:  fd3748e3          bgt                     s3,a4,-48               # 0x8000ce84

----------------
IN: 
Priv: 3; Virt: 0
0x8000ceb8:  01350c33          add                     s8,a0,s3
0x8000cebc:  859f50ef          jal                     ra,-42920               # 0x80002714

----------------
IN: 
Priv: 3; Virt: 0
0x80002714:  1141              addi                    sp,sp,-16
0x80002716:  e422              sd                      s0,8(sp)
0x80002718:  0800              addi                    s0,sp,16
0x8000271a:  c215              beqz                    a2,36                   # 0x8000273e

----------------
IN: 
Priv: 3; Virt: 0
0x8000271c:  962e              add                     a2,a2,a1
0x8000271e:  a019              j                       6                       # 0x80002724

----------------
IN: 
Priv: 3; Virt: 0
0x80002724:  00054783          lbu                     a5,0(a0)
0x80002728:  0005c703          lbu                     a4,0(a1)
0x8000272c:  0505              addi                    a0,a0,1
0x8000272e:  0585              addi                    a1,a1,1
0x80002730:  fee788e3          beq                     a5,a4,-16               # 0x80002720

----------------
IN: 
Priv: 3; Virt: 0
0x80002720:  00c58f63          beq                     a1,a2,30                # 0x8000273e

----------------
IN: 
Priv: 3; Virt: 0
0x8000273e:  6422              ld                      s0,8(sp)
0x80002740:  4501              mv                      a0,zero
0x80002742:  0141              addi                    sp,sp,16
0x80002744:  8082              ret                     

----------------
IN: 
Priv: 3; Virt: 0
0x8000cec0:  f171              bnez                    a0,-60                  # 0x8000ce84

----------------
IN: 
Priv: 3; Virt: 0
0x8000cec2:  000c4783          lbu                     a5,0(s8)
0x8000cec6:  864e              mv                      a2,s3
0x8000cec8:  04000593          addi                    a1,zero,64
0x8000cecc:  855a              mv                      a0,s6
0x8000cece:  e395              bnez                    a5,36                   # 0x8000cef2

----------------
IN: 
Priv: 3; Virt: 0
0x8000ced0:  60e6              ld                      ra,88(sp)
0x8000ced2:  6446              ld                      s0,80(sp)
0x8000ced4:  6906              ld                      s2,64(sp)
0x8000ced6:  79e2              ld                      s3,56(sp)
0x8000ced8:  7a42              ld                      s4,48(sp)
0x8000ceda:  7aa2              ld                      s5,40(sp)
0x8000cedc:  7b02              ld                      s6,32(sp)
0x8000cede:  6be2              ld                      s7,24(sp)
0x8000cee0:  6c42              ld                      s8,16(sp)
0x8000cee2:  8526              mv                      a0,s1
0x8000cee4:  64a6              ld                      s1,72(sp)
0x8000cee6:  6125              addi                    sp,sp,96
0x8000cee8:  8082              ret                     

----------------
IN: 
Priv: 3; Virt: 0
0x8000d50c:  8a2a              mv                      s4,a0
0x8000d50e:  00054563          bltz                    a0,10                   # 0x8000d518

----------------
IN: 
Priv: 3; Virt: 0
0x8000d512:  84da              mv                      s1,s6
0x8000d514:  bf7d              j                       -66                     # 0x8000d4d2

----------------
IN: 
Priv: 3; Virt: 0
0x8000d4d2:  0124e663          bgtu                    s2,s1,12                # 0x8000d4de

----------------
IN: 
Priv: 3; Virt: 0
0x8000d4d6:  a089              j                       66                      # 0x8000d518

----------------
IN: 
Priv: 3; Virt: 0
0x8000d518:  60a6              ld                      ra,72(sp)
0x8000d51a:  6406              ld                      s0,64(sp)
0x8000d51c:  74e2              ld                      s1,56(sp)
0x8000d51e:  7942              ld                      s2,48(sp)
0x8000d520:  79a2              ld                      s3,40(sp)
0x8000d522:  6ae2              ld                      s5,24(sp)
0x8000d524:  6b42              ld                      s6,16(sp)
0x8000d526:  6ba2              ld                      s7,8(sp)
0x8000d528:  8552              mv                      a0,s4
0x8000d52a:  7a02              ld                      s4,32(sp)
0x8000d52c:  6161              addi                    sp,sp,80
0x8000d52e:  8082              ret                     

----------------
IN: 
Priv: 3; Virt: 0
0x8000d58a:  60e2              ld                      ra,24(sp)
0x8000d58c:  6442              ld                      s0,16(sp)
0x8000d58e:  64a2              ld                      s1,8(sp)
0x8000d590:  6902              ld                      s2,0(sp)
0x8000d592:  6105              addi                    sp,sp,32
0x8000d594:  8082              ret                     

----------------
IN: 
Priv: 3; Virt: 0
0x8000ab6c:  08055563          bgez                    a0,138                  # 0x8000abf6

----------------
IN: 
Priv: 3; Virt: 0
0x8000abf6:  85aa              mv                      a1,a0
0x8000abf8:  fa440693          addi                    a3,s0,-92
0x8000abfc:  0000c617          auipc                   a2,12                   # 0x80016bfc
0x8000ac00:  e4c60613          addi                    a2,a2,-436
0x8000ac04:  8526              mv                      a0,s1
0x8000ac06:  69c020ef          jal                     ra,9884                 # 0x8000d2a2

----------------
IN: 
Priv: 3; Virt: 0
0x8000d2a2:  7179              addi                    sp,sp,-48
0x8000d2a4:  f406              sd                      ra,40(sp)
0x8000d2a6:  f022              sd                      s0,32(sp)
0x8000d2a8:  ec26              sd                      s1,24(sp)
0x8000d2aa:  e84a              sd                      s2,16(sp)
0x8000d2ac:  e44e              sd                      s3,8(sp)
0x8000d2ae:  e052              sd                      s4,0(sp)
0x8000d2b0:  1800              addi                    s0,sp,48
0x8000d2b2:  892a              mv                      s2,a0
0x8000d2b4:  8532              mv                      a0,a2
0x8000d2b6:  8a36              mv                      s4,a3
0x8000d2b8:  84b2              mv                      s1,a2
0x8000d2ba:  89ae              mv                      s3,a1
0x8000d2bc:  abcf50ef          jal                     ra,-44356               # 0x80002578

----------------
IN: 
Priv: 3; Virt: 0
0x8000d2c0:  8752              mv                      a4,s4
0x8000d2c2:  0005069b          sext.w                  a3,a0
0x8000d2c6:  8626              mv                      a2,s1
0x8000d2c8:  85ce              mv                      a1,s3
0x8000d2ca:  854a              mv                      a0,s2
0x8000d2cc:  e63ff0ef          jal                     ra,-414                 # 0x8000d12e

----------------
IN: 
Priv: 3; Virt: 0
0x8000d12e:  7179              addi                    sp,sp,-48
0x8000d130:  f022              sd                      s0,32(sp)
0x8000d132:  ec26              sd                      s1,24(sp)
0x8000d134:  1800              addi                    s0,sp,48
0x8000d136:  f406              sd                      ra,40(sp)
0x8000d138:  fdc40793          addi                    a5,s0,-36
0x8000d13c:  84aa              mv                      s1,a0
0x8000d13e:  e4fff0ef          jal                     ra,-434                 # 0x8000cf8c

----------------
IN: 
Priv: 3; Virt: 0
0x8000cf8c:  711d              addi                    sp,sp,-96
0x8000cf8e:  e8a2              sd                      s0,80(sp)
0x8000cf90:  e4a6              sd                      s1,72(sp)
0x8000cf92:  e0ca              sd                      s2,64(sp)
0x8000cf94:  fc4e              sd                      s3,56(sp)
0x8000cf96:  f456              sd                      s5,40(sp)
0x8000cf98:  f05a              sd                      s6,32(sp)
0x8000cf9a:  ec5e              sd                      s7,24(sp)
0x8000cf9c:  ec86              sd                      ra,88(sp)
0x8000cf9e:  f852              sd                      s4,48(sp)
0x8000cfa0:  e862              sd                      s8,16(sp)
0x8000cfa2:  1080              addi                    s0,sp,96
0x8000cfa4:  84aa              mv                      s1,a0
0x8000cfa6:  8ab2              mv                      s5,a2
0x8000cfa8:  89b6              mv                      s3,a3
0x8000cfaa:  893a              mv                      s2,a4
0x8000cfac:  8b3e              mv                      s6,a5
0x8000cfae:  f93ff0ef          jal                     ra,-110                 # 0x8000cf40

----------------
IN: 
Priv: 3; Virt: 0
0x8000cf40:  1101              addi                    sp,sp,-32
0x8000cf42:  e822              sd                      s0,16(sp)
0x8000cf44:  e426              sd                      s1,8(sp)
0x8000cf46:  ec06              sd                      ra,24(sp)
0x8000cf48:  1000              addi                    s0,sp,32
0x8000cf4a:  84aa              mv                      s1,a0
0x8000cf4c:  f34ff0ef          jal                     ra,-2252                # 0x8000c680

----------------
IN: 
Priv: 3; Virt: 0
0x8000cf50:  00054663          bltz                    a0,12                   # 0x8000cf5c

----------------
IN: 
Priv: 3; Virt: 0
0x8000cf54:  85aa              mv                      a1,a0
0x8000cf56:  8526              mv                      a0,s1
0x8000cf58:  a25ff0ef          jal                     ra,-1500                # 0x8000c97c

----------------
IN: 
Priv: 3; Virt: 0
0x8000c97c:  715d              addi                    sp,sp,-80
0x8000c97e:  e0a2              sd                      s0,64(sp)
0x8000c980:  fc26              sd                      s1,56(sp)
0x8000c982:  f84a              sd                      s2,48(sp)
0x8000c984:  f44e              sd                      s3,40(sp)
0x8000c986:  f052              sd                      s4,32(sp)
0x8000c988:  ec56              sd                      s5,24(sp)
0x8000c98a:  e85a              sd                      s6,16(sp)
0x8000c98c:  0880              addi                    s0,sp,80
0x8000c98e:  e486              sd                      ra,72(sp)
0x8000c990:  892a              mv                      s2,a0
0x8000c992:  84ae              mv                      s1,a1
0x8000c994:  fbc40a93          addi                    s5,s0,-68
0x8000c998:  4a0d              addi                    s4,zero,3
0x8000c99a:  49a5              addi                    s3,zero,9
0x8000c99c:  4b11              addi                    s6,zero,4
0x8000c99e:  85a6              mv                      a1,s1
0x8000c9a0:  8656              mv                      a2,s5
0x8000c9a2:  854a              mv                      a0,s2
0x8000c9a4:  ba9ff0ef          jal                     ra,-1112                # 0x8000c54c

----------------
IN: 
Priv: 3; Virt: 0
0x8000c9a8:  0005079b          sext.w                  a5,a0
0x8000c9ac:  03478263          beq                     a5,s4,36                # 0x8000c9d0

----------------
IN: 
Priv: 3; Virt: 0
0x8000c9d0:  8526              mv                      a0,s1
0x8000c9d2:  b7ed              j                       -22                     # 0x8000c9bc

----------------
IN: 
Priv: 3; Virt: 0
0x8000c9bc:  60a6              ld                      ra,72(sp)
0x8000c9be:  6406              ld                      s0,64(sp)
0x8000c9c0:  74e2              ld                      s1,56(sp)
0x8000c9c2:  7942              ld                      s2,48(sp)
0x8000c9c4:  79a2              ld                      s3,40(sp)
0x8000c9c6:  7a02              ld                      s4,32(sp)
0x8000c9c8:  6ae2              ld                      s5,24(sp)
0x8000c9ca:  6b42              ld                      s6,16(sp)
0x8000c9cc:  6161              addi                    sp,sp,80
0x8000c9ce:  8082              ret                     

----------------
IN: 
Priv: 3; Virt: 0
0x8000cf5c:  60e2              ld                      ra,24(sp)
0x8000cf5e:  6442              ld                      s0,16(sp)
0x8000cf60:  64a2              ld                      s1,8(sp)
0x8000cf62:  6105              addi                    sp,sp,32
0x8000cf64:  8082              ret                     

----------------
IN: 
Priv: 3; Virt: 0
0x8000cfb2:  8baa              mv                      s7,a0
0x8000cfb4:  08054963          bltz                    a0,146                  # 0x8000d046

----------------
IN: 
Priv: 3; Virt: 0
0x8000cfb8:  fac40a13          addi                    s4,s0,-84
0x8000cfbc:  a801              j                       16                      # 0x8000cfcc

----------------
IN: 
Priv: 3; Virt: 0
0x8000cfcc:  864a              mv                      a2,s2
0x8000cfce:  85de              mv                      a1,s7
0x8000cfd0:  8526              mv                      a0,s1
0x8000cfd2:  a13ff0ef          jal                     ra,-1518                # 0x8000c9e4

----------------
IN: 
Priv: 3; Virt: 0
0x8000c9e4:  7179              addi                    sp,sp,-48
0x8000c9e6:  f022              sd                      s0,32(sp)
0x8000c9e8:  ec26              sd                      s1,24(sp)
0x8000c9ea:  e84a              sd                      s2,16(sp)
0x8000c9ec:  e44e              sd                      s3,8(sp)
0x8000c9ee:  f406              sd                      ra,40(sp)
0x8000c9f0:  1800              addi                    s0,sp,48
0x8000c9f2:  84aa              mv                      s1,a0
0x8000c9f4:  89ae              mv                      s3,a1
0x8000c9f6:  8932              mv                      s2,a2
0x8000c9f8:  cbfff0ef          jal                     ra,-834                 # 0x8000c6b6

----------------
IN: 
Priv: 3; Virt: 0
0x8000c6b6:  1101              addi                    sp,sp,-32
0x8000c6b8:  e822              sd                      s0,16(sp)
0x8000c6ba:  ec06              sd                      ra,24(sp)
0x8000c6bc:  1000              addi                    s0,sp,32
0x8000c6be:  feb42623          sw                      a1,-20(s0)
0x8000c6c2:  0205c363          bltz                    a1,38                   # 0x8000c6e8

----------------
IN: 
Priv: 3; Virt: 0
0x8000c6c6:  0035f793          andi                    a5,a1,3
0x8000c6ca:  ef99              bnez                    a5,30                   # 0x8000c6e8

----------------
IN: 
Priv: 3; Virt: 0
0x8000c6cc:  fec40613          addi                    a2,s0,-20
0x8000c6d0:  e7dff0ef          jal                     ra,-388                 # 0x8000c54c

----------------
IN: 
Priv: 3; Virt: 0
0x8000c6d4:  2501              sext.w                  a0,a0
0x8000c6d6:  478d              addi                    a5,zero,3
0x8000c6d8:  00f51863          bne                     a0,a5,16                # 0x8000c6e8

----------------
IN: 
Priv: 3; Virt: 0
0x8000c6dc:  fec42503          lw                      a0,-20(s0)
0x8000c6e0:  60e2              ld                      ra,24(sp)
0x8000c6e2:  6442              ld                      s0,16(sp)
0x8000c6e4:  6105              addi                    sp,sp,32
0x8000c6e6:  8082              ret                     

----------------
IN: 
Priv: 3; Virt: 0
0x8000c9fc:  06054763          bltz                    a0,110                  # 0x8000ca6a

----------------
IN: 
Priv: 3; Virt: 0
0x8000ca00:  0084c783          lbu                     a5,8(s1)
0x8000ca04:  0094c703          lbu                     a4,9(s1)
0x8000ca08:  00b4c683          lbu                     a3,11(s1)
0x8000ca0c:  00a4c583          lbu                     a1,10(s1)
0x8000ca10:  0187979b          slliw                   a5,a5,24
0x8000ca14:  0107171b          slliw                   a4,a4,16
0x8000ca18:  8fd9              or                      a5,a5,a4
0x8000ca1a:  0085959b          slliw                   a1,a1,8
0x8000ca1e:  8fd5              or                      a5,a5,a3
0x8000ca20:  8fcd              or                      a5,a5,a1
0x8000ca22:  1782              slli                    a5,a5,32
0x8000ca24:  9381              srli                    a5,a5,32
0x8000ca26:  013785b3          add                     a1,a5,s3
0x8000ca2a:  00b48533          add                     a0,s1,a1
0x8000ca2e:  02090763          beqz                    s2,46                   # 0x8000ca5c

----------------
IN: 
Priv: 3; Virt: 0
0x8000ca32:  415c              lw                      a5,4(a0)
0x8000ca34:  0087d693          srli                    a3,a5,8
0x8000ca38:  0187971b          slliw                   a4,a5,24
0x8000ca3c:  0187d61b          srliw                   a2,a5,24
0x8000ca40:  0ff6f693          andi                    a3,a3,255
0x8000ca44:  83c1              srli                    a5,a5,16
0x8000ca46:  8f51              or                      a4,a4,a2
0x8000ca48:  0106969b          slliw                   a3,a3,16
0x8000ca4c:  0ff7f793          andi                    a5,a5,255
0x8000ca50:  8f55              or                      a4,a4,a3
0x8000ca52:  0087979b          slliw                   a5,a5,8
0x8000ca56:  8fd9              or                      a5,a5,a4
0x8000ca58:  00f92023          sw                      a5,0(s2)
0x8000ca5c:  70a2              ld                      ra,40(sp)
0x8000ca5e:  7402              ld                      s0,32(sp)
0x8000ca60:  64e2              ld                      s1,24(sp)
0x8000ca62:  6942              ld                      s2,16(sp)
0x8000ca64:  69a2              ld                      s3,8(sp)
0x8000ca66:  6145              addi                    sp,sp,48
0x8000ca68:  8082              ret                     

----------------
IN: 
Priv: 3; Virt: 0
0x8000cfd6:  8c2a              mv                      s8,a0
0x8000cfd8:  8652              mv                      a2,s4
0x8000cfda:  8526              mv                      a0,s1
0x8000cfdc:  060c0463          beqz                    s8,104                  # 0x8000d044

----------------
IN: 
Priv: 3; Virt: 0
0x8000cfe0:  008c2583          lw                      a1,8(s8)
0x8000cfe4:  0085d713          srli                    a4,a1,8
0x8000cfe8:  0185979b          slliw                   a5,a1,24
0x8000cfec:  0185d69b          srliw                   a3,a1,24
0x8000cff0:  0ff77713          andi                    a4,a4,255
0x8000cff4:  81c1              srli                    a1,a1,16
0x8000cff6:  8fd5              or                      a5,a5,a3
0x8000cff8:  0107171b          slliw                   a4,a4,16
0x8000cffc:  0ff5f593          andi                    a1,a1,255

----------------
IN: 
Priv: 3; Virt: 0
0x8000d000:  8fd9              or                      a5,a5,a4
0x8000d002:  0085959b          slliw                   a1,a1,8
0x8000d006:  8ddd              or                      a1,a1,a5
0x8000d008:  2581              sext.w                  a1,a1
0x8000d00a:  a6bff0ef          jal                     ra,-1430                # 0x8000ca74

----------------
IN: 
Priv: 3; Virt: 0
0x8000ca74:  7179              addi                    sp,sp,-48
0x8000ca76:  f022              sd                      s0,32(sp)
0x8000ca78:  ec26              sd                      s1,24(sp)
0x8000ca7a:  e84a              sd                      s2,16(sp)
0x8000ca7c:  e44e              sd                      s3,8(sp)
0x8000ca7e:  f406              sd                      ra,40(sp)
0x8000ca80:  1800              addi                    s0,sp,48
0x8000ca82:  84aa              mv                      s1,a0
0x8000ca84:  89ae              mv                      s3,a1
0x8000ca86:  8932              mv                      s2,a2
0x8000ca88:  e30ff0ef          jal                     ra,-2512                # 0x8000c0b8

----------------
IN: 
Priv: 3; Virt: 0
0x8000ca8c:  12054c63          bltz                    a0,312                  # 0x8000cbc4

----------------
IN: 
Priv: 3; Virt: 0
0x8000ca90:  00c4c783          lbu                     a5,12(s1)
0x8000ca94:  00d4c683          lbu                     a3,13(s1)
0x8000ca98:  00f4c603          lbu                     a2,15(s1)
0x8000ca9c:  00e4c703          lbu                     a4,14(s1)
0x8000caa0:  0187979b          slliw                   a5,a5,24
0x8000caa4:  0106969b          slliw                   a3,a3,16
0x8000caa8:  8fd5              or                      a5,a5,a3
0x8000caaa:  0087171b          slliw                   a4,a4,8
0x8000caae:  8fd1              or                      a5,a5,a2
0x8000cab0:  8fd9              or                      a5,a5,a4
0x8000cab2:  013787bb          addw                    a5,a5,s3
0x8000cab6:  0007871b          sext.w                  a4,a5
0x8000caba:  2501              sext.w                  a0,a0
0x8000cabc:  0009859b          sext.w                  a1,s3
0x8000cac0:  10a77163          bleu                    a0,a4,258               # 0x8000cbc2

----------------
IN: 
Priv: 3; Virt: 0
0x8000cac4:  0004c703          lbu                     a4,0(s1)
0x8000cac8:  0014c603          lbu                     a2,1(s1)
0x8000cacc:  0034c803          lbu                     a6,3(s1)
0x8000cad0:  0024c683          lbu                     a3,2(s1)
0x8000cad4:  0106161b          slliw                   a2,a2,16
0x8000cad8:  0187171b          slliw                   a4,a4,24
0x8000cadc:  8f51              or                      a4,a4,a2
0x8000cade:  0086969b          slliw                   a3,a3,8
0x8000cae2:  01076733          or                      a4,a4,a6
0x8000cae6:  8f55              or                      a4,a4,a3
0x8000cae8:  9d1d              subw                    a0,a0,a5
0x8000caea:  d00e06b7          lui                     a3,-196384
0x8000caee:  0005061b          sext.w                  a2,a0
0x8000caf2:  2701              sext.w                  a4,a4
0x8000caf4:  1502              slli                    a0,a0,32
0x8000caf6:  eed68693          addi                    a3,a3,-275
0x8000cafa:  9101              srli                    a0,a0,32
0x8000cafc:  06d70463          beq                     a4,a3,104               # 0x8000cb64

----------------
IN: 
Priv: 3; Virt: 0
0x8000cb64:  0409cf63          bltz                    s3,94                   # 0x8000cbc2

----------------
IN: 
Priv: 3; Virt: 0
0x8000cb68:  0144c703          lbu                     a4,20(s1)
0x8000cb6c:  0154c803          lbu                     a6,21(s1)
0x8000cb70:  0174c883          lbu                     a7,23(s1)
0x8000cb74:  0164c683          lbu                     a3,22(s1)
0x8000cb78:  0187171b          slliw                   a4,a4,24
0x8000cb7c:  0108181b          slliw                   a6,a6,16
0x8000cb80:  01076733          or                      a4,a4,a6
0x8000cb84:  0086969b          slliw                   a3,a3,8
0x8000cb88:  01176733          or                      a4,a4,a7
0x8000cb8c:  8f55              or                      a4,a4,a3
0x8000cb8e:  2701              sext.w                  a4,a4
0x8000cb90:  46c1              addi                    a3,zero,16
0x8000cb92:  fae6fae3          bleu                    a4,a3,-76               # 0x8000cb46

----------------
IN: 
Priv: 3; Virt: 0
0x8000cb96:  0204c703          lbu                     a4,32(s1)
0x8000cb9a:  0214c803          lbu                     a6,33(s1)
0x8000cb9e:  0234c883          lbu                     a7,35(s1)
0x8000cba2:  0224c683          lbu                     a3,34(s1)
0x8000cba6:  0187171b          slliw                   a4,a4,24
0x8000cbaa:  0108181b          slliw                   a6,a6,16
0x8000cbae:  01076733          or                      a4,a4,a6
0x8000cbb2:  01176733          or                      a4,a4,a7
0x8000cbb6:  0086969b          slliw                   a3,a3,8
0x8000cbba:  8f55              or                      a4,a4,a3
0x8000cbbc:  2701              sext.w                  a4,a4
0x8000cbbe:  02e5e263          bgtu                    a4,a1,36                # 0x8000cbe2

----------------
IN: 
Priv: 3; Virt: 0
0x8000cbe2:  40b705bb          subw                    a1,a4,a1
0x8000cbe6:  0005871b          sext.w                  a4,a1
0x8000cbea:  f4c77ee3          bleu                    a2,a4,-164              # 0x8000cb46

----------------
IN: 
Priv: 3; Virt: 0
0x8000cb46:  1782              slli                    a5,a5,32
0x8000cb48:  9381              srli                    a5,a5,32
0x8000cb4a:  94be              add                     s1,s1,a5
0x8000cb4c:  862a              mv                      a2,a0
0x8000cb4e:  4581              mv                      a1,zero
0x8000cb50:  8526              mv                      a0,s1
0x8000cb52:  bf5f50ef          jal                     ra,-41996               # 0x80002746

----------------
IN: 
Priv: 3; Virt: 0
0x80002768:  6422              ld                      s0,8(sp)
0x8000276a:  0141              addi                    sp,sp,16
0x8000276c:  8082              ret                     

----------------
IN: 
Priv: 3; Virt: 0
0x8000cb56:  c145              beqz                    a0,160                  # 0x8000cbf6

----------------
IN: 
Priv: 3; Virt: 0
0x8000cb58:  06090b63          beqz                    s2,118                  # 0x8000cbce

----------------
IN: 
Priv: 3; Virt: 0
0x8000cb5c:  8d05              sub                     a0,a0,s1
0x8000cb5e:  00a92023          sw                      a0,0(s2)
0x8000cb62:  a0b5              j                       108                     # 0x8000cbce

----------------
IN: 
Priv: 3; Virt: 0
0x8000cbce:  70a2              ld                      ra,40(sp)
0x8000cbd0:  7402              ld                      s0,32(sp)
0x8000cbd2:  6942              ld                      s2,16(sp)
0x8000cbd4:  69a2              ld                      s3,8(sp)
0x8000cbd6:  8526              mv                      a0,s1
0x8000cbd8:  64e2              ld                      s1,24(sp)
0x8000cbda:  6145              addi                    sp,sp,48
0x8000cbdc:  8082              ret                     

----------------
IN: 
Priv: 3; Virt: 0
0x8000d00e:  d945              beqz                    a0,-80                  # 0x8000cfbe

----------------
IN: 
Priv: 3; Virt: 0
0x8000d010:  fac42783          lw                      a5,-84(s0)
0x8000d014:  fb3795e3          bne                     a5,s3,-86               # 0x8000cfbe

----------------
IN: 
Priv: 3; Virt: 0
0x8000d018:  864e              mv                      a2,s3
0x8000d01a:  85d6              mv                      a1,s5
0x8000d01c:  ef8f50ef          jal                     ra,-43272               # 0x80002714

----------------
IN: 
Priv: 3; Virt: 0
0x8000d020:  fd59              bnez                    a0,-98                  # 0x8000cfbe

----------------
IN: 
Priv: 3; Virt: 0
0x8000d022:  000b0463          beqz                    s6,8                    # 0x8000d02a

----------------
IN: 
Priv: 3; Virt: 0
0x8000d026:  017b2023          sw                      s7,0(s6)
0x8000d02a:  60e6              ld                      ra,88(sp)
0x8000d02c:  6446              ld                      s0,80(sp)
0x8000d02e:  64a6              ld                      s1,72(sp)
0x8000d030:  6906              ld                      s2,64(sp)
0x8000d032:  79e2              ld                      s3,56(sp)
0x8000d034:  7a42              ld                      s4,48(sp)
0x8000d036:  7aa2              ld                      s5,40(sp)
0x8000d038:  7b02              ld                      s6,32(sp)
0x8000d03a:  6be2              ld                      s7,24(sp)
0x8000d03c:  8562              mv                      a0,s8
0x8000d03e:  6c42              ld                      s8,16(sp)
0x8000d040:  6125              addi                    sp,sp,96
0x8000d042:  8082              ret                     

----------------
IN: 
Priv: 3; Virt: 0
0x8000d142:  c13d              beqz                    a0,102                  # 0x8000d1a8

----------------
IN: 
Priv: 3; Virt: 0
0x8000d144:  0144c783          lbu                     a5,20(s1)
0x8000d148:  0154c683          lbu                     a3,21(s1)
0x8000d14c:  0174c603          lbu                     a2,23(s1)
0x8000d150:  0164c703          lbu                     a4,22(s1)
0x8000d154:  0187979b          slliw                   a5,a5,24
0x8000d158:  0106969b          slliw                   a3,a3,16
0x8000d15c:  8fd5              or                      a5,a5,a3
0x8000d15e:  0087171b          slliw                   a4,a4,8
0x8000d162:  8fd1              or                      a5,a5,a2
0x8000d164:  8fd9              or                      a5,a5,a4
0x8000d166:  2781              sext.w                  a5,a5
0x8000d168:  473d              addi                    a4,zero,15
0x8000d16a:  02f76e63          bgtu                    a5,a4,60                # 0x8000d1a6

----------------
IN: 
Priv: 3; Virt: 0
0x8000d1a6:  0531              addi                    a0,a0,12
0x8000d1a8:  70a2              ld                      ra,40(sp)
0x8000d1aa:  7402              ld                      s0,32(sp)
0x8000d1ac:  64e2              ld                      s1,24(sp)
0x8000d1ae:  6145              addi                    sp,sp,48
0x8000d1b0:  8082              ret                     

----------------
IN: 
Priv: 3; Virt: 0
0x8000d2d0:  70a2              ld                      ra,40(sp)
0x8000d2d2:  7402              ld                      s0,32(sp)
0x8000d2d4:  64e2              ld                      s1,24(sp)
0x8000d2d6:  6942              ld                      s2,16(sp)
0x8000d2d8:  69a2              ld                      s3,8(sp)
0x8000d2da:  6a02              ld                      s4,0(sp)
0x8000d2dc:  6145              addi                    sp,sp,48
0x8000d2de:  8082              ret                     

----------------
IN: 
Priv: 3; Virt: 0
0x8000ac0a:  892a              mv                      s2,a0
0x8000ac0c:  d135              beqz                    a0,-156                 # 0x8000ab70

----------------
IN: 
Priv: 3; Virt: 0
0x8000ac0e:  fa442783          lw                      a5,-92(s0)
0x8000ac12:  dfb9              beqz                    a5,-162                 # 0x8000ab70

----------------
IN: 
Priv: 3; Virt: 0
0x8000ac14:  03a00593          addi                    a1,zero,58
0x8000ac18:  a05f70ef          jal                     ra,-34300               # 0x8000261c

----------------
IN: 
Priv: 3; Virt: 0
0x8000261c:  1141              addi                    sp,sp,-16
0x8000261e:  e422              sd                      s0,8(sp)
0x80002620:  0800              addi                    s0,sp,16
0x80002622:  00054783          lbu                     a5,0(a0)
0x80002626:  cb89              beqz                    a5,18                   # 0x80002638

----------------
IN: 
Priv: 3; Virt: 0
0x80002628:  0ff5f593          andi                    a1,a1,255
0x8000262c:  00f58763          beq                     a1,a5,14                # 0x8000263a

----------------
IN: 
Priv: 3; Virt: 0
0x80002630:  00154783          lbu                     a5,1(a0)
0x80002634:  0505              addi                    a0,a0,1
0x80002636:  fbfd              bnez                    a5,-10                  # 0x8000262c

----------------
IN: 
Priv: 3; Virt: 0
0x8000262c:  00f58763          beq                     a1,a5,14                # 0x8000263a

----------------
IN: 
Priv: 3; Virt: 0
0x80002638:  4501              mv                      a0,zero
0x8000263a:  6422              ld                      s0,8(sp)
0x8000263c:  0141              addi                    sp,sp,16
0x8000263e:  8082              ret                     

----------------
IN: 
Priv: 3; Virt: 0
0x8000ac1c:  c149              beqz                    a0,130                  # 0x8000ac9e

----------------
IN: 
Priv: 3; Virt: 0
0x8000ac9e:  85ca              mv                      a1,s2
0x8000aca0:  8526              mv                      a0,s1
0x8000aca2:  0c7020ef          jal                     ra,10438                # 0x8000d568

----------------
IN: 
Priv: 3; Virt: 0
0x8000d4fa:  40950bb3          sub                     s7,a0,s1
0x8000d4fe:  85d2              mv                      a1,s4
0x8000d500:  000b869b          sext.w                  a3,s7
0x8000d504:  8626              mv                      a2,s1
0x8000d506:  8556              mv                      a0,s5
0x8000d508:  943ff0ef          jal                     ra,-1726                # 0x8000ce4a

----------------
IN: 
Priv: 3; Virt: 0
0x80002734:  6422              ld                      s0,8(sp)
0x80002736:  40e7853b          subw                    a0,a5,a4
0x8000273a:  0141              addi                    sp,sp,16
0x8000273c:  8082              ret                     

----------------
IN: 
Priv: 3; Virt: 0
0x8000c74a:  fe0905e3          beqz                    s2,-22                  # 0x8000c734

----------------
IN: 
Priv: 3; Virt: 0
0x8000c74e:  00092783          lw                      a5,0(s2)
0x8000c752:  37fd              addiw                   a5,a5,-1
0x8000c754:  00f92023          sw                      a5,0(s2)
0x8000c758:  02079713          slli                    a4,a5,32
0x8000c75c:  fc075ce3          bgez                    a4,-40                  # 0x8000c734

----------------
IN: 
Priv: 3; Virt: 0
0x8000aca6:  89aa              mv                      s3,a0
0x8000aca8:  b751              j                       -124                    # 0x8000ac2c

----------------
IN: 
Priv: 3; Virt: 0
0x8000ac2c:  0000eb17          auipc                   s6,14                   # 0x80018c2c
0x8000ac30:  73cb3b03          ld                      s6,1852(s6)
0x8000ac34:  000b3783          ld                      a5,0(s6)
0x8000ac38:  dba1              beqz                    a5,-176                 # 0x8000ab88

----------------
IN: 
Priv: 3; Virt: 0
0x8000ac3a:  0609c863          bltz                    s3,112                  # 0x8000acaa

----------------
IN: 
Priv: 3; Virt: 0
0x8000ac3e:  0000ea17          auipc                   s4,14                   # 0x80018c3e
0x8000ac42:  71aa3a03          ld                      s4,1818(s4)
0x8000ac46:  4a81              mv                      s5,zero
0x8000ac48:  c1800b93          addi                    s7,zero,-1000
0x8000ac4c:  000a3903          ld                      s2,0(s4)
0x8000ac50:  85ce              mv                      a1,s3
0x8000ac52:  8526              mv                      a0,s1
0x8000ac54:  00093603          ld                      a2,0(s2)
0x8000ac58:  618050ef          jal                     ra,22040                # 0x80010270

----------------
IN: 
Priv: 3; Virt: 0
0x80010270:  c929              beqz                    a0,82                   # 0x800102c2

----------------
IN: 
Priv: 3; Virt: 0
0x80010272:  7179              addi                    sp,sp,-48
0x80010274:  f022              sd                      s0,32(sp)
0x80010276:  e44e              sd                      s3,8(sp)
0x80010278:  f406              sd                      ra,40(sp)
0x8001027a:  ec26              sd                      s1,24(sp)
0x8001027c:  e84a              sd                      s2,16(sp)
0x8001027e:  1800              addi                    s0,sp,48
0x80010280:  89ae              mv                      s3,a1
0x80010282:  0205c863          bltz                    a1,48                   # 0x800102b2

----------------
IN: 
Priv: 3; Virt: 0
0x80010286:  84b2              mv                      s1,a2
0x80010288:  c60d              beqz                    a2,42                   # 0x800102b2

----------------
IN: 
Priv: 3; Virt: 0
0x8001028a:  6210              ld                      a2,0(a2)
0x8001028c:  892a              mv                      s2,a0
0x8001028e:  e609              bnez                    a2,10                   # 0x80010298

----------------
IN: 
Priv: 3; Virt: 0
0x80010298:  85ce              mv                      a1,s3
0x8001029a:  854a              mv                      a0,s2
0x8001029c:  899fd0ef          jal                     ra,-10088               # 0x8000db34

----------------
IN: 
Priv: 3; Virt: 0
0x8000db34:  7139              addi                    sp,sp,-64
0x8000db36:  f822              sd                      s0,48(sp)
0x8000db38:  f426              sd                      s1,40(sp)
0x8000db3a:  f04a              sd                      s2,32(sp)
0x8000db3c:  ec4e              sd                      s3,24(sp)
0x8000db3e:  0080              addi                    s0,sp,64
0x8000db40:  fc06              sd                      ra,56(sp)
0x8000db42:  84aa              mv                      s1,a0
0x8000db44:  00009517          auipc                   a0,9                    # 0x80016b44
0x8000db48:  1c450513          addi                    a0,a0,452
0x8000db4c:  892e              mv                      s2,a1
0x8000db4e:  89b2              mv                      s3,a2
0x8000db50:  a29f40ef          jal                     ra,-46552               # 0x80002578

----------------
IN: 
Priv: 3; Virt: 0
0x8000db54:  0005069b          sext.w                  a3,a0
0x8000db58:  fcc40713          addi                    a4,s0,-52
0x8000db5c:  00009617          auipc                   a2,9                    # 0x80016b5c
0x8000db60:  1ac60613          addi                    a2,a2,428
0x8000db64:  85ca              mv                      a1,s2
0x8000db66:  8526              mv                      a0,s1
0x8000db68:  dc6ff0ef          jal                     ra,-2618                # 0x8000d12e

----------------
IN: 
Priv: 3; Virt: 0
0x8000cfbe:  85de              mv                      a1,s7
0x8000cfc0:  8526              mv                      a0,s1
0x8000cfc2:  fa5ff0ef          jal                     ra,-92                  # 0x8000cf66

----------------
IN: 
Priv: 3; Virt: 0
0x8000cf66:  1101              addi                    sp,sp,-32
0x8000cf68:  e822              sd                      s0,16(sp)
0x8000cf6a:  e426              sd                      s1,8(sp)
0x8000cf6c:  ec06              sd                      ra,24(sp)
0x8000cf6e:  1000              addi                    s0,sp,32
0x8000cf70:  84aa              mv                      s1,a0
0x8000cf72:  f44ff0ef          jal                     ra,-2236                # 0x8000c6b6

----------------
IN: 
Priv: 3; Virt: 0
0x8000cf76:  00054663          bltz                    a0,12                   # 0x8000cf82

----------------
IN: 
Priv: 3; Virt: 0
0x8000cf7a:  85aa              mv                      a1,a0
0x8000cf7c:  8526              mv                      a0,s1
0x8000cf7e:  9ffff0ef          jal                     ra,-1538                # 0x8000c97c

----------------
IN: 
Priv: 3; Virt: 0
0x8000cf82:  60e2              ld                      ra,24(sp)
0x8000cf84:  6442              ld                      s0,16(sp)
0x8000cf86:  64a2              ld                      s1,8(sp)
0x8000cf88:  6105              addi                    sp,sp,32
0x8000cf8a:  8082              ret                     

----------------
IN: 
Priv: 3; Virt: 0
0x8000cfc6:  8baa              mv                      s7,a0
0x8000cfc8:  06054f63          bltz                    a0,126                  # 0x8000d046

----------------
IN: 
Priv: 3; Virt: 0
0x8000db6c:  cd19              beqz                    a0,30                   # 0x8000db8a

----------------
IN: 
Priv: 3; Virt: 0
0x8000db6e:  fcc42583          lw                      a1,-52(s0)
0x8000db72:  864e              mv                      a2,s3
0x8000db74:  d73ff0ef          jal                     ra,-654                 # 0x8000d8e6

----------------
IN: 
Priv: 3; Virt: 0
0x8000d8e6:  7139              addi                    sp,sp,-64
0x8000d8e8:  f822              sd                      s0,48(sp)
0x8000d8ea:  f426              sd                      s1,40(sp)
0x8000d8ec:  f04a              sd                      s2,32(sp)
0x8000d8ee:  ec4e              sd                      s3,24(sp)
0x8000d8f0:  e852              sd                      s4,16(sp)
0x8000d8f2:  e456              sd                      s5,8(sp)
0x8000d8f4:  fc06              sd                      ra,56(sp)
0x8000d8f6:  0080              addi                    s0,sp,64
0x8000d8f8:  892a              mv                      s2,a0
0x8000d8fa:  8532              mv                      a0,a2
0x8000d8fc:  8a32              mv                      s4,a2
0x8000d8fe:  84ae              mv                      s1,a1
0x8000d900:  c79f40ef          jal                     ra,-45960               # 0x80002578

----------------
IN: 
Priv: 3; Virt: 0
0x8000d904:  00050a9b          sext.w                  s5,a0
0x8000d908:  0015099b          addiw                   s3,a0,1
0x8000d90c:  0154df63          ble                     s5,s1,30                # 0x8000d92a

----------------
IN: 
Priv: 3; Virt: 0
0x8000d910:  a80d              j                       50                      # 0x8000d942

----------------
IN: 
Priv: 3; Virt: 0
0x8000d942:  4501              mv                      a0,zero
0x8000d944:  70e2              ld                      ra,56(sp)
0x8000d946:  7442              ld                      s0,48(sp)
0x8000d948:  74a2              ld                      s1,40(sp)
0x8000d94a:  7902              ld                      s2,32(sp)
0x8000d94c:  69e2              ld                      s3,24(sp)
0x8000d94e:  6a42              ld                      s4,16(sp)
0x8000d950:  6aa2              ld                      s5,8(sp)
0x8000d952:  6121              addi                    sp,sp,64
0x8000d954:  8082              ret                     

----------------
IN: 
Priv: 3; Virt: 0
0x8000db78:  70e2              ld                      ra,56(sp)
0x8000db7a:  7442              ld                      s0,48(sp)
0x8000db7c:  74a2              ld                      s1,40(sp)
0x8000db7e:  7902              ld                      s2,32(sp)
0x8000db80:  69e2              ld                      s3,24(sp)
0x8000db82:  00153513          seqz                    a0,a0
0x8000db86:  6121              addi                    sp,sp,64
0x8000db88:  8082              ret                     

----------------
IN: 
Priv: 3; Virt: 0
0x800102a0:  f96d              bnez                    a0,-14                  # 0x80010292

----------------
IN: 
Priv: 3; Virt: 0
0x80010292:  6890              ld                      a2,16(s1)
0x80010294:  04c1              addi                    s1,s1,16
0x80010296:  ce11              beqz                    a2,28                   # 0x800102b2

----------------
IN: 
Priv: 3; Virt: 0
0x800102b2:  70a2              ld                      ra,40(sp)
0x800102b4:  7402              ld                      s0,32(sp)
0x800102b6:  64e2              ld                      s1,24(sp)
0x800102b8:  6942              ld                      s2,16(sp)
0x800102ba:  69a2              ld                      s3,8(sp)
0x800102bc:  4501              mv                      a0,zero
0x800102be:  6145              addi                    sp,sp,48
0x800102c0:  8082              ret                     

----------------
IN: 
Priv: 3; Virt: 0
0x8000ac5c:  862a              mv                      a2,a0
0x8000ac5e:  fac43423          sd                      a2,-88(s0)
0x8000ac62:  85ce              mv                      a1,s3
0x8000ac64:  8526              mv                      a0,s1
0x8000ac66:  ce19              beqz                    a2,30                   # 0x8000ac84

----------------
IN: 
Priv: 3; Virt: 0
0x8000ac84:  000b3783          ld                      a5,0(s6)
0x8000ac88:  0a85              addi                    s5,s5,1
0x8000ac8a:  0a21              addi                    s4,s4,8
0x8000ac8c:  fcfae0e3          bgtu                    a5,s5,-64               # 0x8000ac4c

----------------
IN: 
Priv: 3; Virt: 0
0x8000ac4c:  000a3903          ld                      s2,0(s4)
0x8000ac50:  85ce              mv                      a1,s3
0x8000ac52:  8526              mv                      a0,s1
0x8000ac54:  00093603          ld                      a2,0(s2)
0x8000ac58:  618050ef          jal                     ra,22040                # 0x80010270

----------------
IN: 
Priv: 3; Virt: 0
0x8000d92a:  85ca              mv                      a1,s2
0x8000d92c:  864e              mv                      a2,s3
0x8000d92e:  8552              mv                      a0,s4
0x8000d930:  de5f40ef          jal                     ra,-45596               # 0x80002714

----------------
IN: 
Priv: 3; Virt: 0
0x8000d934:  87aa              mv                      a5,a0
0x8000d936:  8626              mv                      a2,s1
0x8000d938:  854a              mv                      a0,s2
0x8000d93a:  4581              mv                      a1,zero
0x8000d93c:  fbf9              bnez                    a5,-42                  # 0x8000d912

----------------
IN: 
Priv: 3; Virt: 0
0x8000d912:  e35f40ef          jal                     ra,-45516               # 0x80002746

----------------
IN: 
Priv: 3; Virt: 0
0x8000d916:  34fd              addiw                   s1,s1,-1
0x8000d918:  41250933          sub                     s2,a0,s2
0x8000d91c:  412484bb          subw                    s1,s1,s2
0x8000d920:  c10d              beqz                    a0,34                   # 0x8000d942

----------------
IN: 
Priv: 3; Virt: 0
0x8000d922:  00150913          addi                    s2,a0,1
0x8000d926:  0154ce63          bgt                     s5,s1,28                # 0x8000d942

----------------
IN: 
Priv: 3; Virt: 0
0x8000d93e:  4505              addi                    a0,zero,1
0x8000d940:  a011              j                       4                       # 0x8000d944

----------------
IN: 
Priv: 3; Virt: 0
0x8000d944:  70e2              ld                      ra,56(sp)
0x8000d946:  7442              ld                      s0,48(sp)
0x8000d948:  74a2              ld                      s1,40(sp)
0x8000d94a:  7902              ld                      s2,32(sp)
0x8000d94c:  69e2              ld                      s3,24(sp)
0x8000d94e:  6a42              ld                      s4,16(sp)
0x8000d950:  6aa2              ld                      s5,8(sp)
0x8000d952:  6121              addi                    sp,sp,64
0x8000d954:  8082              ret                     

----------------
IN: 
Priv: 3; Virt: 0
0x800102a2:  70a2              ld                      ra,40(sp)
0x800102a4:  7402              ld                      s0,32(sp)
0x800102a6:  6942              ld                      s2,16(sp)
0x800102a8:  69a2              ld                      s3,8(sp)
0x800102aa:  8526              mv                      a0,s1
0x800102ac:  64e2              ld                      s1,24(sp)
0x800102ae:  6145              addi                    sp,sp,48
0x800102b0:  8082              ret                     

----------------
IN: 
Priv: 3; Virt: 0
0x8000ac68:  00893783          ld                      a5,8(s2)
0x8000ac6c:  c789              beqz                    a5,10                   # 0x8000ac76

----------------
IN: 
Priv: 3; Virt: 0
0x8000ac6e:  9782              jalr                    ra,a5,0

----------------
IN: 
Priv: 3; Virt: 0
0x8000aeb4:  7139              addi                    sp,sp,-64
0x8000aeb6:  f822              sd                      s0,48(sp)
0x8000aeb8:  fc06              sd                      ra,56(sp)
0x8000aeba:  0080              addi                    s0,sp,64
0x8000aebc:  fc040613          addi                    a2,s0,-64
0x8000aec0:  fc043023          sd                      zero,-64(s0)
0x8000aec4:  fc043423          sd                      zero,-56(s0)
0x8000aec8:  fc043823          sd                      zero,-48(s0)
0x8000aecc:  fc043c23          sd                      zero,-40(s0)
0x8000aed0:  fe043023          sd                      zero,-32(s0)
0x8000aed4:  fe043423          sd                      zero,-24(s0)
0x8000aed8:  44d050ef          jal                     ra,23628                # 0x80010b24

----------------
IN: 
Priv: 3; Virt: 0
0x80010b24:  715d              addi                    sp,sp,-80
0x80010b26:  e0a2              sd                      s0,64(sp)
0x80010b28:  fc26              sd                      s1,56(sp)
0x80010b2a:  f84a              sd                      s2,48(sp)
0x80010b2c:  f44e              sd                      s3,40(sp)
0x80010b2e:  f052              sd                      s4,32(sp)
0x80010b30:  e486              sd                      ra,72(sp)
0x80010b32:  ec56              sd                      s5,24(sp)
0x80010b34:  0880              addi                    s0,sp,80
0x80010b36:  6771              lui                     a4,28
0x80010b38:  20070713          addi                    a4,a4,512
0x80010b3c:  4681              mv                      a3,zero
0x80010b3e:  892a              mv                      s2,a0
0x80010b40:  89ae              mv                      s3,a1
0x80010b42:  8a32              mv                      s4,a2
0x80010b44:  c07ff0ef          jal                     ra,-1018                # 0x8001074a

----------------
IN: 
Priv: 3; Virt: 0
0x8001074a:  1205c063          bltz                    a1,288                  # 0x8001086a

----------------
IN: 
Priv: 3; Virt: 0
0x8001074e:  711d              addi                    sp,sp,-96
0x80010750:  e8a2              sd                      s0,80(sp)
0x80010752:  e4a6              sd                      s1,72(sp)
0x80010754:  ec86              sd                      ra,88(sp)
0x80010756:  e0ca              sd                      s2,64(sp)
0x80010758:  fc4e              sd                      s3,56(sp)
0x8001075a:  f852              sd                      s4,48(sp)
0x8001075c:  f456              sd                      s5,40(sp)
0x8001075e:  f05a              sd                      s6,32(sp)
0x80010760:  1080              addi                    s0,sp,96
0x80010762:  84b2              mv                      s1,a2
0x80010764:  10060063          beqz                    a2,256                  # 0x80010864

----------------
IN: 
Priv: 3; Virt: 0
0x80010768:  89aa              mv                      s3,a0
0x8001076a:  0e050d63          beqz                    a0,250                  # 0x80010864

----------------
IN: 
Priv: 3; Virt: 0
0x8001076e:  8b36              mv                      s6,a3
0x80010770:  8a3a              mv                      s4,a4
0x80010772:  fb040693          addi                    a3,s0,-80
0x80010776:  fb840713          addi                    a4,s0,-72
0x8001077a:  4601              mv                      a2,zero
0x8001077c:  892e              mv                      s2,a1
0x8001077e:  d0dff0ef          jal                     ra,-756                 # 0x8001048a

----------------
IN: 
Priv: 3; Virt: 0
0x8001048a:  7175              addi                    sp,sp,-144
0x8001048c:  e122              sd                      s0,128(sp)
0x8001048e:  e506              sd                      ra,136(sp)
0x80010490:  fca6              sd                      s1,120(sp)
0x80010492:  f8ca              sd                      s2,112(sp)
0x80010494:  f4ce              sd                      s3,104(sp)
0x80010496:  f0d2              sd                      s4,96(sp)
0x80010498:  ecd6              sd                      s5,88(sp)
0x8001049a:  e8da              sd                      s6,80(sp)
0x8001049c:  e4de              sd                      s7,72(sp)
0x8001049e:  e0e2              sd                      s8,64(sp)
0x800104a0:  fc66              sd                      s9,56(sp)
0x800104a2:  f86a              sd                      s10,48(sp)
0x800104a4:  f46e              sd                      s11,40(sp)
0x800104a6:  0900              addi                    s0,sp,144
0x800104a8:  28050563          beqz                    a0,650                  # 0x80010732

----------------
IN: 
Priv: 3; Virt: 0
0x800104ac:  84ae              mv                      s1,a1
0x800104ae:  2805c263          bltz                    a1,644                  # 0x80010732

----------------
IN: 
Priv: 3; Virt: 0
0x800104b2:  8932              mv                      s2,a2
0x800104b4:  26064f63          bltz                    a2,638                  # 0x80010732

----------------
IN: 
Priv: 3; Virt: 0
0x800104b8:  89aa              mv                      s3,a0
0x800104ba:  8ab6              mv                      s5,a3
0x800104bc:  8c3a              mv                      s8,a4
0x800104be:  ae8fd0ef          jal                     ra,-11544               # 0x8000d7a6

----------------
IN: 
Priv: 3; Virt: 0
0x8000d7a6:  7179              addi                    sp,sp,-48
0x8000d7a8:  f022              sd                      s0,32(sp)
0x8000d7aa:  ec26              sd                      s1,24(sp)
0x8000d7ac:  e84a              sd                      s2,16(sp)
0x8000d7ae:  1800              addi                    s0,sp,48
0x8000d7b0:  f406              sd                      ra,40(sp)
0x8000d7b2:  fdc40693          addi                    a3,s0,-36
0x8000d7b6:  4601              mv                      a2,zero
0x8000d7b8:  84aa              mv                      s1,a0
0x8000d7ba:  892e              mv                      s2,a1
0x8000d7bc:  f23ff0ef          jal                     ra,-222                 # 0x8000d6de

----------------
IN: 
Priv: 3; Virt: 0
0x8000d6de:  715d              addi                    sp,sp,-80
0x8000d6e0:  e0a2              sd                      s0,64(sp)
0x8000d6e2:  fc26              sd                      s1,56(sp)
0x8000d6e4:  f84a              sd                      s2,48(sp)
0x8000d6e6:  f44e              sd                      s3,40(sp)
0x8000d6e8:  f052              sd                      s4,32(sp)
0x8000d6ea:  e486              sd                      ra,72(sp)
0x8000d6ec:  ec56              sd                      s5,24(sp)
0x8000d6ee:  e85a              sd                      s6,16(sp)
0x8000d6f0:  0880              addi                    s0,sp,80
0x8000d6f2:  89aa              mv                      s3,a0
0x8000d6f4:  84ae              mv                      s1,a1
0x8000d6f6:  8932              mv                      s2,a2
0x8000d6f8:  8a36              mv                      s4,a3
0x8000d6fa:  9bffe0ef          jal                     ra,-5698                # 0x8000c0b8

----------------
IN: 
Priv: 3; Virt: 0
0x8000d6fe:  87aa              mv                      a5,a0
0x8000d700:  00054563          bltz                    a0,10                   # 0x8000d70a

----------------
IN: 
Priv: 3; Virt: 0
0x8000d704:  57fd              addi                    a5,zero,-1
0x8000d706:  00095d63          bgez                    s2,26                   # 0x8000d720

----------------
IN: 
Priv: 3; Virt: 0
0x8000d720:  fa042e23          sw                      zero,-68(s0)
0x8000d724:  5b4d              addi                    s6,zero,-13
0x8000d726:  4781              mv                      a5,zero
0x8000d728:  fbc40a93          addi                    s5,s0,-68
0x8000d72c:  85be              mv                      a1,a5
0x8000d72e:  8656              mv                      a2,s5
0x8000d730:  854e              mv                      a0,s3
0x8000d732:  02f4c763          bgt                     a5,s1,46                # 0x8000d760

----------------
IN: 
Priv: 3; Virt: 0
0x8000d736:  fbc42703          lw                      a4,-68(s0)
0x8000d73a:  02e90163          beq                     s2,a4,34                # 0x8000d75c

----------------
IN: 
Priv: 3; Virt: 0
0x8000d75c:  8b3e              mv                      s6,a5
0x8000d75e:  b7c5              j                       -32                     # 0x8000d73e

----------------
IN: 
Priv: 3; Virt: 0
0x8000d73e:  02f48363          beq                     s1,a5,38                # 0x8000d764

----------------
IN: 
Priv: 3; Virt: 0
0x8000d742:  fabfe0ef          jal                     ra,-4182                # 0x8000c6ec

----------------
IN: 
Priv: 3; Virt: 0
0x8000d746:  87aa              mv                      a5,a0
0x8000d748:  fe0552e3          bgez                    a0,-28                  # 0x8000d72c

----------------
IN: 
Priv: 3; Virt: 0
0x8000d72c:  85be              mv                      a1,a5
0x8000d72e:  8656              mv                      a2,s5
0x8000d730:  854e              mv                      a0,s3
0x8000d732:  02f4c763          bgt                     a5,s1,46                # 0x8000d760

----------------
IN: 
Priv: 3; Virt: 0
0x8000d764:  000a0463          beqz                    s4,8                    # 0x8000d76c

----------------
IN: 
Priv: 3; Virt: 0
0x8000d768:  00ea2023          sw                      a4,0(s4)
0x8000d76c:  01274463          bgt                     s2,a4,8                 # 0x8000d774

----------------
IN: 
Priv: 3; Virt: 0
0x8000d770:  87da              mv                      a5,s6
0x8000d772:  bf61              j                       -104                    # 0x8000d70a

----------------
IN: 
Priv: 3; Virt: 0
0x8000d70a:  60a6              ld                      ra,72(sp)
0x8000d70c:  6406              ld                      s0,64(sp)
0x8000d70e:  74e2              ld                      s1,56(sp)
0x8000d710:  7942              ld                      s2,48(sp)
0x8000d712:  79a2              ld                      s3,40(sp)
0x8000d714:  7a02              ld                      s4,32(sp)
0x8000d716:  6ae2              ld                      s5,24(sp)
0x8000d718:  6b42              ld                      s6,16(sp)
0x8000d71a:  853e              mv                      a0,a5
0x8000d71c:  6161              addi                    sp,sp,80
0x8000d71e:  8082              ret                     

----------------
IN: 
Priv: 3; Virt: 0
0x8000d7c0:  e115              bnez                    a0,36                   # 0x8000d7e4

----------------
IN: 
Priv: 3; Virt: 0
0x8000d7c2:  fdc42503          lw                      a0,-36(s0)
0x8000d7c6:  00054963          bltz                    a0,18                   # 0x8000d7d8

----------------
IN: 
Priv: 3; Virt: 0
0x8000d7ca:  fff5061b          addiw                   a2,a0,-1
0x8000d7ce:  4681              mv                      a3,zero
0x8000d7d0:  85ca              mv                      a1,s2
0x8000d7d2:  8526              mv                      a0,s1
0x8000d7d4:  f0bff0ef          jal                     ra,-246                 # 0x8000d6de

----------------
IN: 
Priv: 3; Virt: 0
0x8000d76c:  01274463          bgt                     s2,a4,8                 # 0x8000d774

----------------
IN: 
Priv: 3; Virt: 0
0x8000d7d8:  70a2              ld                      ra,40(sp)
0x8000d7da:  7402              ld                      s0,32(sp)
0x8000d7dc:  64e2              ld                      s1,24(sp)
0x8000d7de:  6942              ld                      s2,16(sp)
0x8000d7e0:  6145              addi                    sp,sp,48
0x8000d7e2:  8082              ret                     

----------------
IN: 
Priv: 3; Virt: 0
0x800104c2:  8daa              mv                      s11,a0
0x800104c4:  24054063          bltz                    a0,576                  # 0x80010704

----------------
IN: 
Priv: 3; Virt: 0
0x800104c8:  85aa              mv                      a1,a0
0x800104ca:  854e              mv                      a0,s3
0x800104cc:  701020ef          jal                     ra,12032                # 0x800133cc

----------------
IN: 
Priv: 3; Virt: 0
0x800133cc:  1141              addi                    sp,sp,-16
0x800133ce:  e022              sd                      s0,0(sp)
0x800133d0:  e406              sd                      ra,8(sp)
0x800133d2:  0800              addi                    s0,sp,16
0x800133d4:  00004617          auipc                   a2,4                    # 0x800173d4
0x800133d8:  dac60613          addi                    a2,a2,-596
0x800133dc:  f8fff0ef          jal                     ra,-114                 # 0x8001336a

----------------
IN: 
Priv: 3; Virt: 0
0x8001336a:  1101              addi                    sp,sp,-32
0x8001336c:  e822              sd                      s0,16(sp)
0x8001336e:  ec06              sd                      ra,24(sp)
0x80013370:  1000              addi                    s0,sp,32
0x80013372:  fec40693          addi                    a3,s0,-20
0x80013376:  f2df90ef          jal                     ra,-24788               # 0x8000d2a2

----------------
IN: 
Priv: 3; Virt: 0
0x8001337a:  c129              beqz                    a0,66                   # 0x800133bc

----------------
IN: 
Priv: 3; Virt: 0
0x8001337c:  fec42683          lw                      a3,-20(s0)
0x80013380:  4791              addi                    a5,zero,4
0x80013382:  04f69363          bne                     a3,a5,70                # 0x800133c8

----------------
IN: 
Priv: 3; Virt: 0
0x80013386:  411c              lw                      a5,0(a0)
0x80013388:  0087d713          srli                    a4,a5,8
0x8001338c:  0187951b          slliw                   a0,a5,24
0x80013390:  0187d61b          srliw                   a2,a5,24
0x80013394:  0ff77713          andi                    a4,a4,255
0x80013398:  83c1              srli                    a5,a5,16
0x8001339a:  8d51              or                      a0,a0,a2
0x8001339c:  0107171b          slliw                   a4,a4,16
0x800133a0:  0ff7f793          andi                    a5,a5,255
0x800133a4:  8d59              or                      a0,a0,a4
0x800133a6:  0087979b          slliw                   a5,a5,8
0x800133aa:  8d5d              or                      a0,a0,a5
0x800133ac:  2501              sext.w                  a0,a0
0x800133ae:  00a6ed63          bgtu                    a0,a3,26                # 0x800133c8

----------------
IN: 
Priv: 3; Virt: 0
0x800133b2:  2501              sext.w                  a0,a0
0x800133b4:  60e2              ld                      ra,24(sp)
0x800133b6:  6442              ld                      s0,16(sp)
0x800133b8:  6105              addi                    sp,sp,32
0x800133ba:  8082              ret                     

----------------
IN: 
Priv: 3; Virt: 0
0x800133e0:  cd09              beqz                    a0,26                   # 0x800133fa

----------------
IN: 
Priv: 3; Virt: 0
0x800133e2:  57fd              addi                    a5,zero,-1
0x800133e4:  00f50663          beq                     a0,a5,12                # 0x800133f0

----------------
IN: 
Priv: 3; Virt: 0
0x800133e8:  60a2              ld                      ra,8(sp)
0x800133ea:  6402              ld                      s0,0(sp)
0x800133ec:  0141              addi                    sp,sp,16
0x800133ee:  8082              ret                     

----------------
IN: 
Priv: 3; Virt: 0
0x800104d0:  8baa              mv                      s7,a0
0x800104d2:  26a05963          blez                    a0,626                  # 0x80010744

----------------
IN: 
Priv: 3; Virt: 0
0x800104d6:  85ee              mv                      a1,s11
0x800104d8:  854e              mv                      a0,s3
0x800104da:  725020ef          jal                     ra,12068                # 0x800133fe

----------------
IN: 
Priv: 3; Virt: 0
0x800133fe:  1141              addi                    sp,sp,-16
0x80013400:  e022              sd                      s0,0(sp)
0x80013402:  e406              sd                      ra,8(sp)
0x80013404:  0800              addi                    s0,sp,16
0x80013406:  00004617          auipc                   a2,4                    # 0x80017406
0x8001340a:  d6a60613          addi                    a2,a2,-662
0x8001340e:  f5dff0ef          jal                     ra,-164                 # 0x8001336a

----------------
IN: 
Priv: 3; Virt: 0
0x80013412:  57fd              addi                    a5,zero,-1
0x80013414:  00f50663          beq                     a0,a5,12                # 0x80013420

----------------
IN: 
Priv: 3; Virt: 0
0x80013418:  60a2              ld                      ra,8(sp)
0x8001341a:  6402              ld                      s0,0(sp)
0x8001341c:  0141              addi                    sp,sp,16
0x8001341e:  8082              ret                     

----------------
IN: 
Priv: 3; Virt: 0
0x800104de:  8b2a              mv                      s6,a0
0x800104e0:  26054263          bltz                    a0,612                  # 0x80010744

----------------
IN: 
Priv: 3; Virt: 0
0x800104e4:  f8840693          addi                    a3,s0,-120
0x800104e8:  00006617          auipc                   a2,6                    # 0x800164e8
0x800104ec:  7a060613          addi                    a2,a2,1952
0x800104f0:  85a6              mv                      a1,s1
0x800104f2:  854e              mv                      a0,s3
0x800104f4:  daffc0ef          jal                     ra,-12882               # 0x8000d2a2

----------------
IN: 
Priv: 3; Virt: 0
0x800104f8:  24050663          beqz                    a0,588                  # 0x80010744

----------------
IN: 
Priv: 3; Virt: 0
0x800104fc:  016b863b          addw                    a2,s7,s6
0x80010500:  0326093b          mulw                    s2,a2,s2
0x80010504:  f8842783          lw                      a5,-120(s0)
0x80010508:  8389              srli                    a5,a5,2
0x8001050a:  22f97463          bleu                    a5,s2,552               # 0x80010732

----------------
IN: 
Priv: 3; Virt: 0
0x8001050e:  090a              slli                    s2,s2,2
0x80010510:  012507b3          add                     a5,a0,s2
0x80010514:  f6f43c23          sd                      a5,-136(s0)
0x80010518:  180a8463          beqz                    s5,392                  # 0x800106a0

----------------
IN: 
Priv: 3; Virt: 0
0x8001051c:  fffb859b          addiw                   a1,s7,-1
0x80010520:  1582              slli                    a1,a1,32
0x80010522:  9181              srli                    a1,a1,32
0x80010524:  0585              addi                    a1,a1,1
0x80010526:  058a              slli                    a1,a1,2
0x80010528:  95be              add                     a1,a1,a5
0x8001052a:  863e              mv                      a2,a5
0x8001052c:  4901              mv                      s2,zero
0x8001052e:  421c              lw                      a5,0(a2)
0x80010530:  1902              slli                    s2,s2,32
0x80010532:  0611              addi                    a2,a2,4
0x80010534:  0087d693          srli                    a3,a5,8
0x80010538:  0187971b          slliw                   a4,a5,24
0x8001053c:  0187d51b          srliw                   a0,a5,24
0x80010540:  0ff6f693          andi                    a3,a3,255
0x80010544:  83c1              srli                    a5,a5,16
0x80010546:  8f49              or                      a4,a4,a0
0x80010548:  0106969b          slliw                   a3,a3,16
0x8001054c:  0ff7f793          andi                    a5,a5,255
0x80010550:  8f55              or                      a4,a4,a3
0x80010552:  0087979b          slliw                   a5,a5,8
0x80010556:  8fd9              or                      a5,a5,a4
0x80010558:  1782              slli                    a5,a5,32
0x8001055a:  9381              srli                    a5,a5,32
0x8001055c:  0127e933          or                      s2,a5,s2
0x80010560:  fcb617e3          bne                     a2,a1,-50               # 0x8001052e

----------------
IN: 
Priv: 3; Virt: 0
0x8001052e:  421c              lw                      a5,0(a2)
0x80010530:  1902              slli                    s2,s2,32
0x80010532:  0611              addi                    a2,a2,4
0x80010534:  0087d693          srli                    a3,a5,8
0x80010538:  0187971b          slliw                   a4,a5,24
0x8001053c:  0187d51b          srliw                   a0,a5,24
0x80010540:  0ff6f693          andi                    a3,a3,255
0x80010544:  83c1              srli                    a5,a5,16
0x80010546:  8f49              or                      a4,a4,a0
0x80010548:  0106969b          slliw                   a3,a3,16
0x8001054c:  0ff7f793          andi                    a5,a5,255
0x80010550:  8f55              or                      a4,a4,a3
0x80010552:  0087979b          slliw                   a5,a5,8
0x80010556:  8fd9              or                      a5,a5,a4
0x80010558:  1782              slli                    a5,a5,32
0x8001055a:  9381              srli                    a5,a5,32
0x8001055c:  0127e933          or                      s2,a5,s2
0x80010560:  fcb617e3          bne                     a2,a1,-50               # 0x8001052e

----------------
IN: 
Priv: 3; Virt: 0
0x80010564:  f8c40d13          addi                    s10,s0,-116
0x80010568:  00007c97          auipc                   s9,7                    # 0x80017568
0x8001056c:  a50c8c93          addi                    s9,s9,-1456
0x80010570:  85ee              mv                      a1,s11
0x80010572:  854e              mv                      a0,s3
0x80010574:  659020ef          jal                     ra,11864                # 0x800133cc

----------------
IN: 
Priv: 3; Virt: 0
0x80010578:  84aa              mv                      s1,a0
0x8001057a:  12a05363          blez                    a0,294                  # 0x800106a0

----------------
IN: 
Priv: 3; Virt: 0
0x8001057e:  85ee              mv                      a1,s11
0x80010580:  854e              mv                      a0,s3
0x80010582:  67d020ef          jal                     ra,11900                # 0x800133fe

----------------
IN: 
Priv: 3; Virt: 0
0x80010586:  8a2a              mv                      s4,a0
0x80010588:  10054c63          bltz                    a0,280                  # 0x800106a0

----------------
IN: 
Priv: 3; Virt: 0
0x8001058c:  86ea              mv                      a3,s10
0x8001058e:  8666              mv                      a2,s9
0x80010590:  85ee              mv                      a1,s11
0x80010592:  854e              mv                      a0,s3
0x80010594:  d0ffc0ef          jal                     ra,-13042               # 0x8000d2a2

----------------
IN: 
Priv: 3; Virt: 0
0x80010598:  18050663          beqz                    a0,396                  # 0x80010724

----------------
IN: 
Priv: 3; Virt: 0
0x8001059c:  f8c42783          lw                      a5,-116(s0)
0x800105a0:  18f05263          blez                    a5,388                  # 0x80010724

----------------
IN: 
Priv: 3; Virt: 0
0x80010724:  012ab023          sd                      s2,0(s5)
0x80010728:  b79d              j                       -154                    # 0x8001068e

----------------
IN: 
Priv: 3; Virt: 0
0x8001068e:  85ee              mv                      a1,s11
0x80010690:  854e              mv                      a0,s3
0x80010692:  914fd0ef          jal                     ra,-12012               # 0x8000d7a6

----------------
IN: 
Priv: 3; Virt: 0
0x80010696:  8daa              mv                      s11,a0
0x80010698:  000ab903          ld                      s2,0(s5)
0x8001069c:  ec055ae3          bgez                    a0,-300                 # 0x80010570

----------------
IN: 
Priv: 3; Virt: 0
0x80010570:  85ee              mv                      a1,s11
0x80010572:  854e              mv                      a0,s3
0x80010574:  659020ef          jal                     ra,11864                # 0x800133cc

----------------
IN: 
Priv: 3; Virt: 0
0x8000c9b0:  03379263          bne                     a5,s3,36                # 0x8000c9d4

----------------
IN: 
Priv: 3; Virt: 0
0x8000c9d4:  fbc42483          lw                      s1,-68(s0)
0x8000c9d8:  fd6783e3          beq                     a5,s6,-58               # 0x8000c99e

----------------
IN: 
Priv: 3; Virt: 0
0x8000c9dc:  557d              addi                    a0,zero,-1
0x8000c9de:  bff9              j                       -34                     # 0x8000c9bc

----------------
IN: 
Priv: 3; Virt: 0
0x8000d046:  4c01              mv                      s8,zero
0x8000d048:  fe0901e3          beqz                    s2,-30                  # 0x8000d02a

----------------
IN: 
Priv: 3; Virt: 0
0x8000d04c:  01792023          sw                      s7,0(s2)
0x8000d050:  bfe9              j                       -38                     # 0x8000d02a

----------------
IN: 
Priv: 3; Virt: 0
0x8000d02a:  60e6              ld                      ra,88(sp)
0x8000d02c:  6446              ld                      s0,80(sp)
0x8000d02e:  64a6              ld                      s1,72(sp)
0x8000d030:  6906              ld                      s2,64(sp)
0x8000d032:  79e2              ld                      s3,56(sp)
0x8000d034:  7a42              ld                      s4,48(sp)
0x8000d036:  7aa2              ld                      s5,40(sp)
0x8000d038:  7b02              ld                      s6,32(sp)
0x8000d03a:  6be2              ld                      s7,24(sp)
0x8000d03c:  8562              mv                      a0,s8
0x8000d03e:  6c42              ld                      s8,16(sp)
0x8000d040:  6125              addi                    sp,sp,96
0x8000d042:  8082              ret                     

----------------
IN: 
Priv: 3; Virt: 0
0x8000d1a8:  70a2              ld                      ra,40(sp)
0x8000d1aa:  7402              ld                      s0,32(sp)
0x8000d1ac:  64e2              ld                      s1,24(sp)
0x8000d1ae:  6145              addi                    sp,sp,48
0x8000d1b0:  8082              ret                     

----------------
IN: 
Priv: 3; Virt: 0
0x800106a0:  4d81              mv                      s11,zero
0x800106a2:  060c0163          beqz                    s8,98                   # 0x80010704

----------------
IN: 
Priv: 3; Virt: 0
0x800106a6:  080b0463          beqz                    s6,136                  # 0x8001072e

----------------
IN: 
Priv: 3; Virt: 0
0x800106aa:  fffb059b          addiw                   a1,s6,-1
0x800106ae:  f7843783          ld                      a5,-136(s0)
0x800106b2:  1582              slli                    a1,a1,32
0x800106b4:  9181              srli                    a1,a1,32
0x800106b6:  0b8a              slli                    s7,s7,2
0x800106b8:  0585              addi                    a1,a1,1
0x800106ba:  01778a33          add                     s4,a5,s7
0x800106be:  058a              slli                    a1,a1,2
0x800106c0:  95d2              add                     a1,a1,s4
0x800106c2:  4701              mv                      a4,zero
0x800106c4:  000a2783          lw                      a5,0(s4)
0x800106c8:  02071613          slli                    a2,a4,32
0x800106cc:  0a11              addi                    s4,s4,4
0x800106ce:  0087d693          srli                    a3,a5,8
0x800106d2:  0187971b          slliw                   a4,a5,24
0x800106d6:  0187d51b          srliw                   a0,a5,24
0x800106da:  0ff6f693          andi                    a3,a3,255
0x800106de:  83c1              srli                    a5,a5,16
0x800106e0:  8f49              or                      a4,a4,a0
0x800106e2:  0106969b          slliw                   a3,a3,16
0x800106e6:  0ff7f793          andi                    a5,a5,255
0x800106ea:  8f55              or                      a4,a4,a3
0x800106ec:  0087979b          slliw                   a5,a5,8
0x800106f0:  8fd9              or                      a5,a5,a4
0x800106f2:  1782              slli                    a5,a5,32
0x800106f4:  9381              srli                    a5,a5,32
0x800106f6:  00c7e733          or                      a4,a5,a2
0x800106fa:  fcba15e3          bne                     s4,a1,-54               # 0x800106c4

----------------
IN: 
Priv: 3; Virt: 0
0x800106c4:  000a2783          lw                      a5,0(s4)
0x800106c8:  02071613          slli                    a2,a4,32
0x800106cc:  0a11              addi                    s4,s4,4
0x800106ce:  0087d693          srli                    a3,a5,8
0x800106d2:  0187971b          slliw                   a4,a5,24
0x800106d6:  0187d51b          srliw                   a0,a5,24
0x800106da:  0ff6f693          andi                    a3,a3,255
0x800106de:  83c1              srli                    a5,a5,16
0x800106e0:  8f49              or                      a4,a4,a0
0x800106e2:  0106969b          slliw                   a3,a3,16
0x800106e6:  0ff7f793          andi                    a5,a5,255
0x800106ea:  8f55              or                      a4,a4,a3
0x800106ec:  0087979b          slliw                   a5,a5,8
0x800106f0:  8fd9              or                      a5,a5,a4
0x800106f2:  1782              slli                    a5,a5,32
0x800106f4:  9381              srli                    a5,a5,32
0x800106f6:  00c7e733          or                      a4,a5,a2
0x800106fa:  fcba15e3          bne                     s4,a1,-54               # 0x800106c4

----------------
IN: 
Priv: 3; Virt: 0
0x800106fe:  00ec3023          sd                      a4,0(s8)
0x80010702:  4d81              mv                      s11,zero
0x80010704:  60aa              ld                      ra,136(sp)
0x80010706:  640a              ld                      s0,128(sp)
0x80010708:  74e6              ld                      s1,120(sp)
0x8001070a:  7946              ld                      s2,112(sp)
0x8001070c:  79a6              ld                      s3,104(sp)
0x8001070e:  7a06              ld                      s4,96(sp)
0x80010710:  6ae6              ld                      s5,88(sp)
0x80010712:  6b46              ld                      s6,80(sp)
0x80010714:  6ba6              ld                      s7,72(sp)
0x80010716:  6c06              ld                      s8,64(sp)
0x80010718:  7ce2              ld                      s9,56(sp)
0x8001071a:  7d42              ld                      s10,48(sp)
0x8001071c:  856e              mv                      a0,s11
0x8001071e:  7da2              ld                      s11,40(sp)
0x80010720:  6149              addi                    sp,sp,144
0x80010722:  8082              ret                     

----------------
IN: 
Priv: 3; Virt: 0
0x80010782:  0e054163          bltz                    a0,226                  # 0x80010864

----------------
IN: 
Priv: 3; Virt: 0
0x80010786:  fb043783          ld                      a5,-80(s0)
0x8001078a:  cfe9              beqz                    a5,218                  # 0x80010864

----------------
IN: 
Priv: 3; Virt: 0
0x8001078c:  fb843703          ld                      a4,-72(s0)
0x80010790:  cb71              beqz                    a4,212                  # 0x80010864

----------------
IN: 
Priv: 3; Virt: 0
0x80010792:  fac40a93          addi                    s5,s0,-84
0x80010796:  e09c              sd                      a5,0(s1)
0x80010798:  86d6              mv                      a3,s5
0x8001079a:  00007617          auipc                   a2,7                    # 0x8001779a
0x8001079e:  84660613          addi                    a2,a2,-1978
0x800107a2:  85ca              mv                      a1,s2
0x800107a4:  854e              mv                      a0,s3
0x800107a6:  afdfc0ef          jal                     ra,-13572               # 0x8000d2a2

----------------
IN: 
Priv: 3; Virt: 0
0x800107aa:  fac42783          lw                      a5,-84(s0)
0x800107ae:  06f05363          blez                    a5,102                  # 0x80010814

----------------
IN: 
Priv: 3; Virt: 0
0x800107b2:  c12d              beqz                    a0,98                   # 0x80010814

----------------
IN: 
Priv: 3; Virt: 0
0x800107b4:  411c              lw                      a5,0(a0)
0x800107b6:  85ca              mv                      a1,s2
0x800107b8:  854e              mv                      a0,s3
0x800107ba:  0087d713          srli                    a4,a5,8
0x800107be:  0187d69b          srliw                   a3,a5,24
0x800107c2:  0187961b          slliw                   a2,a5,24
0x800107c6:  0ff77713          andi                    a4,a4,255
0x800107ca:  83c1              srli                    a5,a5,16
0x800107cc:  8e55              or                      a2,a2,a3
0x800107ce:  0107171b          slliw                   a4,a4,16
0x800107d2:  0ff7f793          andi                    a5,a5,255
0x800107d6:  8e59              or                      a2,a2,a4
0x800107d8:  0087979b          slliw                   a5,a5,8
0x800107dc:  8fd1              or                      a5,a5,a2
0x800107de:  1782              slli                    a5,a5,32
0x800107e0:  9381              srli                    a5,a5,32
0x800107e2:  e49c              sd                      a5,8(s1)
0x800107e4:  86d6              mv                      a3,s5
0x800107e6:  00007617          auipc                   a2,7                    # 0x800177e6
0x800107ea:  80a60613          addi                    a2,a2,-2038
0x800107ee:  ab5fc0ef          jal                     ra,-13644               # 0x8000d2a2

----------------
IN: 
Priv: 3; Virt: 0
0x800107f2:  fac42783          lw                      a5,-84(s0)
0x800107f6:  02f04e63          bgtz                    a5,60                   # 0x80010832

----------------
IN: 
Priv: 3; Virt: 0
0x800107fa:  0144b823          sd                      s4,16(s1)
0x800107fe:  4501              mv                      a0,zero
0x80010800:  60e6              ld                      ra,88(sp)
0x80010802:  6446              ld                      s0,80(sp)
0x80010804:  64a6              ld                      s1,72(sp)
0x80010806:  6906              ld                      s2,64(sp)
0x80010808:  79e2              ld                      s3,56(sp)
0x8001080a:  7a42              ld                      s4,48(sp)
0x8001080c:  7aa2              ld                      s5,40(sp)
0x8001080e:  7b02              ld                      s6,32(sp)
0x80010810:  6125              addi                    sp,sp,96
0x80010812:  8082              ret                     

----------------
IN: 
Priv: 3; Virt: 0
0x80010b48:  84aa              mv                      s1,a0
0x80010b4a:  c919              beqz                    a0,22                   # 0x80010b60

----------------
IN: 
Priv: 3; Virt: 0
0x80010b60:  fbc40a93          addi                    s5,s0,-68
0x80010b64:  86d6              mv                      a3,s5
0x80010b66:  00006617          auipc                   a2,6                    # 0x80016b66
0x80010b6a:  4da60613          addi                    a2,a2,1242
0x80010b6e:  85ce              mv                      a1,s3
0x80010b70:  854a              mv                      a0,s2
0x80010b72:  f30fc0ef          jal                     ra,-14544               # 0x8000d2a2

----------------
IN: 
Priv: 3; Virt: 0
0x80010b76:  fbc42783          lw                      a5,-68(s0)
0x80010b7a:  0cf05563          blez                    a5,202                  # 0x80010c44

----------------
IN: 
Priv: 3; Virt: 0
0x80010c44:  000a3c23          sd                      zero,24(s4)
0x80010c48:  86d6              mv                      a3,s5
0x80010c4a:  00006617          auipc                   a2,6                    # 0x80016c4a
0x80010c4e:  40660613          addi                    a2,a2,1030
0x80010c52:  85ce              mv                      a1,s3
0x80010c54:  854a              mv                      a0,s2
0x80010c56:  e4cfc0ef          jal                     ra,-14772               # 0x8000d2a2

----------------
IN: 
Priv: 3; Virt: 0
0x80010c5a:  fbc42783          lw                      a5,-68(s0)
0x80010c5e:  f6f045e3          bgtz                    a5,-150                 # 0x80010bc8

----------------
IN: 
Priv: 3; Virt: 0
0x80010c62:  4785              addi                    a5,zero,1
0x80010c64:  02fa3023          sd                      a5,32(s4)
0x80010c68:  86d6              mv                      a3,s5
0x80010c6a:  00006617          auipc                   a2,6                    # 0x80016c6a
0x80010c6e:  3f660613          addi                    a2,a2,1014
0x80010c72:  85ce              mv                      a1,s3
0x80010c74:  854a              mv                      a0,s2
0x80010c76:  e2cfc0ef          jal                     ra,-14804               # 0x8000d2a2

----------------
IN: 
Priv: 3; Virt: 0
0x80010c7a:  fbc42783          lw                      a5,-68(s0)
0x80010c7e:  f8f04ae3          bgtz                    a5,-108                 # 0x80010c12

----------------
IN: 
Priv: 3; Virt: 0
0x80010c82:  020a3423          sd                      zero,40(s4)
0x80010c86:  b5d9              j                       -314                    # 0x80010b4c

----------------
IN: 
Priv: 3; Virt: 0
0x80010b4c:  60a6              ld                      ra,72(sp)
0x80010b4e:  6406              ld                      s0,64(sp)
0x80010b50:  7942              ld                      s2,48(sp)
0x80010b52:  79a2              ld                      s3,40(sp)
0x80010b54:  7a02              ld                      s4,32(sp)
0x80010b56:  6ae2              ld                      s5,24(sp)
0x80010b58:  8526              mv                      a0,s1
0x80010b5a:  74e2              ld                      s1,56(sp)
0x80010b5c:  6161              addi                    sp,sp,80
0x80010b5e:  8082              ret                     

----------------
IN: 
Priv: 3; Virt: 0
0x8000aedc:  ed19              bnez                    a0,30                   # 0x8000aefa

----------------
IN: 
Priv: 3; Virt: 0
0x8000aede:  fe842783          lw                      a5,-24(s0)
0x8000aee2:  fe042703          lw                      a4,-32(s0)
0x8000aee6:  fd842683          lw                      a3,-40(s0)
0x8000aeea:  fd042603          lw                      a2,-48(s0)
0x8000aeee:  fc842583          lw                      a1,-56(s0)
0x8000aef2:  fc043503          ld                      a0,-64(s0)
0x8000aef6:  66e000ef          jal                     ra,1646                 # 0x8000b564

----------------
IN: 
Priv: 3; Virt: 0
0x8000b564:  1101              addi                    sp,sp,-32
0x8000b566:  1782              slli                    a5,a5,32
0x8000b568:  e822              sd                      s0,16(sp)
0x8000b56a:  ec06              sd                      ra,24(sp)
0x8000b56c:  e426              sd                      s1,8(sp)
0x8000b56e:  1000              addi                    s0,sp,32
0x8000b570:  9381              srli                    a5,a5,32
0x8000b572:  0001e817          auipc                   a6,30                   # 0x80029572
0x8000b576:  40e80813          addi                    a6,a6,1038
0x8000b57a:  97aa              add                     a5,a5,a0
0x8000b57c:  00f83423          sd                      a5,8(a6)
0x8000b580:  00d82823          sw                      a3,16(a6)
0x8000b584:  00e82023          sw                      a4,0(a6)
0x8000b588:  ee21              bnez                    a2,88                   # 0x8000b5e0

----------------
IN: 
Priv: 3; Virt: 0
0x8000b5e0:  0036149b          slliw                   s1,a2,3
0x8000b5e4:  9cad              addw                    s1,s1,a1
0x8000b5e6:  0046161b          slliw                   a2,a2,4
0x8000b5ea:  02c4d63b          divuw                   a2,s1,a2
0x8000b5ee:  4581              mv                      a1,zero
0x8000b5f0:  4505              addi                    a0,zero,1
0x8000b5f2:  03061493          slli                    s1,a2,48
0x8000b5f6:  ec5ff0ef          jal                     ra,-316                 # 0x8000b4ba

----------------
IN: 
Priv: 3; Virt: 0
0x8000b4ba:  1141              addi                    sp,sp,-16
0x8000b4bc:  e422              sd                      s0,8(sp)
0x8000b4be:  0800              addi                    s0,sp,16
0x8000b4c0:  0001e797          auipc                   a5,30                   # 0x800294c0
0x8000b4c4:  4c078793          addi                    a5,a5,1216
0x8000b4c8:  4b94              lw                      a3,16(a5)
0x8000b4ca:  4398              lw                      a4,0(a5)
0x8000b4cc:  00d5153b          sllw                    a0,a0,a3
0x8000b4d0:  1502              slli                    a0,a0,32
0x8000b4d2:  4685              addi                    a3,zero,1
0x8000b4d4:  9101              srli                    a0,a0,32
0x8000b4d6:  02d70663          beq                     a4,a3,44                # 0x8000b502

----------------
IN: 
Priv: 3; Virt: 0
0x8000b502:  0140000f          fence                   w,o
0x8000b506:  679c              ld                      a5,8(a5)
0x8000b508:  953e              add                     a0,a0,a5
0x8000b50a:  00b50023          sb                      a1,0(a0)
0x8000b50e:  6422              ld                      s0,8(sp)
0x8000b510:  0141              addi                    sp,sp,16
0x8000b512:  8082              ret                     

----------------
IN: 
Priv: 3; Virt: 0
0x8000b50a:  00b50023          sb                      a1,0(a0)

----------------
IN: 
Priv: 3; Virt: 0
0x8000b50e:  6422              ld                      s0,8(sp)
0x8000b510:  0141              addi                    sp,sp,16
0x8000b512:  8082              ret                     

----------------
IN: 
Priv: 3; Virt: 0
0x8000b5fa:  90c1              srli                    s1,s1,48
0x8000b5fc:  08000593          addi                    a1,zero,128
0x8000b600:  450d              addi                    a0,zero,3
0x8000b602:  eb9ff0ef          jal                     ra,-328                 # 0x8000b4ba

----------------
IN: 
Priv: 3; Virt: 0
0x8000b606:  d8d9              beqz                    s1,-106                 # 0x8000b59c

----------------
IN: 
Priv: 3; Virt: 0
0x8000b608:  0ff4f593          andi                    a1,s1,255
0x8000b60c:  4501              mv                      a0,zero
0x8000b60e:  eadff0ef          jal                     ra,-340                 # 0x8000b4ba

----------------
IN: 
Priv: 3; Virt: 0
0x8000b612:  0084d593          srli                    a1,s1,8
0x8000b616:  4505              addi                    a0,zero,1
0x8000b618:  ea3ff0ef          jal                     ra,-350                 # 0x8000b4ba

----------------
IN: 
Priv: 3; Virt: 0
0x8000b61c:  b741              j                       -128                    # 0x8000b59c

----------------
IN: 
Priv: 3; Virt: 0
0x8000b59c:  458d              addi                    a1,zero,3
0x8000b59e:  450d              addi                    a0,zero,3
0x8000b5a0:  f1bff0ef          jal                     ra,-230                 # 0x8000b4ba

----------------
IN: 
Priv: 3; Virt: 0
0x8000b5a4:  4585              addi                    a1,zero,1
0x8000b5a6:  4509              addi                    a0,zero,2
0x8000b5a8:  f13ff0ef          jal                     ra,-238                 # 0x8000b4ba

----------------
IN: 
Priv: 3; Virt: 0
0x8000b5ac:  4581              mv                      a1,zero
0x8000b5ae:  4511              addi                    a0,zero,4
0x8000b5b0:  f0bff0ef          jal                     ra,-246                 # 0x8000b4ba

----------------
IN: 
Priv: 3; Virt: 0
0x8000b5b4:  4515              addi                    a0,zero,5
0x8000b5b6:  ea3ff0ef          jal                     ra,-350                 # 0x8000b458

----------------
IN: 
Priv: 3; Virt: 0
0x8000b458:  1141              addi                    sp,sp,-16
0x8000b45a:  e422              sd                      s0,8(sp)
0x8000b45c:  0800              addi                    s0,sp,16
0x8000b45e:  0001e717          auipc                   a4,30                   # 0x8002945e
0x8000b462:  52270713          addi                    a4,a4,1314
0x8000b466:  4b14              lw                      a3,16(a4)
0x8000b468:  671c              ld                      a5,8(a4)
0x8000b46a:  4318              lw                      a4,0(a4)
0x8000b46c:  00d5153b          sllw                    a0,a0,a3
0x8000b470:  1502              slli                    a0,a0,32
0x8000b472:  9101              srli                    a0,a0,32
0x8000b474:  4685              addi                    a3,zero,1
0x8000b476:  97aa              add                     a5,a5,a0
0x8000b478:  02d70763          beq                     a4,a3,46                # 0x8000b4a6

----------------
IN: 
Priv: 3; Virt: 0
0x8000b4a6:  00078503          lb                      a0,0(a5)
0x8000b4aa:  0ff57513          andi                    a0,a0,255
0x8000b4ae:  0820000f          fence                   i,r
0x8000b4b2:  6422              ld                      s0,8(sp)
0x8000b4b4:  2501              sext.w                  a0,a0
0x8000b4b6:  0141              addi                    sp,sp,16
0x8000b4b8:  8082              ret                     

----------------
IN: 
Priv: 3; Virt: 0
0x8000b4a6:  00078503          lb                      a0,0(a5)

----------------
IN: 
Priv: 3; Virt: 0
0x8000b4aa:  0ff57513          andi                    a0,a0,255
0x8000b4ae:  0820000f          fence                   i,r
0x8000b4b2:  6422              ld                      s0,8(sp)
0x8000b4b4:  2501              sext.w                  a0,a0
0x8000b4b6:  0141              addi                    sp,sp,16
0x8000b4b8:  8082              ret                     

----------------
IN: 
Priv: 3; Virt: 0
0x8000b5ba:  4501              mv                      a0,zero
0x8000b5bc:  e9dff0ef          jal                     ra,-356                 # 0x8000b458

----------------
IN: 
Priv: 3; Virt: 0
0x8000b5c0:  4581              mv                      a1,zero
0x8000b5c2:  451d              addi                    a0,zero,7
0x8000b5c4:  ef7ff0ef          jal                     ra,-266                 # 0x8000b4ba

----------------
IN: 
Priv: 3; Virt: 0
0x8000b5c8:  0000d517          auipc                   a0,13                   # 0x800185c8
0x8000b5cc:  49850513          addi                    a0,a0,1176
0x8000b5d0:  999fa0ef          jal                     ra,-22120               # 0x80005f68

----------------
IN: 
Priv: 3; Virt: 0
0x80005f68:  1141              addi                    sp,sp,-16
0x80005f6a:  e422              sd                      s0,8(sp)
0x80005f6c:  0800              addi                    s0,sp,16
0x80005f6e:  c519              beqz                    a0,14                   # 0x80005f7c

----------------
IN: 
Priv: 3; Virt: 0
0x80005f70:  00023797          auipc                   a5,35                   # 0x80028f70
0x80005f74:  d2878793          addi                    a5,a5,-728
0x80005f78:  6398              ld                      a4,0(a5)
0x80005f7a:  c701              beqz                    a4,8                    # 0x80005f82

----------------
IN: 
Priv: 3; Virt: 0
0x80005f82:  e388              sd                      a0,0(a5)
0x80005f84:  6422              ld                      s0,8(sp)
0x80005f86:  0141              addi                    sp,sp,16
0x80005f88:  8082              ret                     

----------------
IN: 
Priv: 3; Virt: 0
0x8000b5d4:  60e2              ld                      ra,24(sp)
0x8000b5d6:  6442              ld                      s0,16(sp)
0x8000b5d8:  64a2              ld                      s1,8(sp)
0x8000b5da:  4501              mv                      a0,zero
0x8000b5dc:  6105              addi                    sp,sp,32
0x8000b5de:  8082              ret                     

----------------
IN: 
Priv: 3; Virt: 0
0x8000aefa:  70e2              ld                      ra,56(sp)
0x8000aefc:  7442              ld                      s0,48(sp)
0x8000aefe:  6121              addi                    sp,sp,64
0x8000af00:  8082              ret                     

----------------
IN: 
Priv: 3; Virt: 0
0x8000ac70:  01750a63          beq                     a0,s7,20                # 0x8000ac84

----------------
IN: 
Priv: 3; Virt: 0
0x8000ac74:  f919              bnez                    a0,-234                 # 0x8000ab8a

----------------
IN: 
Priv: 3; Virt: 0
0x8000ac76:  0000e997          auipc                   s3,14                   # 0x80018c76
0x8000ac7a:  a8a98993          addi                    s3,s3,-1398
0x8000ac7e:  0129b023          sd                      s2,0(s3)
0x8000ac82:  bded              j                       -262                    # 0x8000ab7c

----------------
IN: 
Priv: 3; Virt: 0
0x8000ab7c:  0001f797          auipc                   a5,31                   # 0x80029b7c
0x8000ab80:  dc478793          addi                    a5,a5,-572
0x8000ab84:  00f90f63          beq                     s2,a5,30                # 0x8000aba2

----------------
IN: 
Priv: 3; Virt: 0
0x8000ab88:  4501              mv                      a0,zero
0x8000ab8a:  60e6              ld                      ra,88(sp)
0x8000ab8c:  6446              ld                      s0,80(sp)
0x8000ab8e:  64a6              ld                      s1,72(sp)
0x8000ab90:  6906              ld                      s2,64(sp)
0x8000ab92:  79e2              ld                      s3,56(sp)
0x8000ab94:  7a42              ld                      s4,48(sp)
0x8000ab96:  7aa2              ld                      s5,40(sp)
0x8000ab98:  7b02              ld                      s6,32(sp)
0x8000ab9a:  6be2              ld                      s7,24(sp)
0x8000ab9c:  6c42              ld                      s8,16(sp)
0x8000ab9e:  6125              addi                    sp,sp,96
0x8000aba0:  8082              ret                     

----------------
IN: 
Priv: 3; Virt: 0
0x80005fa0:  60a2              ld                      ra,8(sp)
0x80005fa2:  6402              ld                      s0,0(sp)
0x80005fa4:  0141              addi                    sp,sp,16
0x80005fa6:  8082              ret                     

----------------
IN: 
Priv: 3; Virt: 0
0x80000694:  fd35              bnez                    a0,-132                 # 0x80000610

----------------
IN: 
Priv: 3; Virt: 0
0x80000696:  4585              addi                    a1,zero,1
0x80000698:  8526              mv                      a0,s1
0x8000069a:  43f010ef          jal                     ra,7230                 # 0x800022d8

----------------
IN: 
Priv: 3; Virt: 0
0x800022d8:  7179              addi                    sp,sp,-48
0x800022da:  f022              sd                      s0,32(sp)
0x800022dc:  f406              sd                      ra,40(sp)
0x800022de:  ec26              sd                      s1,24(sp)
0x800022e0:  e84a              sd                      s2,16(sp)
0x800022e2:  e44e              sd                      s3,8(sp)
0x800022e4:  1800              addi                    s0,sp,48
0x800022e6:  f14024f3          csrrs                   s1,mhartid,zero

----------------
IN: 
Priv: 3; Virt: 0
0x800022ea:  0004891b          sext.w                  s2,s1
0x800022ee:  e1d5              bnez                    a1,164                  # 0x80002392

----------------
IN: 
Priv: 3; Virt: 0
0x80002392:  791c              ld                      a5,48(a0)
0x80002394:  89aa              mv                      s3,a0
0x80002396:  c789              beqz                    a5,10                   # 0x800023a0

----------------
IN: 
Priv: 3; Virt: 0
0x80002398:  6fbc              ld                      a5,88(a5)
0x8000239a:  67bc              ld                      a5,72(a5)
0x8000239c:  c391              beqz                    a5,4                    # 0x800023a0

----------------
IN: 
Priv: 3; Virt: 0
0x8000239e:  9782              jalr                    ra,a5,0

----------------
IN: 
Priv: 3; Virt: 0
0x80003a7c:  1141              addi                    sp,sp,-16
0x80003a7e:  e022              sd                      s0,0(sp)
0x80003a80:  e406              sd                      ra,8(sp)
0x80003a82:  0800              addi                    s0,sp,16
0x80003a84:  340027f3          csrrs                   a5,mscratch,zero

----------------
IN: 
Priv: 3; Virt: 0
0x80003a88:  6b88              ld                      a0,16(a5)
0x80003a8a:  4a20c0ef          jal                     ra,50338                # 0x8000ff2c

----------------
IN: 
Priv: 3; Virt: 0
0x8000ff2c:  34050063          beqz                    a0,832                  # 0x8001026c

----------------
IN: 
Priv: 3; Virt: 0
0x8000ff30:  715d              addi                    sp,sp,-80
0x8000ff32:  e0a2              sd                      s0,64(sp)
0x8000ff34:  fc26              sd                      s1,56(sp)
0x8000ff36:  f84a              sd                      s2,48(sp)
0x8000ff38:  e486              sd                      ra,72(sp)
0x8000ff3a:  f44e              sd                      s3,40(sp)
0x8000ff3c:  f052              sd                      s4,32(sp)
0x8000ff3e:  ec56              sd                      s5,24(sp)
0x8000ff40:  0880              addi                    s0,sp,80
0x8000ff42:  00007617          auipc                   a2,7                    # 0x80016f42
0x8000ff46:  00660613          addi                    a2,a2,6
0x8000ff4a:  55fd              addi                    a1,zero,-1
0x8000ff4c:  84aa              mv                      s1,a0
0x8000ff4e:  c4ffd0ef          jal                     ra,-9138                # 0x8000db9c

----------------
IN: 
Priv: 3; Virt: 0
0x8000db9c:  7179              addi                    sp,sp,-48
0x8000db9e:  f022              sd                      s0,32(sp)
0x8000dba0:  ec26              sd                      s1,24(sp)
0x8000dba2:  e84a              sd                      s2,16(sp)
0x8000dba4:  e44e              sd                      s3,8(sp)
0x8000dba6:  f406              sd                      ra,40(sp)
0x8000dba8:  e052              sd                      s4,0(sp)
0x8000dbaa:  1800              addi                    s0,sp,48
0x8000dbac:  892a              mv                      s2,a0
0x8000dbae:  84ae              mv                      s1,a1
0x8000dbb0:  89b2              mv                      s3,a2
0x8000dbb2:  d06fe0ef          jal                     ra,-6906                # 0x8000c0b8

----------------
IN: 
Priv: 3; Virt: 0
0x8000dbb6:  87aa              mv                      a5,a0
0x8000dbb8:  02054e63          bltz                    a0,60                   # 0x8000dbf4

----------------
IN: 
Priv: 3; Virt: 0
0x8000dbbc:  85a6              mv                      a1,s1
0x8000dbbe:  4601              mv                      a2,zero
0x8000dbc0:  854a              mv                      a0,s2
0x8000dbc2:  b2bfe0ef          jal                     ra,-5334                # 0x8000c6ec

----------------
IN: 
Priv: 3; Virt: 0
0x8000c70e:  4481              mv                      s1,zero
0x8000c710:  fac40b93          addi                    s7,s0,-84
0x8000c714:  85a6              mv                      a1,s1
0x8000c716:  865e              mv                      a2,s7
0x8000c718:  854e              mv                      a0,s3
0x8000c71a:  e33ff0ef          jal                     ra,-462                 # 0x8000c54c

----------------
IN: 
Priv: 3; Virt: 0
0x8000c774:  60e6              ld                      ra,88(sp)
0x8000c776:  6446              ld                      s0,80(sp)
0x8000c778:  6906              ld                      s2,64(sp)
0x8000c77a:  79e2              ld                      s3,56(sp)
0x8000c77c:  7a42              ld                      s4,48(sp)
0x8000c77e:  7aa2              ld                      s5,40(sp)
0x8000c780:  7b02              ld                      s6,32(sp)
0x8000c782:  6be2              ld                      s7,24(sp)
0x8000c784:  8526              mv                      a0,s1
0x8000c786:  64a6              ld                      s1,72(sp)
0x8000c788:  6125              addi                    sp,sp,96
0x8000c78a:  8082              ret                     

----------------
IN: 
Priv: 3; Virt: 0
0x8000dbc6:  84aa              mv                      s1,a0
0x8000dbc8:  87aa              mv                      a5,a0
0x8000dbca:  02054563          bltz                    a0,42                   # 0x8000dbf4

----------------
IN: 
Priv: 3; Virt: 0
0x8000dbce:  5a7d              addi                    s4,zero,-1
0x8000dbd0:  a039              j                       14                      # 0x8000dbde

----------------
IN: 
Priv: 3; Virt: 0
0x8000dbde:  85a6              mv                      a1,s1
0x8000dbe0:  864e              mv                      a2,s3
0x8000dbe2:  854a              mv                      a0,s2
0x8000dbe4:  f51ff0ef          jal                     ra,-176                 # 0x8000db34

----------------
IN: 
Priv: 3; Virt: 0
0x8000dbe8:  87aa              mv                      a5,a0
0x8000dbea:  85a6              mv                      a1,s1
0x8000dbec:  4601              mv                      a2,zero
0x8000dbee:  854a              mv                      a0,s2
0x8000dbf0:  ff47d1e3          ble                     s4,a5,-30               # 0x8000dbd2

----------------
IN: 
Priv: 3; Virt: 0
0x8000dbd2:  cb95              beqz                    a5,52                   # 0x8000dc06

----------------
IN: 
Priv: 3; Virt: 0
0x8000dbd4:  b19fe0ef          jal                     ra,-5352                # 0x8000c6ec

----------------
IN: 
Priv: 3; Virt: 0
0x8000dbd8:  84aa              mv                      s1,a0
0x8000dbda:  02054663          bltz                    a0,44                   # 0x8000dc06

----------------
IN: 
Priv: 3; Virt: 0
0x8000db8a:  fcc42503          lw                      a0,-52(s0)
0x8000db8e:  70e2              ld                      ra,56(sp)
0x8000db90:  7442              ld                      s0,48(sp)
0x8000db92:  74a2              ld                      s1,40(sp)
0x8000db94:  7902              ld                      s2,32(sp)
0x8000db96:  69e2              ld                      s3,24(sp)
0x8000db98:  6121              addi                    sp,sp,64
0x8000db9a:  8082              ret                     

----------------
IN: 
Priv: 3; Virt: 0
0x8000c78c:  fac42483          lw                      s1,-84(s0)
0x8000c790:  0004d763          bgez                    s1,14                   # 0x8000c79e

----------------
IN: 
Priv: 3; Virt: 0
0x8000c79e:  54fd              addi                    s1,zero,-1
0x8000c7a0:  bfd1              j                       -44                     # 0x8000c774

----------------
IN: 
Priv: 3; Virt: 0
0x8000dc06:  87a6              mv                      a5,s1
0x8000dc08:  b7f5              j                       -20                     # 0x8000dbf4

----------------
IN: 
Priv: 3; Virt: 0
0x8000dbf4:  70a2              ld                      ra,40(sp)
0x8000dbf6:  7402              ld                      s0,32(sp)
0x8000dbf8:  64e2              ld                      s1,24(sp)
0x8000dbfa:  6942              ld                      s2,16(sp)
0x8000dbfc:  69a2              ld                      s3,8(sp)
0x8000dbfe:  6a02              ld                      s4,0(sp)
0x8000dc00:  853e              mv                      a0,a5
0x8000dc02:  6145              addi                    sp,sp,48
0x8000dc04:  8082              ret                     

----------------
IN: 
Priv: 3; Virt: 0
0x8000ff52:  892a              mv                      s2,a0
0x8000ff54:  30054a63          bltz                    a0,788                  # 0x80010268

----------------
IN: 
Priv: 3; Virt: 0
0x80010268:  557d              addi                    a0,zero,-1
0x8001026a:  b7f5              j                       -20                     # 0x80010256

----------------
IN: 
Priv: 3; Virt: 0
0x80010256:  60a6              ld                      ra,72(sp)
0x80010258:  6406              ld                      s0,64(sp)
0x8001025a:  74e2              ld                      s1,56(sp)
0x8001025c:  7942              ld                      s2,48(sp)
0x8001025e:  79a2              ld                      s3,40(sp)
0x80010260:  7a02              ld                      s4,32(sp)
0x80010262:  6ae2              ld                      s5,24(sp)
0x80010264:  6161              addi                    sp,sp,80
0x80010266:  8082              ret                     

----------------
IN: 
Priv: 3; Virt: 0
0x80003a8e:  60a2              ld                      ra,8(sp)
0x80003a90:  6402              ld                      s0,0(sp)
0x80003a92:  0141              addi                    sp,sp,16
0x80003a94:  8082              ret                     

----------------
IN: 
Priv: 3; Virt: 0
0x800023a0:  854e              mv                      a0,s3
0x800023a2:  589040ef          jal                     ra,19848                # 0x8000712a

----------------
IN: 
Priv: 3; Virt: 0
0x8000712a:  1141              addi                    sp,sp,-16
0x8000712c:  e422              sd                      s0,8(sp)
0x8000712e:  0800              addi                    s0,sp,16
0x80007130:  6422              ld                      s0,8(sp)
0x80007132:  00022797          auipc                   a5,34                   # 0x80029132
0x80007136:  2467b783          ld                      a5,582(a5)
0x8000713a:  953e              add                     a0,a0,a5
0x8000713c:  5108              lw                      a0,32(a0)
0x8000713e:  0141              addi                    sp,sp,16
0x80007140:  8082              ret                     

----------------
IN: 
Priv: 3; Virt: 0
0x800023a6:  0001a597          auipc                   a1,26                   # 0x8001c3a6
0x800023aa:  e9a58593          addi                    a1,a1,-358
0x800023ae:  0135071b          addiw                   a4,a0,19
0x800023b2:  250d              addiw                   a0,a0,3
0x800023b4:  c1c8              sw                      a0,4(a1)
0x800023b6:  c998              sw                      a4,16(a1)
0x800023b8:  478d              addi                    a5,zero,3
0x800023ba:  f4e7e3e3          bgtu                    a4,a5,-186              # 0x80002300

----------------
IN: 
Priv: 3; Virt: 0
0x80002300:  02049693          slli                    a3,s1,32
0x80002304:  9281              srli                    a3,a3,32
0x80002306:  00169793          slli                    a5,a3,1
0x8000230a:  97b6              add                     a5,a5,a3
0x8000230c:  ffc7069b          addiw                   a3,a4,-4
0x80002310:  1682              slli                    a3,a3,32
0x80002312:  00479713          slli                    a4,a5,4
0x80002316:  9281              srli                    a3,a3,32
0x80002318:  9736              add                     a4,a4,a3
0x8000231a:  079a              slli                    a5,a5,6
0x8000231c:  0001e697          auipc                   a3,30                   # 0x8002031c
0x80002320:  34068693          addi                    a3,a3,832
0x80002324:  0001e617          auipc                   a2,30                   # 0x80020324
0x80002328:  33460613          addi                    a2,a2,820
0x8000232c:  070a              slli                    a4,a4,2
0x8000232e:  9736              add                     a4,a4,a3
0x80002330:  97b2              add                     a5,a5,a2
0x80002332:  56fd              addi                    a3,zero,-1
0x80002334:  c7d4              sw                      a3,12(a5)
0x80002336:  0791              addi                    a5,a5,4
0x80002338:  fee79ee3          bne                     a5,a4,-4                # 0x80002334

----------------
IN: 
Priv: 3; Virt: 0
0x80002334:  c7d4              sw                      a3,12(a5)
0x80002336:  0791              addi                    a5,a5,4
0x80002338:  fee79ee3          bne                     a5,a4,-4                # 0x80002334

----------------
IN: 
Priv: 3; Virt: 0
0x8000233c:  1482              slli                    s1,s1,32
0x8000233e:  80e5              srli                    s1,s1,25
0x80002340:  0001a797          auipc                   a5,26                   # 0x8001c340
0x80002344:  31878793          addi                    a5,a5,792
0x80002348:  0001a717          auipc                   a4,26                   # 0x8001c348
0x8000234c:  39070713          addi                    a4,a4,912
0x80002350:  97a6              add                     a5,a5,s1
0x80002352:  9726              add                     a4,a4,s1
0x80002354:  0007b023          sd                      zero,0(a5)
0x80002358:  07a1              addi                    a5,a5,8
0x8000235a:  fee79de3          bne                     a5,a4,-6                # 0x80002354

----------------
IN: 
Priv: 3; Virt: 0
0x80002354:  0007b023          sd                      zero,0(a5)
0x80002358:  07a1              addi                    a5,a5,8
0x8000235a:  fee79de3          bne                     a5,a4,-6                # 0x80002354

----------------
IN: 
Priv: 3; Virt: 0
0x8000235e:  02091793          slli                    a5,s2,32
0x80002362:  9381              srli                    a5,a5,32
0x80002364:  00179713          slli                    a4,a5,1
0x80002368:  973e              add                     a4,a4,a5
0x8000236a:  078e              slli                    a5,a5,3
0x8000236c:  97ae              add                     a5,a5,a1
0x8000236e:  071a              slli                    a4,a4,6
0x80002370:  0007bc23          sd                      zero,24(a5)
0x80002374:  9732              add                     a4,a4,a2
0x80002376:  4785              addi                    a5,zero,1
0x80002378:  c31c              sw                      a5,0(a4)
0x8000237a:  57fd              addi                    a5,zero,-1
0x8000237c:  c35c              sw                      a5,4(a4)
0x8000237e:  4789              addi                    a5,zero,2
0x80002380:  c71c              sw                      a5,8(a4)
0x80002382:  70a2              ld                      ra,40(sp)
0x80002384:  7402              ld                      s0,32(sp)
0x80002386:  64e2              ld                      s1,24(sp)
0x80002388:  6942              ld                      s2,16(sp)
0x8000238a:  69a2              ld                      s3,8(sp)
0x8000238c:  4501              mv                      a0,zero
0x8000238e:  6145              addi                    sp,sp,48
0x80002390:  8082              ret                     

----------------
IN: 
Priv: 3; Virt: 0
0x8000069e:  f92d              bnez                    a0,-142                 # 0x80000610

----------------
IN: 
Priv: 3; Virt: 0
0x800006a0:  68bc              ld                      a5,80(s1)
0x800006a2:  8b85              andi                    a5,a5,1
0x800006a4:  ef99              bnez                    a5,30                   # 0x800006c2

----------------
IN: 
Priv: 3; Virt: 0
0x800006a6:  4609              addi                    a2,zero,2
0x800006a8:  4585              addi                    a1,zero,1
0x800006aa:  00015517          auipc                   a0,21                   # 0x800156aa
0x800006ae:  95e50513          addi                    a0,a0,-1698
0x800006b2:  702050ef          jal                     ra,22274                # 0x80005db4

----------------
IN: 
Priv: 3; Virt: 0
0x80005db4:  7159              addi                    sp,sp,-112
0x80005db6:  f406              sd                      ra,40(sp)
0x80005db8:  f022              sd                      s0,32(sp)
0x80005dba:  ec26              sd                      s1,24(sp)
0x80005dbc:  1800              addi                    s0,sp,48
0x80005dbe:  e84a              sd                      s2,16(sp)
0x80005dc0:  00023917          auipc                   s2,35                   # 0x80028dc0
0x80005dc4:  ee090913          addi                    s2,s2,-288
0x80005dc8:  84aa              mv                      s1,a0
0x80005dca:  854a              mv                      a0,s2
0x80005dcc:  f018              sd                      a4,32(s0)
0x80005dce:  f41c              sd                      a5,40(s0)
0x80005dd0:  03043823          sd                      a6,48(s0)
0x80005dd4:  03143c23          sd                      a7,56(s0)
0x80005dd8:  e40c              sd                      a1,8(s0)
0x80005dda:  e810              sd                      a2,16(s0)
0x80005ddc:  ec14              sd                      a3,24(s0)
0x80005dde:  b43fe0ef          jal                     ra,-5310                # 0x80004920

----------------
IN: 
Priv: 3; Virt: 0
0x80004920:  1141              addi                    sp,sp,-16
0x80004922:  e422              sd                      s0,8(sp)
0x80004924:  67c1              lui                     a5,16
0x80004926:  0800              addi                    s0,sp,16
0x80004928:  fff78713          addi                    a4,a5,-1
0x8000492c:  06f526af          amoadd.w.aq.rl          a3,a5,(a0)
0x80004930:  0106d613          srli                    a2,a3,16
0x80004934:  8e79              and                     a2,a2,a4
0x80004936:  00e6f5b3          and                     a1,a3,a4
0x8000493a:  00b60663          beq                     a2,a1,12                # 0x80004946

----------------
IN: 
Priv: 3; Virt: 0
0x80004946:  6422              ld                      s0,8(sp)
0x80004948:  0141              addi                    sp,sp,16
0x8000494a:  8082              ret                     

----------------
IN: 
Priv: 3; Virt: 0
0x80005de2:  00840693          addi                    a3,s0,8
0x80005de6:  8626              mv                      a2,s1
0x80005de8:  4581              mv                      a1,zero
0x80005dea:  4501              mv                      a0,zero
0x80005dec:  fcd43c23          sd                      a3,-40(s0)
0x80005df0:  bf9ff0ef          jal                     ra,-1032                # 0x800059e8

----------------
IN: 
Priv: 3; Virt: 0
0x800059e8:  7175              addi                    sp,sp,-144
0x800059ea:  e122              sd                      s0,128(sp)
0x800059ec:  e506              sd                      ra,136(sp)
0x800059ee:  fca6              sd                      s1,120(sp)
0x800059f0:  f8ca              sd                      s2,112(sp)
0x800059f2:  f4ce              sd                      s3,104(sp)
0x800059f4:  f0d2              sd                      s4,96(sp)
0x800059f6:  ecd6              sd                      s5,88(sp)
0x800059f8:  e8da              sd                      s6,80(sp)
0x800059fa:  e4de              sd                      s7,72(sp)
0x800059fc:  e0e2              sd                      s8,64(sp)
0x800059fe:  fc66              sd                      s9,56(sp)
0x80005a00:  f86a              sd                      s10,48(sp)
0x80005a02:  f46e              sd                      s11,40(sp)
0x80005a04:  0900              addi                    s0,sp,144
0x80005a06:  00064783          lbu                     a5,0(a2)
0x80005a0a:  2c078663          beqz                    a5,716                  # 0x80005cd6

----------------
IN: 
Priv: 3; Virt: 0
0x80005a0e:  8ab2              mv                      s5,a2
0x80005a10:  8a2a              mv                      s4,a0
0x80005a12:  8cae              mv                      s9,a1
0x80005a14:  89b6              mv                      s3,a3
0x80005a16:  4b81              mv                      s7,zero
0x80005a18:  02500913          addi                    s2,zero,37
0x80005a1c:  02d00b13          addi                    s6,zero,45
0x80005a20:  03000d93          addi                    s11,zero,48
0x80005a24:  4d25              addi                    s10,zero,9
0x80005a26:  f8840c13          addi                    s8,s0,-120
0x80005a2a:  001a8493          addi                    s1,s5,1
0x80005a2e:  11279763          bne                     a5,s2,270               # 0x80005b3c

----------------
IN: 
Priv: 3; Virt: 0
0x80005b3c:  87a6              mv                      a5,s1
0x80005b3e:  000ac603          lbu                     a2,0(s5)
0x80005b42:  84d6              mv                      s1,s5
0x80005b44:  8abe              mv                      s5,a5
0x80005b46:  85e6              mv                      a1,s9
0x80005b48:  8552              mv                      a0,s4
0x80005b4a:  c39ff0ef          jal                     ra,-968                 # 0x80005782

----------------
IN: 
Priv: 3; Virt: 0
0x80005782:  cd1d              beqz                    a0,62                   # 0x800057c0

----------------
IN: 
Priv: 3; Virt: 0
0x800057c0:  1141              addi                    sp,sp,-16
0x800057c2:  e022              sd                      s0,0(sp)
0x800057c4:  e406              sd                      ra,8(sp)
0x800057c6:  0800              addi                    s0,sp,16
0x800057c8:  8532              mv                      a0,a2
0x800057ca:  f79ff0ef          jal                     ra,-136                 # 0x80005742

----------------
IN: 
Priv: 3; Virt: 0
0x80005742:  1101              addi                    sp,sp,-32
0x80005744:  e822              sd                      s0,16(sp)
0x80005746:  e04a              sd                      s2,0(sp)
0x80005748:  ec06              sd                      ra,24(sp)
0x8000574a:  e426              sd                      s1,8(sp)
0x8000574c:  1000              addi                    s0,sp,32
0x8000574e:  00023917          auipc                   s2,35                   # 0x8002874e
0x80005752:  54a90913          addi                    s2,s2,1354
0x80005756:  00093783          ld                      a5,0(s2)
0x8000575a:  cf91              beqz                    a5,28                   # 0x80005776

----------------
IN: 
Priv: 3; Virt: 0
0x8000575c:  739c              ld                      a5,32(a5)
0x8000575e:  cf81              beqz                    a5,24                   # 0x80005776

----------------
IN: 
Priv: 3; Virt: 0
0x80005760:  4729              addi                    a4,zero,10
0x80005762:  84aa              mv                      s1,a0
0x80005764:  00e51763          bne                     a0,a4,14                # 0x80005772

----------------
IN: 
Priv: 3; Virt: 0
0x80005768:  4535              addi                    a0,zero,13
0x8000576a:  9782              jalr                    ra,a5,0

----------------
IN: 
Priv: 3; Virt: 0
0x8000b514:  1101              addi                    sp,sp,-32
0x8000b516:  e822              sd                      s0,16(sp)
0x8000b518:  e426              sd                      s1,8(sp)
0x8000b51a:  ec06              sd                      ra,24(sp)
0x8000b51c:  1000              addi                    s0,sp,32
0x8000b51e:  84aa              mv                      s1,a0
0x8000b520:  4515              addi                    a0,zero,5
0x8000b522:  f37ff0ef          jal                     ra,-202                 # 0x8000b458

----------------
IN: 
Priv: 3; Virt: 0
0x8000b526:  02057513          andi                    a0,a0,32
0x8000b52a:  d97d              beqz                    a0,-10                  # 0x8000b520

----------------
IN: 
Priv: 3; Virt: 0
0x8000b52c:  85a6              mv                      a1,s1
0x8000b52e:  4501              mv                      a0,zero
0x8000b530:  f8bff0ef          jal                     ra,-118                 # 0x8000b4ba

----------------
IN: 
Priv: 3; Virt: 0
0x8000b534:  60e2              ld                      ra,24(sp)
0x8000b536:  6442              ld                      s0,16(sp)
0x8000b538:  64a2              ld                      s1,8(sp)
0x8000b53a:  6105              addi                    sp,sp,32
0x8000b53c:  8082              ret                     

----------------
IN: 
Priv: 3; Virt: 0
0x8000576c:  00093783          ld                      a5,0(s2)
0x80005770:  739c              ld                      a5,32(a5)
0x80005772:  8526              mv                      a0,s1
0x80005774:  9782              jalr                    ra,a5,0

----------------
IN: 
Priv: 3; Virt: 0
0x80005776:  60e2              ld                      ra,24(sp)
0x80005778:  6442              ld                      s0,16(sp)
0x8000577a:  64a2              ld                      s1,8(sp)
0x8000577c:  6902              ld                      s2,0(sp)
0x8000577e:  6105              addi                    sp,sp,32
0x80005780:  8082              ret                     

----------------
IN: 
Priv: 3; Virt: 0
0x800057ce:  60a2              ld                      ra,8(sp)
0x800057d0:  6402              ld                      s0,0(sp)
0x800057d2:  0141              addi                    sp,sp,16
0x800057d4:  8082              ret                     

----------------
IN: 
Priv: 3; Virt: 0
0x80005b4e:  2b85              addiw                   s7,s7,1
0x80005b50:  0014c783          lbu                     a5,1(s1)
0x80005b54:  ec079be3          bnez                    a5,-298                 # 0x80005a2a

----------------
IN: 
Priv: 3; Virt: 0
0x80005a2a:  001a8493          addi                    s1,s5,1
0x80005a2e:  11279763          bne                     a5,s2,270               # 0x80005b3c

----------------
IN: 
Priv: 3; Virt: 0
0x80005772:  8526              mv                      a0,s1
0x80005774:  9782              jalr                    ra,a5,0

----------------
IN: 
Priv: 3; Virt: 0
0x80005a32:  001ac603          lbu                     a2,1(s5)
0x80005a36:  ce69              beqz                    a2,218                  # 0x80005b10

----------------
IN: 
Priv: 3; Virt: 0
0x80005a38:  13260163          beq                     a2,s2,290               # 0x80005b5a

----------------
IN: 
Priv: 3; Virt: 0
0x80005a3c:  4801              mv                      a6,zero
0x80005a3e:  01661763          bne                     a2,s6,14                # 0x80005a4c

----------------
IN: 
Priv: 3; Virt: 0
0x80005a4c:  02300793          addi                    a5,zero,35
0x80005a50:  0ef60063          beq                     a2,a5,224               # 0x80005b30

----------------
IN: 
Priv: 3; Virt: 0
0x80005a54:  01b61963          bne                     a2,s11,18               # 0x80005a66

----------------
IN: 
Priv: 3; Virt: 0
0x80005a66:  fd06069b          addiw                   a3,a2,-48
0x80005a6a:  0ff6f793          andi                    a5,a3,255
0x80005a6e:  12fd6763          bgtu                    a5,s10,302              # 0x80005b9c

----------------
IN: 
Priv: 3; Virt: 0
0x80005b9c:  4781              mv                      a5,zero
0x80005b9e:  bdd5              j                       -268                    # 0x80005a92

----------------
IN: 
Priv: 3; Virt: 0
0x80005a92:  07300713          addi                    a4,zero,115
0x80005a96:  0ee60463          beq                     a2,a4,232               # 0x80005b7e

----------------
IN: 
Priv: 3; Virt: 0
0x80005a9a:  06400713          addi                    a4,zero,100
0x80005a9e:  0ce60063          beq                     a2,a4,192               # 0x80005b5e

----------------
IN: 
Priv: 3; Virt: 0
0x80005b5e:  0009a603          lw                      a2,0(s3)
0x80005b62:  03000893          addi                    a7,zero,48
0x80005b66:  4705              addi                    a4,zero,1
0x80005b68:  46a9              addi                    a3,zero,10
0x80005b6a:  85e6              mv                      a1,s9
0x80005b6c:  8552              mv                      a0,s4
0x80005b6e:  d5fff0ef          jal                     ra,-674                 # 0x800058cc

----------------
IN: 
Priv: 3; Virt: 0
0x800058cc:  7119              addi                    sp,sp,-128
0x800058ce:  f8a2              sd                      s0,112(sp)
0x800058d0:  f0ca              sd                      s2,96(sp)
0x800058d2:  fc86              sd                      ra,120(sp)
0x800058d4:  f4a6              sd                      s1,104(sp)
0x800058d6:  0100              addi                    s0,sp,128
0x800058d8:  00487e93          andi                    t4,a6,4
0x800058dc:  893a              mv                      s2,a4
0x800058de:  8e36              mv                      t3,a3
0x800058e0:  8332              mv                      t1,a2
0x800058e2:  86be              mv                      a3,a5
0x800058e4:  000e871b          sext.w                  a4,t4
0x800058e8:  00090563          beqz                    s2,10                   # 0x800058f2

----------------
IN: 
Priv: 3; Virt: 0
0x800058ec:  47a9              addi                    a5,zero,10
0x800058ee:  0afe0763          beq                     t3,a5,174               # 0x8000599c

----------------
IN: 
Priv: 3; Virt: 0
0x8000599c:  f4065be3          bgez                    a2,-170                 # 0x800058f2

----------------
IN: 
Priv: 3; Virt: 0
0x800058f2:  fc040fa3          sb                      zero,-33(s0)
0x800058f6:  e60d              bnez                    a2,42                   # 0x80005920

----------------
IN: 
Priv: 3; Virt: 0
0x80005920:  4901              mv                      s2,zero
0x80005922:  fdf40493          addi                    s1,s0,-33
0x80005926:  47a5              addi                    a5,zero,9
0x80005928:  fc688f1b          addiw                   t5,a7,-58
0x8000592c:  03c37633          remu                    a2,t1,t3
0x80005930:  8e9a              mv                      t4,t1
0x80005932:  14fd              addi                    s1,s1,-1
0x80005934:  03c35333          divu                    t1,t1,t3
0x80005938:  00c7f363          bleu                    a2,a5,6                 # 0x8000593e

----------------
IN: 
Priv: 3; Virt: 0
0x8000593e:  0306061b          addiw                   a2,a2,48
0x80005942:  00c48023          sb                      a2,0(s1)
0x80005946:  ffcef3e3          bleu                    t3,t4,-26               # 0x8000592c

----------------
IN: 
Priv: 3; Virt: 0
0x8000594a:  cb19              beqz                    a4,22                   # 0x80005960

----------------
IN: 
Priv: 3; Virt: 0
0x80005960:  fa0904e3          beqz                    s2,-88                  # 0x80005908

----------------
IN: 
Priv: 3; Virt: 0
0x80005908:  8626              mv                      a2,s1
0x8000590a:  8742              mv                      a4,a6
0x8000590c:  ecbff0ef          jal                     ra,-310                 # 0x800057d6

----------------
IN: 
Priv: 3; Virt: 0
0x800057d6:  715d              addi                    sp,sp,-80
0x800057d8:  e0a2              sd                      s0,64(sp)
0x800057da:  fc26              sd                      s1,56(sp)
0x800057dc:  f84a              sd                      s2,48(sp)
0x800057de:  f44e              sd                      s3,40(sp)
0x800057e0:  f052              sd                      s4,32(sp)
0x800057e2:  e486              sd                      ra,72(sp)
0x800057e4:  ec56              sd                      s5,24(sp)
0x800057e6:  e85a              sd                      s6,16(sp)
0x800057e8:  e45e              sd                      s7,8(sp)
0x800057ea:  0880              addi                    s0,sp,80
0x800057ec:  84b2              mv                      s1,a2
0x800057ee:  8a36              mv                      s4,a3
0x800057f0:  00064603          lbu                     a2,0(a2)
0x800057f4:  892a              mv                      s2,a0
0x800057f6:  89ae              mv                      s3,a1
0x800057f8:  0ad05563          blez                    a3,170                  # 0x800058a2

----------------
IN: 
Priv: 3; Virt: 0
0x800058a2:  02000b93          addi                    s7,zero,32
0x800058a6:  4a81              mv                      s5,zero
0x800058a8:  b77d              j                       -82                     # 0x80005856

----------------
IN: 
Priv: 3; Virt: 0
0x80005856:  ca15              beqz                    a2,52                   # 0x8000588a

----------------
IN: 
Priv: 3; Virt: 0
0x80005858:  409a8abb          subw                    s5,s5,s1
0x8000585c:  2a85              addiw                   s5,s5,1
0x8000585e:  85ce              mv                      a1,s3
0x80005860:  854a              mv                      a0,s2
0x80005862:  009a8b3b          addw                    s6,s5,s1
0x80005866:  f1dff0ef          jal                     ra,-228                 # 0x80005782

----------------
IN: 
Priv: 3; Virt: 0
0x8000586a:  0014c603          lbu                     a2,1(s1)
0x8000586e:  0485              addi                    s1,s1,1
0x80005870:  f67d              bnez                    a2,-18                  # 0x8000585e

----------------
IN: 
Priv: 3; Virt: 0
0x80005872:  05405b63          blez                    s4,86                   # 0x800058c8

----------------
IN: 
Priv: 3; Virt: 0
0x800058c8:  8ada              mv                      s5,s6
0x800058ca:  b7c1              j                       -64                     # 0x8000588a

----------------
IN: 
Priv: 3; Virt: 0
0x8000588a:  60a6              ld                      ra,72(sp)
0x8000588c:  6406              ld                      s0,64(sp)
0x8000588e:  74e2              ld                      s1,56(sp)
0x80005890:  7942              ld                      s2,48(sp)
0x80005892:  79a2              ld                      s3,40(sp)
0x80005894:  7a02              ld                      s4,32(sp)
0x80005896:  6b42              ld                      s6,16(sp)
0x80005898:  6ba2              ld                      s7,8(sp)
0x8000589a:  8556              mv                      a0,s5
0x8000589c:  6ae2              ld                      s5,24(sp)
0x8000589e:  6161              addi                    sp,sp,80
0x800058a0:  8082              ret                     

----------------
IN: 
Priv: 3; Virt: 0
0x80005910:  70e6              ld                      ra,120(sp)
0x80005912:  7446              ld                      s0,112(sp)
0x80005914:  74a6              ld                      s1,104(sp)
0x80005916:  0125053b          addw                    a0,a0,s2
0x8000591a:  7906              ld                      s2,96(sp)
0x8000591c:  6109              addi                    sp,sp,128
0x8000591e:  8082              ret                     

----------------
IN: 
Priv: 3; Virt: 0
0x80005b72:  09a1              addi                    s3,s3,8
0x80005b74:  01750bbb          addw                    s7,a0,s7
0x80005b78:  00148a93          addi                    s5,s1,1
0x80005b7c:  bfd1              j                       -44                     # 0x80005b50

----------------
IN: 
Priv: 3; Virt: 0
0x80005b50:  0014c783          lbu                     a5,1(s1)
0x80005b54:  ec079be3          bnez                    a5,-298                 # 0x80005a2a

----------------
IN: 
Priv: 3; Virt: 0
0x80005b58:  bf65              j                       -72                     # 0x80005b10

----------------
IN: 
Priv: 3; Virt: 0
0x80005b10:  60aa              ld                      ra,136(sp)
0x80005b12:  640a              ld                      s0,128(sp)
0x80005b14:  74e6              ld                      s1,120(sp)
0x80005b16:  7946              ld                      s2,112(sp)
0x80005b18:  79a6              ld                      s3,104(sp)
0x80005b1a:  7a06              ld                      s4,96(sp)
0x80005b1c:  6ae6              ld                      s5,88(sp)
0x80005b1e:  6b46              ld                      s6,80(sp)
0x80005b20:  6c06              ld                      s8,64(sp)
0x80005b22:  7ce2              ld                      s9,56(sp)
0x80005b24:  7d42              ld                      s10,48(sp)
0x80005b26:  7da2              ld                      s11,40(sp)
0x80005b28:  855e              mv                      a0,s7
0x80005b2a:  6ba6              ld                      s7,72(sp)
0x80005b2c:  6149              addi                    sp,sp,144
0x80005b2e:  8082              ret                     

----------------
IN: 
Priv: 3; Virt: 0
0x80005df4:  84aa              mv                      s1,a0
0x80005df6:  854a              mv                      a0,s2
0x80005df8:  b55fe0ef          jal                     ra,-5292                # 0x8000494c

----------------
IN: 
Priv: 3; Virt: 0
0x8000494c:  1141              addi                    sp,sp,-16
0x8000494e:  e422              sd                      s0,8(sp)
0x80004950:  0800              addi                    s0,sp,16
0x80004952:  0310000f          fence                   rw,w
0x80004956:  00055783          lhu                     a5,0(a0)
0x8000495a:  6422              ld                      s0,8(sp)
0x8000495c:  2785              addiw                   a5,a5,1
0x8000495e:  00f51023          sh                      a5,0(a0)
0x80004962:  0141              addi                    sp,sp,16
0x80004964:  8082              ret                     

----------------
IN: 
Priv: 3; Virt: 0
0x80005dfc:  70a2              ld                      ra,40(sp)
0x80005dfe:  7402              ld                      s0,32(sp)
0x80005e00:  6942              ld                      s2,16(sp)
0x80005e02:  8526              mv                      a0,s1
0x80005e04:  64e2              ld                      s1,24(sp)
0x80005e06:  6165              addi                    sp,sp,112
0x80005e08:  8082              ret                     

----------------
IN: 
Priv: 3; Virt: 0
0x800006b6:  00015517          auipc                   a0,21                   # 0x800156b6
0x800006ba:  96a50513          addi                    a0,a0,-1686
0x800006be:  6f6050ef          jal                     ra,22262                # 0x80005db4

----------------
IN: 
Priv: 3; Virt: 0
0x800006c2:  4585              addi                    a1,zero,1
0x800006c4:  8526              mv                      a0,s1
0x800006c6:  361000ef          jal                     ra,2912                 # 0x80001226

----------------
IN: 
Priv: 3; Virt: 0
0x80001226:  791c              ld                      a5,48(a0)
0x80001228:  cf9d              beqz                    a5,62                   # 0x80001266

----------------
IN: 
Priv: 3; Virt: 0
0x8000122a:  6fbc              ld                      a5,88(a5)
0x8000122c:  73bc              ld                      a5,96(a5)
0x8000122e:  cf85              beqz                    a5,56                   # 0x80001266

----------------
IN: 
Priv: 3; Virt: 0
0x80001230:  1141              addi                    sp,sp,-16
0x80001232:  e022              sd                      s0,0(sp)
0x80001234:  e406              sd                      ra,8(sp)
0x80001236:  0800              addi                    s0,sp,16
0x80001238:  852e              mv                      a0,a1
0x8000123a:  9782              jalr                    ra,a5,0

----------------
IN: 
Priv: 3; Virt: 0
0x8000dc58:  7119              addi                    sp,sp,-128
0x8000dc5a:  f8a2              sd                      s0,112(sp)
0x8000dc5c:  fc86              sd                      ra,120(sp)
0x8000dc5e:  f4a6              sd                      s1,104(sp)
0x8000dc60:  f0ca              sd                      s2,96(sp)
0x8000dc62:  ecce              sd                      s3,88(sp)
0x8000dc64:  e8d2              sd                      s4,80(sp)
0x8000dc66:  e4d6              sd                      s5,72(sp)
0x8000dc68:  e0da              sd                      s6,64(sp)
0x8000dc6a:  fc5e              sd                      s7,56(sp)
0x8000dc6c:  f862              sd                      s8,48(sp)
0x8000dc6e:  f466              sd                      s9,40(sp)
0x8000dc70:  f06a              sd                      s10,32(sp)
0x8000dc72:  ec6e              sd                      s11,24(sp)
0x8000dc74:  0100              addi                    s0,sp,128
0x8000dc76:  e929              bnez                    a0,82                   # 0x8000dcc8

----------------
IN: 
Priv: 3; Virt: 0
0x8000dcc8:  34002773          csrrs                   a4,mscratch,zero

----------------
IN: 
Priv: 3; Virt: 0
0x8000dccc:  0000bd17          auipc                   s10,11                  # 0x80018ccc
0x8000dcd0:  644d3d03          ld                      s10,1604(s10)
0x8000dcd4:  000d3783          ld                      a5,0(s10)
0x8000dcd8:  01073983          ld                      s3,16(a4)
0x8000dcdc:  dfd1              beqz                    a5,-100                 # 0x8000dc78

----------------
IN: 
Priv: 3; Virt: 0
0x8000dcde:  0000bc17          auipc                   s8,11                   # 0x80018cde
0x8000dce2:  6bac3c03          ld                      s8,1722(s8)
0x8000dce6:  4c81              mv                      s9,zero
0x8000dce8:  f8840b13          addi                    s6,s0,-120
0x8000dcec:  c1800b93          addi                    s7,zero,-1000
0x8000dcf0:  0001ca17          auipc                   s4,28                   # 0x80029cf0
0x8000dcf4:  cc8a0a13          addi                    s4,s4,-824
0x8000dcf8:  4d9d              addi                    s11,zero,7
0x8000dcfa:  000c3903          ld                      s2,0(s8)
0x8000dcfe:  54fd              addi                    s1,zero,-1
0x8000dd00:  4a81              mv                      s5,zero
0x8000dd02:  00093603          ld                      a2,0(s2)
0x8000dd06:  85a6              mv                      a1,s1
0x8000dd08:  86da              mv                      a3,s6
0x8000dd0a:  854e              mv                      a0,s3
0x8000dd0c:  5ba020ef          jal                     ra,9658                 # 0x800102c6

----------------
IN: 
Priv: 3; Virt: 0
0x800102c6:  c125              beqz                    a0,96                   # 0x80010326

----------------
IN: 
Priv: 3; Virt: 0
0x800102c8:  7179              addi                    sp,sp,-48
0x800102ca:  f022              sd                      s0,32(sp)
0x800102cc:  ec26              sd                      s1,24(sp)
0x800102ce:  f406              sd                      ra,40(sp)
0x800102d0:  e84a              sd                      s2,16(sp)
0x800102d2:  e44e              sd                      s3,8(sp)
0x800102d4:  e052              sd                      s4,0(sp)
0x800102d6:  1800              addi                    s0,sp,48
0x800102d8:  84b2              mv                      s1,a2
0x800102da:  ce05              beqz                    a2,56                   # 0x80010312

----------------
IN: 
Priv: 3; Virt: 0
0x800102dc:  6210              ld                      a2,0(a2)
0x800102de:  892a              mv                      s2,a0
0x800102e0:  89ae              mv                      s3,a1
0x800102e2:  8a36              mv                      s4,a3
0x800102e4:  e609              bnez                    a2,10                   # 0x800102ee

----------------
IN: 
Priv: 3; Virt: 0
0x800102ee:  85ce              mv                      a1,s3
0x800102f0:  854a              mv                      a0,s2
0x800102f2:  8abfd0ef          jal                     ra,-10070               # 0x8000db9c

----------------
IN: 
Priv: 3; Virt: 0
0x800102f6:  fe0549e3          bltz                    a0,-14                  # 0x800102e8

----------------
IN: 
Priv: 3; Virt: 0
0x800102e8:  6890              ld                      a2,16(s1)
0x800102ea:  04c1              addi                    s1,s1,16
0x800102ec:  c21d              beqz                    a2,38                   # 0x80010312

----------------
IN: 
Priv: 3; Virt: 0
0x80010312:  c1800513          addi                    a0,zero,-1000
0x80010316:  70a2              ld                      ra,40(sp)
0x80010318:  7402              ld                      s0,32(sp)
0x8001031a:  64e2              ld                      s1,24(sp)
0x8001031c:  6942              ld                      s2,16(sp)
0x8001031e:  69a2              ld                      s3,8(sp)
0x80010320:  6a02              ld                      s4,0(sp)
0x80010322:  6145              addi                    sp,sp,48
0x80010324:  8082              ret                     

----------------
IN: 
Priv: 3; Virt: 0
0x8000dd10:  84aa              mv                      s1,a0
0x8000dd12:  85a6              mv                      a1,s1
0x8000dd14:  854e              mv                      a0,s3
0x8000dd16:  0204c963          bltz                    s1,50                   # 0x8000dd48

----------------
IN: 
Priv: 3; Virt: 0
0x8000dd48:  000a2783          lw                      a5,0(s4)
0x8000dd4c:  84d2              mv                      s1,s4
0x8000dd4e:  f2fdcae3          bgt                     a5,s11,-204             # 0x8000dc82

----------------
IN: 
Priv: 3; Virt: 0
0x8000dd52:  000d3703          ld                      a4,0(s10)
0x8000dd56:  0c85              addi                    s9,s9,1
0x8000dd58:  0c21              addi                    s8,s8,8
0x8000dd5a:  faece0e3          bgtu                    a4,s9,-96               # 0x8000dcfa

----------------
IN: 
Priv: 3; Virt: 0
0x8000dcfa:  000c3903          ld                      s2,0(s8)
0x8000dcfe:  54fd              addi                    s1,zero,-1
0x8000dd00:  4a81              mv                      s5,zero
0x8000dd02:  00093603          ld                      a2,0(s2)
0x8000dd06:  85a6              mv                      a1,s1
0x8000dd08:  86da              mv                      a3,s6
0x8000dd0a:  854e              mv                      a0,s3
0x8000dd0c:  5ba020ef          jal                     ra,9658                 # 0x800102c6

----------------
IN: 
Priv: 3; Virt: 0
0x800102fa:  000a0e63          beqz                    s4,28                   # 0x80010316

----------------
IN: 
Priv: 3; Virt: 0
0x800102fe:  009a3023          sd                      s1,0(s4)
0x80010302:  70a2              ld                      ra,40(sp)
0x80010304:  7402              ld                      s0,32(sp)
0x80010306:  64e2              ld                      s1,24(sp)
0x80010308:  6942              ld                      s2,16(sp)
0x8001030a:  69a2              ld                      s3,8(sp)
0x8001030c:  6a02              ld                      s4,0(sp)
0x8001030e:  6145              addi                    sp,sp,48
0x80010310:  8082              ret                     

----------------
IN: 
Priv: 3; Virt: 0
0x8000dd1a:  00893783          ld                      a5,8(s2)
0x8000dd1e:  c799              beqz                    a5,14                   # 0x8000dd2c

----------------
IN: 
Priv: 3; Virt: 0
0x8000dd20:  f8843603          ld                      a2,-120(s0)
0x8000dd24:  9782              jalr                    ra,a5,0

----------------
IN: 
Priv: 3; Virt: 0
0x8000df70:  7119              addi                    sp,sp,-128
0x8000df72:  f8a2              sd                      s0,112(sp)
0x8000df74:  e0da              sd                      s6,64(sp)
0x8000df76:  fc86              sd                      ra,120(sp)
0x8000df78:  f4a6              sd                      s1,104(sp)
0x8000df7a:  f0ca              sd                      s2,96(sp)
0x8000df7c:  ecce              sd                      s3,88(sp)
0x8000df7e:  e8d2              sd                      s4,80(sp)
0x8000df80:  e4d6              sd                      s5,72(sp)
0x8000df82:  fc5e              sd                      s7,56(sp)
0x8000df84:  f862              sd                      s8,48(sp)
0x8000df86:  f466              sd                      s9,40(sp)
0x8000df88:  f06a              sd                      s10,32(sp)
0x8000df8a:  ec6e              sd                      s11,24(sp)
0x8000df8c:  0100              addi                    s0,sp,128
0x8000df8e:  0001fb17          auipc                   s6,31                   # 0x8002cf8e
0x8000df92:  082b0b13          addi                    s6,s6,130
0x8000df96:  800b3783          ld                      a5,-2048(s6)
0x8000df9a:  473d              addi                    a4,zero,15
0x8000df9c:  18f76663          bgtu                    a5,a4,396               # 0x8000e128

----------------
IN: 
Priv: 3; Virt: 0
0x8000dfa0:  00479713          slli                    a4,a5,4
0x8000dfa4:  0001fa97          auipc                   s5,31                   # 0x8002cfa4
0x8000dfa8:  874a8a93          addi                    s5,s5,-1932
0x8000dfac:  9aba              add                     s5,s5,a4
0x8000dfae:  0785              addi                    a5,a5,1
0x8000dfb0:  89b2              mv                      s3,a2
0x8000dfb2:  8656              mv                      a2,s5
0x8000dfb4:  892a              mv                      s2,a0
0x8000dfb6:  84ae              mv                      s1,a1
0x8000dfb8:  80fb3023          sd                      a5,-2048(s6)
0x8000dfbc:  568030ef          jal                     ra,13672                # 0x80011524

----------------
IN: 
Priv: 3; Virt: 0
0x80011524:  0805ce63          bltz                    a1,156                  # 0x800115c0

----------------
IN: 
Priv: 3; Virt: 0
0x80011528:  715d              addi                    sp,sp,-80
0x8001152a:  e0a2              sd                      s0,64(sp)
0x8001152c:  fc26              sd                      s1,56(sp)
0x8001152e:  e486              sd                      ra,72(sp)
0x80011530:  f84a              sd                      s2,48(sp)
0x80011532:  f44e              sd                      s3,40(sp)
0x80011534:  0880              addi                    s0,sp,80
0x80011536:  84b2              mv                      s1,a2
0x80011538:  c249              beqz                    a2,130                  # 0x800115ba

----------------
IN: 
Priv: 3; Virt: 0
0x8001153a:  89aa              mv                      s3,a0
0x8001153c:  cd3d              beqz                    a0,126                  # 0x800115ba

----------------
IN: 
Priv: 3; Virt: 0
0x8001153e:  fc840713          addi                    a4,s0,-56
0x80011542:  fc040693          addi                    a3,s0,-64
0x80011546:  4601              mv                      a2,zero
0x80011548:  892e              mv                      s2,a1
0x8001154a:  f41fe0ef          jal                     ra,-4288                # 0x8001048a

----------------
IN: 
Priv: 3; Virt: 0
0x8001154e:  06054663          bltz                    a0,108                  # 0x800115ba

----------------
IN: 
Priv: 3; Virt: 0
0x80011552:  fc043783          ld                      a5,-64(s0)
0x80011556:  c3b5              beqz                    a5,100                  # 0x800115ba

----------------
IN: 
Priv: 3; Virt: 0
0x80011558:  fc843703          ld                      a4,-56(s0)
0x8001155c:  cf39              beqz                    a4,94                   # 0x800115ba

----------------
IN: 
Priv: 3; Virt: 0
0x8001155e:  e09c              sd                      a5,0(s1)
0x80011560:  fbc40693          addi                    a3,s0,-68
0x80011564:  00006617          auipc                   a2,6                    # 0x80017564
0x80011568:  bc460613          addi                    a2,a2,-1084
0x8001156c:  85ca              mv                      a1,s2
0x8001156e:  854e              mv                      a0,s3
0x80011570:  d33fb0ef          jal                     ra,-17102               # 0x8000d2a2

----------------
IN: 
Priv: 3; Virt: 0
0x80011574:  fbc42703          lw                      a4,-68(s0)
0x80011578:  87aa              mv                      a5,a0
0x8001157a:  4501              mv                      a0,zero
0x8001157c:  02e05863          blez                    a4,48                   # 0x800115ac

----------------
IN: 
Priv: 3; Virt: 0
0x80011580:  439c              lw                      a5,0(a5)
0x80011582:  0087d693          srli                    a3,a5,8
0x80011586:  0187971b          slliw                   a4,a5,24
0x8001158a:  0187d61b          srliw                   a2,a5,24
0x8001158e:  0ff6f693          andi                    a3,a3,255
0x80011592:  83c1              srli                    a5,a5,16
0x80011594:  8f51              or                      a4,a4,a2
0x80011596:  0106969b          slliw                   a3,a3,16
0x8001159a:  0ff7f793          andi                    a5,a5,255
0x8001159e:  8f55              or                      a4,a4,a3
0x800115a0:  0087979b          slliw                   a5,a5,8
0x800115a4:  8fd9              or                      a5,a5,a4
0x800115a6:  1782              slli                    a5,a5,32
0x800115a8:  9381              srli                    a5,a5,32
0x800115aa:  e49c              sd                      a5,8(s1)
0x800115ac:  60a6              ld                      ra,72(sp)
0x800115ae:  6406              ld                      s0,64(sp)
0x800115b0:  74e2              ld                      s1,56(sp)
0x800115b2:  7942              ld                      s2,48(sp)
0x800115b4:  79a2              ld                      s3,40(sp)
0x800115b6:  6161              addi                    sp,sp,80
0x800115b8:  8082              ret                     

----------------
IN: 
Priv: 3; Virt: 0
0x8000dfc0:  8a2a              mv                      s4,a0
0x8000dfc2:  10051863          bnez                    a0,272                  # 0x8000e0d2

----------------
IN: 
Priv: 3; Virt: 0
0x8000dfc6:  0089b783          ld                      a5,8(s3)
0x8000dfca:  c399              beqz                    a5,6                    # 0x8000dfd0

----------------
IN: 
Priv: 3; Virt: 0
0x8000dfd0:  8556              mv                      a0,s5
0x8000dfd2:  351000ef          jal                     ra,2896                 # 0x8000eb22

----------------
IN: 
Priv: 3; Virt: 0
0x8000eb22:  1141              addi                    sp,sp,-16
0x8000eb24:  e422              sd                      s0,8(sp)
0x8000eb26:  0800              addi                    s0,sp,16
0x8000eb28:  c90d              beqz                    a0,50                   # 0x8000eb5a

----------------
IN: 
Priv: 3; Virt: 0
0x8000eb2a:  651c              ld                      a5,8(a0)
0x8000eb2c:  4691              addi                    a3,zero,4
0x8000eb2e:  4701              mv                      a4,zero
0x8000eb30:  4581              mv                      a1,zero
0x8000eb32:  c385              beqz                    a5,32                   # 0x8000eb52

----------------
IN: 
Priv: 3; Virt: 0
0x8000eb34:  6110              ld                      a2,0(a0)
0x8000eb36:  02069793          slli                    a5,a3,32
0x8000eb3a:  9381              srli                    a5,a5,32
0x8000eb3c:  97b2              add                     a5,a5,a2
0x8000eb3e:  0140000f          fence                   w,o
0x8000eb42:  c38c              sw                      a1,0(a5)
0x8000eb44:  6510              ld                      a2,8(a0)
0x8000eb46:  00270793          addi                    a5,a4,2
0x8000eb4a:  2691              addiw                   a3,a3,4
0x8000eb4c:  0705              addi                    a4,a4,1
0x8000eb4e:  fef673e3          bleu                    a5,a2,-26               # 0x8000eb34

----------------
IN: 
Priv: 3; Virt: 0
0x8000eb42:  c38c              sw                      a1,0(a5)

----------------
IN: 
Priv: 3; Virt: 0
0x8000eb44:  6510              ld                      a2,8(a0)
0x8000eb46:  00270793          addi                    a5,a4,2
0x8000eb4a:  2691              addiw                   a3,a3,4
0x8000eb4c:  0705              addi                    a4,a4,1
0x8000eb4e:  fef673e3          bleu                    a5,a2,-26               # 0x8000eb34

----------------
IN: 
Priv: 3; Virt: 0
0x8000eb52:  4501              mv                      a0,zero
0x8000eb54:  6422              ld                      s0,8(sp)
0x8000eb56:  0141              addi                    sp,sp,16
0x8000eb58:  8082              ret                     

----------------
IN: 
Priv: 3; Virt: 0
0x8000dfd6:  8a2a              mv                      s4,a0
0x8000dfd8:  0e051d63          bnez                    a0,250                  # 0x8000e0d2

----------------
IN: 
Priv: 3; Virt: 0
0x8000dfdc:  800b3703          ld                      a4,-2048(s6)
0x8000dfe0:  4785              addi                    a5,zero,1
0x8000dfe2:  12f70063          beq                     a4,a5,288               # 0x8000e102

----------------
IN: 
Priv: 3; Virt: 0
0x8000e102:  0001e717          auipc                   a4,30                   # 0x8002c102
0x8000e106:  30e70713          addi                    a4,a4,782
0x8000e10a:  0001e797          auipc                   a5,30                   # 0x8002c10a
0x8000e10e:  f0678793          addi                    a5,a5,-250
0x8000e112:  863a              mv                      a2,a4
0x8000e114:  56fd              addi                    a3,zero,-1
0x8000e116:  00073023          sd                      zero,0(a4)
0x8000e11a:  c394              sw                      a3,0(a5)
0x8000e11c:  c3d4              sw                      a3,4(a5)
0x8000e11e:  07a1              addi                    a5,a5,8
0x8000e120:  0721              addi                    a4,a4,8
0x8000e122:  fef61ae3          bne                     a2,a5,-12               # 0x8000e116

----------------
IN: 
Priv: 3; Virt: 0
0x8000e116:  00073023          sd                      zero,0(a4)
0x8000e11a:  c394              sw                      a3,0(a5)
0x8000e11c:  c3d4              sw                      a3,4(a5)
0x8000e11e:  07a1              addi                    a5,a5,8
0x8000e120:  0721              addi                    a4,a4,8
0x8000e122:  fef61ae3          bne                     a2,a5,-12               # 0x8000e116

----------------
IN: 
Priv: 3; Virt: 0
0x8000e126:  b5c1              j                       -320                    # 0x8000dfe6

----------------
IN: 
Priv: 3; Virt: 0
0x8000dfe6:  f8c40693          addi                    a3,s0,-116
0x8000dfea:  00009617          auipc                   a2,9                    # 0x80016fea
0x8000dfee:  d3e60613          addi                    a2,a2,-706
0x8000dff2:  85a6              mv                      a1,s1
0x8000dff4:  854a              mv                      a0,s2
0x8000dff6:  aacff0ef          jal                     ra,-3412                # 0x8000d2a2

----------------
IN: 
Priv: 3; Virt: 0
0x8000dffa:  8daa              mv                      s11,a0
0x8000dffc:  12050963          beqz                    a0,306                  # 0x8000e12e

----------------
IN: 
Priv: 3; Virt: 0
0x8000e000:  f8c42783          lw                      a5,-116(s0)
0x8000e004:  470d              addi                    a4,zero,3
0x8000e006:  12f77463          bleu                    a5,a4,296               # 0x8000e12e

----------------
IN: 
Priv: 3; Virt: 0
0x8000e00a:  8789              srai                    a5,a5,2
0x8000e00c:  f8f42623          sw                      a5,-116(s0)
0x8000e010:  4981              mv                      s3,zero
0x8000e012:  0cf05063          blez                    a5,192                  # 0x8000e0d2

----------------
IN: 
Priv: 3; Virt: 0
0x8000e016:  f8840b13          addi                    s6,s0,-120
0x8000e01a:  07f00c13          addi                    s8,zero,127
0x8000e01e:  0001eb97          auipc                   s7,30                   # 0x8002c01e
0x8000e022:  ff2b8b93          addi                    s7,s7,-14
0x8000e026:  4d25              addi                    s10,zero,9
0x8000e028:  4cad              addi                    s9,zero,11
0x8000e02a:  000da783          lw                      a5,0(s11)
0x8000e02e:  854a              mv                      a0,s2
0x8000e030:  004da483          lw                      s1,4(s11)
0x8000e034:  0087d693          srli                    a3,a5,8
0x8000e038:  0187971b          slliw                   a4,a5,24
0x8000e03c:  0187d61b          srliw                   a2,a5,24
0x8000e040:  0ff6f693          andi                    a3,a3,255
0x8000e044:  0107d593          srli                    a1,a5,16
0x8000e048:  0ff5f593          andi                    a1,a1,255
0x8000e04c:  00c767b3          or                      a5,a4,a2
0x8000e050:  0106971b          slliw                   a4,a3,16
0x8000e054:  8fd9              or                      a5,a5,a4
0x8000e056:  0085959b          slliw                   a1,a1,8
0x8000e05a:  8ddd              or                      a1,a1,a5
0x8000e05c:  2581              sext.w                  a1,a1
0x8000e05e:  827ff0ef          jal                     ra,-2010                # 0x8000d884

----------------
IN: 
Priv: 3; Virt: 0
0x8000d884:  7179              addi                    sp,sp,-48
0x8000d886:  f022              sd                      s0,32(sp)
0x8000d888:  f406              sd                      ra,40(sp)
0x8000d88a:  ec26              sd                      s1,24(sp)
0x8000d88c:  e84a              sd                      s2,16(sp)
0x8000d88e:  e44e              sd                      s3,8(sp)
0x8000d890:  1800              addi                    s0,sp,48
0x8000d892:  fff5871b          addiw                   a4,a1,-1
0x8000d896:  57f5              addi                    a5,zero,-3
0x8000d898:  04e7e563          bgtu                    a4,a5,74                # 0x8000d8e2

----------------
IN: 
Priv: 3; Virt: 0
0x8000d89c:  89ae              mv                      s3,a1
0x8000d89e:  892a              mv                      s2,a0
0x8000d8a0:  819fe0ef          jal                     ra,-6120                # 0x8000c0b8

----------------
IN: 
Priv: 3; Virt: 0
0x8000d8a4:  84aa              mv                      s1,a0
0x8000d8a6:  02054663          bltz                    a0,44                   # 0x8000d8d2

----------------
IN: 
Priv: 3; Virt: 0
0x8000d8aa:  4601              mv                      a2,zero
0x8000d8ac:  55fd              addi                    a1,zero,-1
0x8000d8ae:  854a              mv                      a0,s2
0x8000d8b0:  a821              j                       24                      # 0x8000d8c8

----------------
IN: 
Priv: 3; Virt: 0
0x8000d8c8:  e25fe0ef          jal                     ra,-4572                # 0x8000c6ec

----------------
IN: 
Priv: 3; Virt: 0
0x8000d8cc:  84aa              mv                      s1,a0
0x8000d8ce:  fe0552e3          bgez                    a0,-28                  # 0x8000d8b2

----------------
IN: 
Priv: 3; Virt: 0
0x8000d8b2:  85aa              mv                      a1,a0
0x8000d8b4:  854a              mv                      a0,s2
0x8000d8b6:  a2bff0ef          jal                     ra,-1494                # 0x8000d2e0

----------------
IN: 
Priv: 3; Virt: 0
0x8000d2e0:  7139              addi                    sp,sp,-64
0x8000d2e2:  f822              sd                      s0,48(sp)
0x8000d2e4:  f426              sd                      s1,40(sp)
0x8000d2e6:  f04a              sd                      s2,32(sp)
0x8000d2e8:  ec4e              sd                      s3,24(sp)
0x8000d2ea:  0080              addi                    s0,sp,64
0x8000d2ec:  fc06              sd                      ra,56(sp)
0x8000d2ee:  84aa              mv                      s1,a0
0x8000d2f0:  0000a517          auipc                   a0,10                   # 0x800172f0
0x8000d2f4:  9f050513          addi                    a0,a0,-1552
0x8000d2f8:  892e              mv                      s2,a1
0x8000d2fa:  fcc40993          addi                    s3,s0,-52
0x8000d2fe:  a7af50ef          jal                     ra,-44422               # 0x80002578

----------------
IN: 
Priv: 3; Virt: 0
0x8000d302:  0005069b          sext.w                  a3,a0
0x8000d306:  874e              mv                      a4,s3
0x8000d308:  0000a617          auipc                   a2,10                   # 0x80017308
0x8000d30c:  9d860613          addi                    a2,a2,-1576
0x8000d310:  85ca              mv                      a1,s2
0x8000d312:  8526              mv                      a0,s1
0x8000d314:  e1bff0ef          jal                     ra,-486                 # 0x8000d12e

----------------
IN: 
Priv: 3; Virt: 0
0x8000d318:  c519              beqz                    a0,14                   # 0x8000d326

----------------
IN: 
Priv: 3; Virt: 0
0x8000d326:  0000a517          auipc                   a0,10                   # 0x80017326
0x8000d32a:  9c250513          addi                    a0,a0,-1598
0x8000d32e:  a4af50ef          jal                     ra,-44470               # 0x80002578

----------------
IN: 
Priv: 3; Virt: 0
0x8000d332:  0005069b          sext.w                  a3,a0
0x8000d336:  874e              mv                      a4,s3
0x8000d338:  0000a617          auipc                   a2,10                   # 0x80017338
0x8000d33c:  9b060613          addi                    a2,a2,-1616
0x8000d340:  85ca              mv                      a1,s2
0x8000d342:  8526              mv                      a0,s1
0x8000d344:  debff0ef          jal                     ra,-534                 # 0x8000d12e

----------------
IN: 
Priv: 3; Virt: 0
0x8000d348:  87aa              mv                      a5,a0
0x8000d34a:  c929              beqz                    a0,82                   # 0x8000d39c

----------------
IN: 
Priv: 3; Virt: 0
0x8000d39c:  70e2              ld                      ra,56(sp)
0x8000d39e:  7442              ld                      s0,48(sp)
0x8000d3a0:  74a2              ld                      s1,40(sp)
0x8000d3a2:  7902              ld                      s2,32(sp)
0x8000d3a4:  69e2              ld                      s3,24(sp)
0x8000d3a6:  4501              mv                      a0,zero
0x8000d3a8:  6121              addi                    sp,sp,64
0x8000d3aa:  8082              ret                     

----------------
IN: 
Priv: 3; Virt: 0
0x8000d8ba:  87aa              mv                      a5,a0
0x8000d8bc:  2781              sext.w                  a5,a5
0x8000d8be:  85a6              mv                      a1,s1
0x8000d8c0:  4601              mv                      a2,zero
0x8000d8c2:  854a              mv                      a0,s2
0x8000d8c4:  01378763          beq                     a5,s3,14                # 0x8000d8d2

----------------
IN: 
Priv: 3; Virt: 0
0x8000d31a:  fcc42683          lw                      a3,-52(s0)
0x8000d31e:  4711              addi                    a4,zero,4
0x8000d320:  87aa              mv                      a5,a0
0x8000d322:  04e68263          beq                     a3,a4,68                # 0x8000d366

----------------
IN: 
Priv: 3; Virt: 0
0x8000d366:  439c              lw                      a5,0(a5)
0x8000d368:  70e2              ld                      ra,56(sp)
0x8000d36a:  7442              ld                      s0,48(sp)
0x8000d36c:  0087d713          srli                    a4,a5,8
0x8000d370:  0187951b          slliw                   a0,a5,24
0x8000d374:  0187d69b          srliw                   a3,a5,24
0x8000d378:  0ff77713          andi                    a4,a4,255
0x8000d37c:  83c1              srli                    a5,a5,16
0x8000d37e:  8d55              or                      a0,a0,a3
0x8000d380:  0107171b          slliw                   a4,a4,16
0x8000d384:  0ff7f793          andi                    a5,a5,255
0x8000d388:  8d59              or                      a0,a0,a4
0x8000d38a:  0087979b          slliw                   a5,a5,8
0x8000d38e:  8d5d              or                      a0,a0,a5
0x8000d390:  74a2              ld                      s1,40(sp)
0x8000d392:  7902              ld                      s2,32(sp)
0x8000d394:  69e2              ld                      s3,24(sp)
0x8000d396:  2501              sext.w                  a0,a0
0x8000d398:  6121              addi                    sp,sp,64
0x8000d39a:  8082              ret                     

----------------
IN: 
Priv: 3; Virt: 0
0x8000d8d2:  70a2              ld                      ra,40(sp)
0x8000d8d4:  7402              ld                      s0,32(sp)
0x8000d8d6:  6942              ld                      s2,16(sp)
0x8000d8d8:  69a2              ld                      s3,8(sp)
0x8000d8da:  8526              mv                      a0,s1
0x8000d8dc:  64e2              ld                      s1,24(sp)
0x8000d8de:  6145              addi                    sp,sp,48
0x8000d8e0:  8082              ret                     

----------------
IN: 
Priv: 3; Virt: 0
0x8000e062:  85aa              mv                      a1,a0
0x8000e064:  854a              mv                      a0,s2
0x8000e066:  0605c063          bltz                    a1,96                   # 0x8000e0c6

----------------
IN: 
Priv: 3; Virt: 0
0x8000e06a:  f3cff0ef          jal                     ra,-2244                # 0x8000d7a6

----------------
IN: 
Priv: 3; Virt: 0
0x8000e06e:  85aa              mv                      a1,a0
0x8000e070:  865a              mv                      a2,s6
0x8000e072:  854a              mv                      a0,s2
0x8000e074:  0405c963          bltz                    a1,82                   # 0x8000e0c6

----------------
IN: 
Priv: 3; Virt: 0
0x8000e078:  06b020ef          jal                     ra,10346                # 0x800108e2

----------------
IN: 
Priv: 3; Virt: 0
0x800108e2:  715d              addi                    sp,sp,-80
0x800108e4:  e0a2              sd                      s0,64(sp)
0x800108e6:  e486              sd                      ra,72(sp)
0x800108e8:  fc26              sd                      s1,56(sp)
0x800108ea:  f84a              sd                      s2,48(sp)
0x800108ec:  f44e              sd                      s3,40(sp)
0x800108ee:  f052              sd                      s4,32(sp)
0x800108f0:  ec56              sd                      s5,24(sp)
0x800108f2:  0880              addi                    s0,sp,80
0x800108f4:  c555              beqz                    a0,172                  # 0x800109a0

----------------
IN: 
Priv: 3; Virt: 0
0x800108f6:  89ae              mv                      s3,a1
0x800108f8:  0a05c463          bltz                    a1,168                  # 0x800109a0

----------------
IN: 
Priv: 3; Virt: 0
0x800108fc:  fbc40a93          addi                    s5,s0,-68
0x80010900:  84b2              mv                      s1,a2
0x80010902:  86d6              mv                      a3,s5
0x80010904:  00006617          auipc                   a2,6                    # 0x80016904
0x80010908:  70c60613          addi                    a2,a2,1804
0x8001090c:  892a              mv                      s2,a0
0x8001090e:  995fc0ef          jal                     ra,-13932               # 0x8000d2a2

----------------
IN: 
Priv: 3; Virt: 0
0x80010912:  8a2a              mv                      s4,a0
0x80010914:  c551              beqz                    a0,140                  # 0x800109a0

----------------
IN: 
Priv: 3; Virt: 0
0x80010916:  fbc42783          lw                      a5,-68(s0)
0x8001091a:  c3d9              beqz                    a5,134                  # 0x800109a0

----------------
IN: 
Priv: 3; Virt: 0
0x8001091c:  00006517          auipc                   a0,6                    # 0x8001691c
0x80010920:  70450513          addi                    a0,a0,1796
0x80010924:  c55f10ef          jal                     ra,-58284               # 0x80002578

----------------
IN: 
Priv: 3; Virt: 0
0x80010928:  862a              mv                      a2,a0
0x8001092a:  00006597          auipc                   a1,6                    # 0x8001692a
0x8001092e:  6f658593          addi                    a1,a1,1782
0x80010932:  8552              mv                      a0,s4
0x80010934:  c11f10ef          jal                     ra,-58352               # 0x80002544

----------------
IN: 
Priv: 3; Virt: 0
0x80002544:  1141              addi                    sp,sp,-16
0x80002546:  e422              sd                      s0,8(sp)
0x80002548:  0800              addi                    s0,sp,16
0x8000254a:  c21d              beqz                    a2,38                   # 0x80002570

----------------
IN: 
Priv: 3; Virt: 0
0x8000254c:  962e              add                     a2,a2,a1
0x8000254e:  a021              j                       8                       # 0x80002556

----------------
IN: 
Priv: 3; Virt: 0
0x80002556:  00054783          lbu                     a5,0(a0)
0x8000255a:  0005c703          lbu                     a4,0(a1)
0x8000255e:  0505              addi                    a0,a0,1
0x80002560:  0585              addi                    a1,a1,1
0x80002562:  fee787e3          beq                     a5,a4,-18               # 0x80002550

----------------
IN: 
Priv: 3; Virt: 0
0x80002550:  cb99              beqz                    a5,22                   # 0x80002566

----------------
IN: 
Priv: 3; Virt: 0
0x80002552:  00b60f63          beq                     a2,a1,30                # 0x80002570

----------------
IN: 
Priv: 3; Virt: 0
0x80002570:  6422              ld                      s0,8(sp)
0x80002572:  4501              mv                      a0,zero
0x80002574:  0141              addi                    sp,sp,16
0x80002576:  8082              ret                     

----------------
IN: 
Priv: 3; Virt: 0
0x80010938:  8a2a              mv                      s4,a0
0x8001093a:  e13d              bnez                    a0,102                  # 0x800109a0

----------------
IN: 
Priv: 3; Virt: 0
0x8001093c:  86d6              mv                      a3,s5
0x8001093e:  00006617          auipc                   a2,6                    # 0x8001693e
0x80010942:  34a60613          addi                    a2,a2,842
0x80010946:  85ce              mv                      a1,s3
0x80010948:  854a              mv                      a0,s2
0x8001094a:  959fc0ef          jal                     ra,-13992               # 0x8000d2a2

----------------
IN: 
Priv: 3; Virt: 0
0x8001094e:  c929              beqz                    a0,82                   # 0x800109a0

----------------
IN: 
Priv: 3; Virt: 0
0x80010950:  fbc42783          lw                      a5,-68(s0)
0x80010954:  470d              addi                    a4,zero,3
0x80010956:  04f77563          bleu                    a5,a4,74                # 0x800109a0

----------------
IN: 
Priv: 3; Virt: 0
0x8001095a:  4711              addi                    a4,zero,4
0x8001095c:  00e78363          beq                     a5,a4,6                 # 0x80010962

----------------
IN: 
Priv: 3; Virt: 0
0x80010962:  c48d              beqz                    s1,42                   # 0x8001098c

----------------
IN: 
Priv: 3; Virt: 0
0x80010964:  411c              lw                      a5,0(a0)
0x80010966:  0087d693          srli                    a3,a5,8
0x8001096a:  0187971b          slliw                   a4,a5,24
0x8001096e:  0187d61b          srliw                   a2,a5,24
0x80010972:  0ff6f693          andi                    a3,a3,255
0x80010976:  83c1              srli                    a5,a5,16
0x80010978:  8f51              or                      a4,a4,a2
0x8001097a:  0106969b          slliw                   a3,a3,16
0x8001097e:  0ff7f793          andi                    a5,a5,255
0x80010982:  8f55              or                      a4,a4,a3
0x80010984:  0087979b          slliw                   a5,a5,8
0x80010988:  8fd9              or                      a5,a5,a4
0x8001098a:  c09c              sw                      a5,0(s1)
0x8001098c:  60a6              ld                      ra,72(sp)
0x8001098e:  6406              ld                      s0,64(sp)
0x80010990:  74e2              ld                      s1,56(sp)
0x80010992:  7942              ld                      s2,48(sp)
0x80010994:  79a2              ld                      s3,40(sp)
0x80010996:  6ae2              ld                      s5,24(sp)
0x80010998:  8552              mv                      a0,s4
0x8001099a:  7a02              ld                      s4,32(sp)
0x8001099c:  6161              addi                    sp,sp,80
0x8001099e:  8082              ret                     

----------------
IN: 
Priv: 3; Virt: 0
0x8000e07c:  0084d713          srli                    a4,s1,8
0x8000e080:  0184979b          slliw                   a5,s1,24
0x8000e084:  0184d69b          srliw                   a3,s1,24
0x8000e088:  0ff77713          andi                    a4,a4,255
0x8000e08c:  80c1              srli                    s1,s1,16
0x8000e08e:  8fd5              or                      a5,a5,a3
0x8000e090:  0107171b          slliw                   a4,a4,16
0x8000e094:  0ff4f493          andi                    s1,s1,255
0x8000e098:  8fd9              or                      a5,a5,a4
0x8000e09a:  0084949b          slliw                   s1,s1,8
0x8000e09e:  8cdd              or                      s1,s1,a5
0x8000e0a0:  2481              sext.w                  s1,s1
0x8000e0a2:  e115              bnez                    a0,36                   # 0x8000e0c6

----------------
IN: 
Priv: 3; Virt: 0
0x8000e0a4:  f8842703          lw                      a4,-120(s0)
0x8000e0a8:  02071793          slli                    a5,a4,32
0x8000e0ac:  83f5              srli                    a5,a5,29
0x8000e0ae:  97de              add                     a5,a5,s7
0x8000e0b0:  00ec6b63          bgtu                    a4,s8,22                # 0x8000e0c6

----------------
IN: 
Priv: 3; Virt: 0
0x8000e0b4:  4157b023          sd                      s5,1024(a5)
0x8000e0b8:  4019d71b          sraiw                   a4,s3,1
0x8000e0bc:  03a48b63          beq                     s1,s10,54               # 0x8000e0f2

----------------
IN: 
Priv: 3; Virt: 0
0x8000e0c0:  01949363          bne                     s1,s9,6                 # 0x8000e0c6

----------------
IN: 
Priv: 3; Virt: 0
0x8000e0c4:  c398              sw                      a4,0(a5)
0x8000e0c6:  f8c42783          lw                      a5,-116(s0)
0x8000e0ca:  2989              addiw                   s3,s3,2
0x8000e0cc:  0da1              addi                    s11,s11,8
0x8000e0ce:  f4f9cee3          bgt                     a5,s3,-164              # 0x8000e02a

----------------
IN: 
Priv: 3; Virt: 0
0x8000e02a:  000da783          lw                      a5,0(s11)
0x8000e02e:  854a              mv                      a0,s2
0x8000e030:  004da483          lw                      s1,4(s11)
0x8000e034:  0087d693          srli                    a3,a5,8
0x8000e038:  0187971b          slliw                   a4,a5,24
0x8000e03c:  0187d61b          srliw                   a2,a5,24
0x8000e040:  0ff6f693          andi                    a3,a3,255
0x8000e044:  0107d593          srli                    a1,a5,16
0x8000e048:  0ff5f593          andi                    a1,a1,255
0x8000e04c:  00c767b3          or                      a5,a4,a2
0x8000e050:  0106971b          slliw                   a4,a3,16
0x8000e054:  8fd9              or                      a5,a5,a4
0x8000e056:  0085959b          slliw                   a1,a1,8
0x8000e05a:  8ddd              or                      a1,a1,a5
0x8000e05c:  2581              sext.w                  a1,a1
0x8000e05e:  827ff0ef          jal                     ra,-2010                # 0x8000d884

----------------
IN: 
Priv: 3; Virt: 0
0x8000e0f2:  c3d8              sw                      a4,4(a5)
0x8000e0f4:  f8c42783          lw                      a5,-116(s0)
0x8000e0f8:  2989              addiw                   s3,s3,2
0x8000e0fa:  0da1              addi                    s11,s11,8
0x8000e0fc:  f2f9c7e3          bgt                     a5,s3,-210              # 0x8000e02a

----------------
IN: 
Priv: 3; Virt: 0
0x8000e100:  bfc9              j                       -46                     # 0x8000e0d2

----------------
IN: 
Priv: 3; Virt: 0
0x8000e0d2:  70e6              ld                      ra,120(sp)
0x8000e0d4:  7446              ld                      s0,112(sp)
0x8000e0d6:  74a6              ld                      s1,104(sp)
0x8000e0d8:  7906              ld                      s2,96(sp)
0x8000e0da:  69e6              ld                      s3,88(sp)
0x8000e0dc:  6aa6              ld                      s5,72(sp)
0x8000e0de:  6b06              ld                      s6,64(sp)
0x8000e0e0:  7be2              ld                      s7,56(sp)
0x8000e0e2:  7c42              ld                      s8,48(sp)
0x8000e0e4:  7ca2              ld                      s9,40(sp)
0x8000e0e6:  7d02              ld                      s10,32(sp)
0x8000e0e8:  6de2              ld                      s11,24(sp)
0x8000e0ea:  8552              mv                      a0,s4
0x8000e0ec:  6a46              ld                      s4,80(sp)
0x8000e0ee:  6109              addi                    sp,sp,128
0x8000e0f0:  8082              ret                     

----------------
IN: 
Priv: 3; Virt: 0
0x8000dd26:  fd750ee3          beq                     a0,s7,-36               # 0x8000dd02

----------------
IN: 
Priv: 3; Virt: 0
0x8000dd2a:  f141              bnez                    a0,-128                 # 0x8000dcaa

----------------
IN: 
Priv: 3; Virt: 0
0x8000dd2c:  fc0a9be3          bnez                    s5,-42                  # 0x8000dd02

----------------
IN: 
Priv: 3; Virt: 0
0x8000dd30:  000a2783          lw                      a5,0(s4)
0x8000dd34:  4a85              addi                    s5,zero,1
0x8000dd36:  00379713          slli                    a4,a5,3
0x8000dd3a:  9752              add                     a4,a4,s4
0x8000dd3c:  2785              addiw                   a5,a5,1
0x8000dd3e:  00fa2023          sw                      a5,0(s4)
0x8000dd42:  01273423          sd                      s2,8(a4)
0x8000dd46:  bf75              j                       -68                     # 0x8000dd02

----------------
IN: 
Priv: 3; Virt: 0
0x8000dd02:  00093603          ld                      a2,0(s2)
0x8000dd06:  85a6              mv                      a1,s1
0x8000dd08:  86da              mv                      a3,s6
0x8000dd0a:  854e              mv                      a0,s3
0x8000dd0c:  5ba020ef          jal                     ra,9658                 # 0x800102c6

----------------
IN: 
Priv: 3; Virt: 0
0x8000dd5e:  b715              j                       -220                    # 0x8000dc82

----------------
IN: 
Priv: 3; Virt: 0
0x8000dc82:  0001c917          auipc                   s2,28                   # 0x80029c82
0x8000dc86:  d3e90913          addi                    s2,s2,-706
0x8000dc8a:  4981              mv                      s3,zero
0x8000dc8c:  00f05e63          blez                    a5,28                   # 0x8000dca8

----------------
IN: 
Priv: 3; Virt: 0
0x8000dc90:  00093783          ld                      a5,0(s2)
0x8000dc94:  2985              addiw                   s3,s3,1
0x8000dc96:  0921              addi                    s2,s2,8
0x8000dc98:  c789              beqz                    a5,10                   # 0x8000dca2

----------------
IN: 
Priv: 3; Virt: 0
0x8000dc9a:  6b9c              ld                      a5,16(a5)
0x8000dc9c:  c399              beqz                    a5,6                    # 0x8000dca2

----------------
IN: 
Priv: 3; Virt: 0
0x8000dc9e:  9782              jalr                    ra,a5,0

----------------
IN: 
Priv: 3; Virt: 0
0x8000df40:  1141              addi                    sp,sp,-16
0x8000df42:  e022              sd                      s0,0(sp)
0x8000df44:  e406              sd                      ra,8(sp)
0x8000df46:  0800              addi                    s0,sp,16
0x8000df48:  f14027f3          csrrs                   a5,mhartid,zero

----------------
IN: 
Priv: 3; Virt: 0
0x8000df4c:  1782              slli                    a5,a5,32
0x8000df4e:  01d7d713          srli                    a4,a5,29
0x8000df52:  0001e797          auipc                   a5,30                   # 0x8002bf52
0x8000df56:  0be78793          addi                    a5,a5,190
0x8000df5a:  97ba              add                     a5,a5,a4
0x8000df5c:  43d0              lw                      a2,4(a5)
0x8000df5e:  438c              lw                      a1,0(a5)
0x8000df60:  4007b503          ld                      a0,1024(a5)
0x8000df64:  377000ef          jal                     ra,2934                 # 0x8000eada

----------------
IN: 
Priv: 3; Virt: 0
0x8000eada:  1101              addi                    sp,sp,-32
0x8000eadc:  e822              sd                      s0,16(sp)
0x8000eade:  e426              sd                      s1,8(sp)
0x8000eae0:  e04a              sd                      s2,0(sp)
0x8000eae2:  ec06              sd                      ra,24(sp)
0x8000eae4:  1000              addi                    s0,sp,32
0x8000eae6:  892a              mv                      s2,a0
0x8000eae8:  84b2              mv                      s1,a2
0x8000eaea:  0205d163          bgez                    a1,34                   # 0x8000eb0c

----------------
IN: 
Priv: 3; Virt: 0
0x8000eb0c:  469d              addi                    a3,zero,7
0x8000eb0e:  4601              mv                      a2,zero
0x8000eb10:  f51ff0ef          jal                     ra,-176                 # 0x8000ea60

----------------
IN: 
Priv: 3; Virt: 0
0x8000ea60:  1141              addi                    sp,sp,-16
0x8000ea62:  e422              sd                      s0,8(sp)
0x8000ea64:  0800              addi                    s0,sp,16
0x8000ea66:  c925              beqz                    a0,112                  # 0x8000ead6

----------------
IN: 
Priv: 3; Virt: 0
0x8000ea68:  0605c763          bltz                    a1,110                  # 0x8000ead6

----------------
IN: 
Priv: 3; Virt: 0
0x8000ea6c:  00853883          ld                      a7,8(a0)
0x8000ea70:  00c03633          snez                    a2,a2
0x8000ea74:  40c00833          neg                     a6,a2
0x8000ea78:  0058d893          srli                    a7,a7,5
0x8000ea7c:  0018879b          addiw                   a5,a7,1
0x8000ea80:  2581              sext.w                  a1,a1
0x8000ea82:  2881              sext.w                  a7,a7
0x8000ea84:  cb8d              beqz                    a5,50                   # 0x8000eab6

----------------
IN: 
Priv: 3; Virt: 0
0x8000ea86:  0075931b          slliw                   t1,a1,7
0x8000ea8a:  1302              slli                    t1,t1,32
0x8000ea8c:  02035313          srli                    t1,t1,32
0x8000ea90:  4701              mv                      a4,zero
0x8000ea92:  6e09              lui                     t3,2
0x8000ea94:  611c              ld                      a5,0(a0)
0x8000ea96:  0027161b          slliw                   a2,a4,2
0x8000ea9a:  1602              slli                    a2,a2,32
0x8000ea9c:  97f2              add                     a5,a5,t3
0x8000ea9e:  9201              srli                    a2,a2,32
0x8000eaa0:  979a              add                     a5,a5,t1
0x8000eaa2:  97b2              add                     a5,a5,a2
0x8000eaa4:  0140000f          fence                   w,o
0x8000eaa8:  0107a023          sw                      a6,0(a5)
0x8000eaac:  0007079b          sext.w                  a5,a4
0x8000eab0:  2705              addiw                   a4,a4,1
0x8000eab2:  fef891e3          bne                     a7,a5,-30               # 0x8000ea94

----------------
IN: 
Priv: 3; Virt: 0
0x8000eaa8:  0107a023          sw                      a6,0(a5)

----------------
IN: 
Priv: 3; Virt: 0
0x8000eaac:  0007079b          sext.w                  a5,a4
0x8000eab0:  2705              addiw                   a4,a4,1
0x8000eab2:  fef891e3          bne                     a7,a5,-30               # 0x8000ea94

----------------
IN: 
Priv: 3; Virt: 0
0x8000ea94:  611c              ld                      a5,0(a0)
0x8000ea96:  0027161b          slliw                   a2,a4,2
0x8000ea9a:  1602              slli                    a2,a2,32
0x8000ea9c:  97f2              add                     a5,a5,t3
0x8000ea9e:  9201              srli                    a2,a2,32
0x8000eaa0:  979a              add                     a5,a5,t1
0x8000eaa2:  97b2              add                     a5,a5,a2
0x8000eaa4:  0140000f          fence                   w,o
0x8000eaa8:  0107a023          sw                      a6,0(a5)
0x8000eaac:  0007079b          sext.w                  a5,a4
0x8000eab0:  2705              addiw                   a4,a4,1
0x8000eab2:  fef891e3          bne                     a7,a5,-30               # 0x8000ea94

----------------
IN: 
Priv: 3; Virt: 0
0x8000eab6:  6118              ld                      a4,0(a0)
0x8000eab8:  00c5959b          slliw                   a1,a1,12
0x8000eabc:  002007b7          lui                     a5,512
0x8000eac0:  1582              slli                    a1,a1,32
0x8000eac2:  97ba              add                     a5,a5,a4
0x8000eac4:  9181              srli                    a1,a1,32
0x8000eac6:  95be              add                     a1,a1,a5
0x8000eac8:  0140000f          fence                   w,o
0x8000eacc:  c194              sw                      a3,0(a1)
0x8000eace:  4501              mv                      a0,zero
0x8000ead0:  6422              ld                      s0,8(sp)
0x8000ead2:  0141              addi                    sp,sp,16
0x8000ead4:  8082              ret                     

----------------
IN: 
Priv: 3; Virt: 0
0x8000eacc:  c194              sw                      a3,0(a1)

----------------
IN: 
Priv: 3; Virt: 0
0x8000eace:  4501              mv                      a0,zero
0x8000ead0:  6422              ld                      s0,8(sp)
0x8000ead2:  0141              addi                    sp,sp,16
0x8000ead4:  8082              ret                     

----------------
IN: 
Priv: 3; Virt: 0
0x8000eb14:  dd69              beqz                    a0,-38                  # 0x8000eaee

----------------
IN: 
Priv: 3; Virt: 0
0x8000eaee:  4501              mv                      a0,zero
0x8000eaf0:  0004c863          bltz                    s1,16                   # 0x8000eb00

----------------
IN: 
Priv: 3; Virt: 0
0x8000eaf4:  469d              addi                    a3,zero,7
0x8000eaf6:  4601              mv                      a2,zero
0x8000eaf8:  85a6              mv                      a1,s1
0x8000eafa:  854a              mv                      a0,s2
0x8000eafc:  f65ff0ef          jal                     ra,-156                 # 0x8000ea60

----------------
IN: 
Priv: 3; Virt: 0
0x8000eb00:  60e2              ld                      ra,24(sp)
0x8000eb02:  6442              ld                      s0,16(sp)
0x8000eb04:  64a2              ld                      s1,8(sp)
0x8000eb06:  6902              ld                      s2,0(sp)
0x8000eb08:  6105              addi                    sp,sp,32
0x8000eb0a:  8082              ret                     

----------------
IN: 
Priv: 3; Virt: 0
0x8000df68:  60a2              ld                      ra,8(sp)
0x8000df6a:  6402              ld                      s0,0(sp)
0x8000df6c:  0141              addi                    sp,sp,16
0x8000df6e:  8082              ret                     

----------------
IN: 
Priv: 3; Virt: 0
0x8000dca0:  e509              bnez                    a0,10                   # 0x8000dcaa

----------------
IN: 
Priv: 3; Virt: 0
0x8000dca2:  409c              lw                      a5,0(s1)
0x8000dca4:  fef9c6e3          bgt                     a5,s3,-20               # 0x8000dc90

----------------
IN: 
Priv: 3; Virt: 0
0x8000dca8:  4501              mv                      a0,zero
0x8000dcaa:  70e6              ld                      ra,120(sp)
0x8000dcac:  7446              ld                      s0,112(sp)
0x8000dcae:  74a6              ld                      s1,104(sp)
0x8000dcb0:  7906              ld                      s2,96(sp)
0x8000dcb2:  69e6              ld                      s3,88(sp)
0x8000dcb4:  6a46              ld                      s4,80(sp)
0x8000dcb6:  6aa6              ld                      s5,72(sp)
0x8000dcb8:  6b06              ld                      s6,64(sp)
0x8000dcba:  7be2              ld                      s7,56(sp)
0x8000dcbc:  7c42              ld                      s8,48(sp)
0x8000dcbe:  7ca2              ld                      s9,40(sp)
0x8000dcc0:  7d02              ld                      s10,32(sp)
0x8000dcc2:  6de2              ld                      s11,24(sp)
0x8000dcc4:  6109              addi                    sp,sp,128
0x8000dcc6:  8082              ret                     

----------------
IN: 
Priv: 3; Virt: 0
0x8000123c:  e10d              bnez                    a0,34                   # 0x8000125e

----------------
IN: 
Priv: 3; Virt: 0
0x8000123e:  00017717          auipc                   a4,23                   # 0x8001823e
0x80001242:  ef273703          ld                      a4,-270(a4)
0x80001246:  00000797          auipc                   a5,0                    # 0x80001246
0x8000124a:  fa078793          addi                    a5,a5,-96
0x8000124e:  00f70763          beq                     a4,a5,14                # 0x8000125c

----------------
IN: 
Priv: 3; Virt: 0
0x8000125c:  4501              mv                      a0,zero
0x8000125e:  60a2              ld                      ra,8(sp)
0x80001260:  6402              ld                      s0,0(sp)
0x80001262:  0141              addi                    sp,sp,16
0x80001264:  8082              ret                     

----------------
IN: 
Priv: 3; Virt: 0
0x800006ca:  862a              mv                      a2,a0
0x800006cc:  1c050463          beqz                    a0,456                  # 0x80000894

----------------
IN: 
Priv: 3; Virt: 0
0x80000894:  4585              addi                    a1,zero,1
0x80000896:  8526              mv                      a0,s1
0x80000898:  05d000ef          jal                     ra,2140                 # 0x800010f4

----------------
IN: 
Priv: 3; Virt: 0
0x800010f4:  7179              addi                    sp,sp,-48
0x800010f6:  f022              sd                      s0,32(sp)
0x800010f8:  e84a              sd                      s2,16(sp)
0x800010fa:  e44e              sd                      s3,8(sp)
0x800010fc:  f406              sd                      ra,40(sp)
0x800010fe:  ec26              sd                      s1,24(sp)
0x80001100:  e052              sd                      s4,0(sp)
0x80001102:  1800              addi                    s0,sp,48
0x80001104:  89ae              mv                      s3,a1
0x80001106:  892a              mv                      s2,a0
0x80001108:  e9a9              bnez                    a1,82                   # 0x8000115a

----------------
IN: 
Priv: 3; Virt: 0
0x8000115a:  4521              addi                    a0,zero,8
0x8000115c:  300010ef          jal                     ra,4864                 # 0x8000245c

----------------
IN: 
Priv: 3; Virt: 0
0x8000245c:  7139              addi                    sp,sp,-64
0x8000245e:  f822              sd                      s0,48(sp)
0x80002460:  fc06              sd                      ra,56(sp)
0x80002462:  f426              sd                      s1,40(sp)
0x80002464:  f04a              sd                      s2,32(sp)
0x80002466:  ec4e              sd                      s3,24(sp)
0x80002468:  e852              sd                      s4,16(sp)
0x8000246a:  e456              sd                      s5,8(sp)
0x8000246c:  0080              addi                    s0,sp,64
0x8000246e:  c549              beqz                    a0,138                  # 0x800024f8

----------------
IN: 
Priv: 3; Virt: 0
0x80002470:  00757793          andi                    a5,a0,7
0x80002474:  84aa              mv                      s1,a0
0x80002476:  c781              beqz                    a5,8                    # 0x8000247e

----------------
IN: 
Priv: 3; Virt: 0
0x8000247e:  00026517          auipc                   a0,38                   # 0x8002847e
0x80002482:  5da50513          addi                    a0,a0,1498
0x80002486:  00016a97          auipc                   s5,22                   # 0x80018486
0x8000248a:  bb2a8a93          addi                    s5,s5,-1102
0x8000248e:  492020ef          jal                     ra,9362                 # 0x80004920

----------------
IN: 
Priv: 3; Virt: 0
0x80002492:  008aba03          ld                      s4,8(s5)
0x80002496:  6705              lui                     a4,1
0x80002498:  00026517          auipc                   a0,38                   # 0x80028498
0x8000249c:  5c050513          addi                    a0,a0,1472
0x800024a0:  009a07b3          add                     a5,s4,s1
0x800024a4:  04f76663          bgtu                    a5,a4,76                # 0x800024f0

----------------
IN: 
Priv: 3; Virt: 0
0x800024a8:  00fab423          sd                      a5,8(s5)
0x800024ac:  4a0020ef          jal                     ra,9376                 # 0x8000494c

----------------
IN: 
Priv: 3; Virt: 0
0x800024b0:  040a0463          beqz                    s4,72                   # 0x800024f8

----------------
IN: 
Priv: 3; Virt: 0
0x800024b4:  00026997          auipc                   s3,38                   # 0x800284b4
0x800024b8:  1a498993          addi                    s3,s3,420
0x800024bc:  4901              mv                      s2,zero
0x800024be:  0009b783          ld                      a5,0(s3)
0x800024c2:  2905              addiw                   s2,s2,1
0x800024c4:  8626              mv                      a2,s1
0x800024c6:  4581              mv                      a1,zero
0x800024c8:  01478533          add                     a0,a5,s4
0x800024cc:  c399              beqz                    a5,6                    # 0x800024d2

----------------
IN: 
Priv: 3; Virt: 0
0x800024ce:  1b2000ef          jal                     ra,434                  # 0x80002680

----------------
IN: 
Priv: 3; Virt: 0
0x80002680:  1141              addi                    sp,sp,-16
0x80002682:  e422              sd                      s0,8(sp)
0x80002684:  0800              addi                    s0,sp,16
0x80002686:  00c50733          add                     a4,a0,a2
0x8000268a:  ca09              beqz                    a2,18                   # 0x8000269c

----------------
IN: 
Priv: 3; Virt: 0
0x8000268c:  0ff5f593          andi                    a1,a1,255
0x80002690:  87aa              mv                      a5,a0
0x80002692:  0785              addi                    a5,a5,1
0x80002694:  feb78fa3          sb                      a1,-1(a5)
0x80002698:  fee79de3          bne                     a5,a4,-6                # 0x80002692

----------------
IN: 
Priv: 3; Virt: 0
0x80002692:  0785              addi                    a5,a5,1
0x80002694:  feb78fa3          sb                      a1,-1(a5)
0x80002698:  fee79de3          bne                     a5,a4,-6                # 0x80002692

----------------
IN: 
Priv: 3; Virt: 0
0x8000269c:  6422              ld                      s0,8(sp)
0x8000269e:  0141              addi                    sp,sp,16
0x800026a0:  8082              ret                     

----------------
IN: 
Priv: 3; Virt: 0
0x800024d2:  000aa783          lw                      a5,0(s5)
0x800024d6:  09a1              addi                    s3,s3,8
0x800024d8:  ff27f3e3          bleu                    s2,a5,-26               # 0x800024be

----------------
IN: 
Priv: 3; Virt: 0
0x800024be:  0009b783          ld                      a5,0(s3)
0x800024c2:  2905              addiw                   s2,s2,1
0x800024c4:  8626              mv                      a2,s1
0x800024c6:  4581              mv                      a1,zero
0x800024c8:  01478533          add                     a0,a5,s4
0x800024cc:  c399              beqz                    a5,6                    # 0x800024d2

----------------
IN: 
Priv: 3; Virt: 0
0x800024dc:  70e2              ld                      ra,56(sp)
0x800024de:  7442              ld                      s0,48(sp)
0x800024e0:  74a2              ld                      s1,40(sp)
0x800024e2:  7902              ld                      s2,32(sp)
0x800024e4:  69e2              ld                      s3,24(sp)
0x800024e6:  6aa2              ld                      s5,8(sp)
0x800024e8:  8552              mv                      a0,s4
0x800024ea:  6a42              ld                      s4,16(sp)
0x800024ec:  6121              addi                    sp,sp,64
0x800024ee:  8082              ret                     

----------------
IN: 
Priv: 3; Virt: 0
0x80001160:  0001b797          auipc                   a5,27                   # 0x8001c160
0x80001164:  0ca7b823          sd                      a0,208(a5)
0x80001168:  84aa              mv                      s1,a0
0x8000116a:  c521              beqz                    a0,72                   # 0x800011b2

----------------
IN: 
Priv: 3; Virt: 0
0x8000116c:  00017a17          auipc                   s4,23                   # 0x8001816c
0x80001170:  f54a0a13          addi                    s4,s4,-172
0x80001174:  030a3783          ld                      a5,48(s4)
0x80001178:  c3a1              beqz                    a5,64                   # 0x800011b8

----------------
IN: 
Priv: 3; Virt: 0
0x8000117a:  8552              mv                      a0,s4
0x8000117c:  ce1ff0ef          jal                     ra,-800                 # 0x80000e5c

----------------
IN: 
Priv: 3; Virt: 0
0x80000e5c:  1141              addi                    sp,sp,-16
0x80000e5e:  e422              sd                      s0,8(sp)
0x80000e60:  0001b617          auipc                   a2,27                   # 0x8001be60
0x80000e64:  1d060613          addi                    a2,a2,464
0x80000e68:  0800              addi                    s0,sp,16
0x80000e6a:  85aa              mv                      a1,a0
0x80000e6c:  87b2              mv                      a5,a2
0x80000e6e:  4501              mv                      a0,zero
0x80000e70:  04000693          addi                    a3,zero,64
0x80000e74:  a021              j                       8                       # 0x80000e7c

----------------
IN: 
Priv: 3; Virt: 0
0x80000e7c:  6398              ld                      a4,0(a5)
0x80000e7e:  07a1              addi                    a5,a5,8
0x80000e80:  fb7d              bnez                    a4,-10                  # 0x80000e76

----------------
IN: 
Priv: 3; Virt: 0
0x80000e82:  00351793          slli                    a5,a0,3
0x80000e86:  963e              add                     a2,a2,a5
0x80000e88:  e20c              sd                      a1,0(a2)
0x80000e8a:  6422              ld                      s0,8(sp)
0x80000e8c:  0141              addi                    sp,sp,16
0x80000e8e:  8082              ret                     

----------------
IN: 
Priv: 3; Virt: 0
0x80001180:  fc0545e3          bltz                    a0,-54                  # 0x8000114a

----------------
IN: 
Priv: 3; Virt: 0
0x80001184:  068a3703          ld                      a4,104(s4)
0x80001188:  00017a17          auipc                   s4,23                   # 0x80018188
0x8000118c:  ea8a0a13          addi                    s4,s4,-344
0x80001190:  00aa2023          sw                      a0,0(s4)
0x80001194:  c315              beqz                    a4,36                   # 0x800011b8

----------------
IN: 
Priv: 3; Virt: 0
0x80001196:  00017517          auipc                   a0,23                   # 0x80018196
0x8000119a:  f6250513          addi                    a0,a0,-158
0x8000119e:  cbfff0ef          jal                     ra,-834                 # 0x80000e5c

----------------
IN: 
Priv: 3; Virt: 0
0x80000e76:  2505              addiw                   a0,a0,1
0x80000e78:  00d50c63          beq                     a0,a3,24                # 0x80000e90

----------------
IN: 
Priv: 3; Virt: 0
0x800011a2:  fa0544e3          bltz                    a0,-88                  # 0x8000114a

----------------
IN: 
Priv: 3; Virt: 0
0x800011a6:  00aa2223          sw                      a0,4(s4)
0x800011aa:  b749              j                       -126                    # 0x8000112c

----------------
IN: 
Priv: 3; Virt: 0
0x8000112c:  94ca              add                     s1,s1,s2
0x8000112e:  0004b023          sd                      zero,0(s1)
0x80001132:  03093783          ld                      a5,48(s2)
0x80001136:  c799              beqz                    a5,14                   # 0x80001144

----------------
IN: 
Priv: 3; Virt: 0
0x80001138:  6fbc              ld                      a5,88(a5)
0x8000113a:  7bbc              ld                      a5,112(a5)
0x8000113c:  c781              beqz                    a5,8                    # 0x80001144

----------------
IN: 
Priv: 3; Virt: 0
0x8000113e:  854e              mv                      a0,s3
0x80001140:  9782              jalr                    ra,a5,0

----------------
IN: 
Priv: 3; Virt: 0
0x8000eb7e:  7159              addi                    sp,sp,-112
0x8000eb80:  f0a2              sd                      s0,96(sp)
0x8000eb82:  f486              sd                      ra,104(sp)
0x8000eb84:  eca6              sd                      s1,88(sp)
0x8000eb86:  e8ca              sd                      s2,80(sp)
0x8000eb88:  e4ce              sd                      s3,72(sp)
0x8000eb8a:  e0d2              sd                      s4,64(sp)
0x8000eb8c:  fc56              sd                      s5,56(sp)
0x8000eb8e:  f85a              sd                      s6,48(sp)
0x8000eb90:  f45e              sd                      s7,40(sp)
0x8000eb92:  f062              sd                      s8,32(sp)
0x8000eb94:  ec66              sd                      s9,24(sp)
0x8000eb96:  e86a              sd                      s10,16(sp)
0x8000eb98:  1880              addi                    s0,sp,112
0x8000eb9a:  e51d              bnez                    a0,46                   # 0x8000ebc8

----------------
IN: 
Priv: 3; Virt: 0
0x8000ebc8:  34002773          csrrs                   a4,mscratch,zero

----------------
IN: 
Priv: 3; Virt: 0
0x8000ebcc:  0000ac17          auipc                   s8,10                   # 0x80018bcc
0x8000ebd0:  7acc3c03          ld                      s8,1964(s8)
0x8000ebd4:  000c3783          ld                      a5,0(s8)
0x8000ebd8:  01073903          ld                      s2,16(a4)
0x8000ebdc:  d3e1              beqz                    a5,-64                  # 0x8000eb9c

----------------
IN: 
Priv: 3; Virt: 0
0x8000ebde:  0000a997          auipc                   s3,10                   # 0x80018bde
0x8000ebe2:  76a9b983          ld                      s3,1898(s3)
0x8000ebe6:  4a81              mv                      s5,zero
0x8000ebe8:  f9840b93          addi                    s7,s0,-104
0x8000ebec:  c1800b13          addi                    s6,zero,-1000
0x8000ebf0:  0000aa17          auipc                   s4,10                   # 0x80018bf0
0x8000ebf4:  2d0a0a13          addi                    s4,s4,720
0x8000ebf8:  0001ec97          auipc                   s9,30                   # 0x8002cbf8
0x8000ebfc:  320c8c93          addi                    s9,s9,800
0x8000ec00:  0009b483          ld                      s1,0(s3)
0x8000ec04:  5d7d              addi                    s10,zero,-1
0x8000ec06:  6090              ld                      a2,0(s1)
0x8000ec08:  85ea              mv                      a1,s10
0x8000ec0a:  86de              mv                      a3,s7
0x8000ec0c:  854a              mv                      a0,s2
0x8000ec0e:  6b8010ef          jal                     ra,5816                 # 0x800102c6

----------------
IN: 
Priv: 3; Virt: 0
0x8000ec12:  8d2a              mv                      s10,a0
0x8000ec14:  85ea              mv                      a1,s10
0x8000ec16:  854a              mv                      a0,s2
0x8000ec18:  000d4d63          bltz                    s10,26                  # 0x8000ec32

----------------
IN: 
Priv: 3; Virt: 0
0x8000ec1c:  649c              ld                      a5,8(s1)
0x8000ec1e:  c799              beqz                    a5,14                   # 0x8000ec2c

----------------
IN: 
Priv: 3; Virt: 0
0x8000ec20:  f9843603          ld                      a2,-104(s0)
0x8000ec24:  9782              jalr                    ra,a5,0

----------------
IN: 
Priv: 3; Virt: 0
0x8000ec48:  7139              addi                    sp,sp,-64
0x8000ec4a:  f822              sd                      s0,48(sp)
0x8000ec4c:  ec4e              sd                      s3,24(sp)
0x8000ec4e:  fc06              sd                      ra,56(sp)
0x8000ec50:  f426              sd                      s1,40(sp)
0x8000ec52:  f04a              sd                      s2,32(sp)
0x8000ec54:  e852              sd                      s4,16(sp)
0x8000ec56:  0080              addi                    s0,sp,64
0x8000ec58:  0001e997          auipc                   s3,30                   # 0x8002cc58
0x8000ec5c:  2e098993          addi                    s3,s3,736
0x8000ec60:  0009b783          ld                      a5,0(s3)
0x8000ec64:  473d              addi                    a4,zero,15
0x8000ec66:  06f76d63          bgtu                    a5,a4,122               # 0x8000ece0

----------------
IN: 
Priv: 3; Virt: 0
0x8000ec6a:  00179493          slli                    s1,a5,1
0x8000ec6e:  94be              add                     s1,s1,a5
0x8000ec70:  048e              slli                    s1,s1,3
0x8000ec72:  0001e717          auipc                   a4,30                   # 0x8002cc72
0x8000ec76:  2ce70713          addi                    a4,a4,718
0x8000ec7a:  01448793          addi                    a5,s1,20
0x8000ec7e:  97ba              add                     a5,a5,a4
0x8000ec80:  00970a33          add                     s4,a4,s1
0x8000ec84:  00848693          addi                    a3,s1,8
0x8000ec88:  01048893          addi                    a7,s1,16
0x8000ec8c:  8932              mv                      s2,a2
0x8000ec8e:  e03e              sd                      a5,0(sp)
0x8000ec90:  98ba              add                     a7,a7,a4
0x8000ec92:  4801              mv                      a6,zero
0x8000ec94:  9736              add                     a4,a4,a3
0x8000ec96:  4781              mv                      a5,zero
0x8000ec98:  86d2              mv                      a3,s4
0x8000ec9a:  4601              mv                      a2,zero
0x8000ec9c:  16d020ef          jal                     ra,10604                # 0x80011608

----------------
IN: 
Priv: 3; Virt: 0
0x80011608:  7175              addi                    sp,sp,-144
0x8001160a:  e122              sd                      s0,128(sp)
0x8001160c:  fca6              sd                      s1,120(sp)
0x8001160e:  f8ca              sd                      s2,112(sp)
0x80011610:  f4ce              sd                      s3,104(sp)
0x80011612:  f0d2              sd                      s4,96(sp)
0x80011614:  e8da              sd                      s6,80(sp)
0x80011616:  e4de              sd                      s7,72(sp)
0x80011618:  e0e2              sd                      s8,64(sp)
0x8001161a:  fc66              sd                      s9,56(sp)
0x8001161c:  e506              sd                      ra,136(sp)
0x8001161e:  ecd6              sd                      s5,88(sp)
0x80011620:  f86a              sd                      s10,48(sp)
0x80011622:  f46e              sd                      s11,40(sp)
0x80011624:  0900              addi                    s0,sp,144
0x80011626:  84aa              mv                      s1,a0
0x80011628:  892e              mv                      s2,a1
0x8001162a:  89b6              mv                      s3,a3
0x8001162c:  8b3a              mv                      s6,a4
0x8001162e:  8cbe              mv                      s9,a5
0x80011630:  8c42              mv                      s8,a6
0x80011632:  8a46              mv                      s4,a7
0x80011634:  4b8d              addi                    s7,zero,3
0x80011636:  c211              beqz                    a2,4                    # 0x8001163a

----------------
IN: 
Priv: 3; Virt: 0
0x8001163a:  1c094d63          bltz                    s2,474                  # 0x80011814

----------------
IN: 
Priv: 3; Virt: 0
0x8001163e:  1c048b63          beqz                    s1,470                  # 0x80011814

----------------
IN: 
Priv: 3; Virt: 0
0x80011642:  1c098963          beqz                    s3,466                  # 0x80011814

----------------
IN: 
Priv: 3; Virt: 0
0x80011646:  1c0b0763          beqz                    s6,462                  # 0x80011814

----------------
IN: 
Priv: 3; Virt: 0
0x8001164a:  1c0a0563          beqz                    s4,458                  # 0x80011814

----------------
IN: 
Priv: 3; Virt: 0
0x8001164e:  601c              ld                      a5,0(s0)
0x80011650:  1c078263          beqz                    a5,452                  # 0x80011814

----------------
IN: 
Priv: 3; Virt: 0
0x80011654:  f8840d93          addi                    s11,s0,-120
0x80011658:  f8040d13          addi                    s10,s0,-128
0x8001165c:  876e              mv                      a4,s11
0x8001165e:  86ea              mv                      a3,s10
0x80011660:  4601              mv                      a2,zero
0x80011662:  85ca              mv                      a1,s2
0x80011664:  8526              mv                      a0,s1
0x80011666:  e25fe0ef          jal                     ra,-4572                # 0x8001048a

----------------
IN: 
Priv: 3; Virt: 0
0x8001166a:  1a054763          bltz                    a0,430                  # 0x80011818

----------------
IN: 
Priv: 3; Virt: 0
0x8001166e:  f8843783          ld                      a5,-120(s0)
0x80011672:  1a078363          beqz                    a5,422                  # 0x80011818

----------------
IN: 
Priv: 3; Virt: 0
0x80011676:  f8043603          ld                      a2,-128(s0)
0x8001167a:  876e              mv                      a4,s11
0x8001167c:  86ea              mv                      a3,s10
0x8001167e:  00c9b023          sd                      a2,0(s3)
0x80011682:  00fb3023          sd                      a5,0(s6)
0x80011686:  4605              addi                    a2,zero,1
0x80011688:  85ca              mv                      a1,s2
0x8001168a:  8526              mv                      a0,s1
0x8001168c:  dfffe0ef          jal                     ra,-4610                # 0x8001048a

----------------
IN: 
Priv: 3; Virt: 0
0x80010732:  5df5              addi                    s11,zero,-3
0x80010734:  bfc1              j                       -48                     # 0x80010704

----------------
IN: 
Priv: 3; Virt: 0
0x80010704:  60aa              ld                      ra,136(sp)
0x80010706:  640a              ld                      s0,128(sp)
0x80010708:  74e6              ld                      s1,120(sp)
0x8001070a:  7946              ld                      s2,112(sp)
0x8001070c:  79a6              ld                      s3,104(sp)
0x8001070e:  7a06              ld                      s4,96(sp)
0x80010710:  6ae6              ld                      s5,88(sp)
0x80010712:  6b46              ld                      s6,80(sp)
0x80010714:  6ba6              ld                      s7,72(sp)
0x80010716:  6c06              ld                      s8,64(sp)
0x80010718:  7ce2              ld                      s9,56(sp)
0x8001071a:  7d42              ld                      s10,48(sp)
0x8001071c:  856e              mv                      a0,s11
0x8001071e:  7da2              ld                      s11,40(sp)
0x80010720:  6149              addi                    sp,sp,144
0x80010722:  8082              ret                     

----------------
IN: 
Priv: 3; Virt: 0
0x80011690:  14054363          bltz                    a0,326                  # 0x800117d6

----------------
IN: 
Priv: 3; Virt: 0
0x800117d6:  f8043423          sd                      zero,-120(s0)
0x800117da:  f8043023          sd                      zero,-128(s0)
0x800117de:  bd7d              j                       -322                    # 0x8001169c

----------------
IN: 
Priv: 3; Virt: 0
0x8001169c:  000c8663          beqz                    s9,12                   # 0x800116a8

----------------
IN: 
Priv: 3; Virt: 0
0x800116a8:  000c0663          beqz                    s8,12                   # 0x800116b4

----------------
IN: 
Priv: 3; Virt: 0
0x800116b4:  601c              ld                      a5,0(s0)
0x800116b6:  000a2023          sw                      zero,0(s4)
0x800116ba:  f7840693          addi                    a3,s0,-136
0x800116be:  0007a023          sw                      zero,0(a5)
0x800116c2:  00005617          auipc                   a2,5                    # 0x800166c2
0x800116c6:  66660613          addi                    a2,a2,1638
0x800116ca:  85ca              mv                      a1,s2
0x800116cc:  8526              mv                      a0,s1
0x800116ce:  bd5fb0ef          jal                     ra,-17452               # 0x8000d2a2

----------------
IN: 
Priv: 3; Virt: 0
0x800116d2:  c175              beqz                    a0,228                  # 0x800117b6

----------------
IN: 
Priv: 3; Virt: 0
0x800116d4:  f7842783          lw                      a5,-136(s0)
0x800116d8:  470d              addi                    a4,zero,3
0x800116da:  0cf77e63          bleu                    a5,a4,220               # 0x800117b6

----------------
IN: 
Priv: 3; Virt: 0
0x800116de:  8789              srai                    a5,a5,2
0x800116e0:  f6f42c23          sw                      a5,-136(s0)
0x800116e4:  4705              addi                    a4,zero,1
0x800116e6:  0cf75863          ble                     a5,a4,208               # 0x800117b6

----------------
IN: 
Priv: 3; Virt: 0
0x800116ea:  8aaa              mv                      s5,a0
0x800116ec:  4d81              mv                      s11,zero
0x800116ee:  4b01              mv                      s6,zero
0x800116f0:  5cfd              addi                    s9,zero,-1
0x800116f2:  4901              mv                      s2,zero
0x800116f4:  f7c40c13          addi                    s8,s0,-132
0x800116f8:  07f00d13          addi                    s10,zero,127
0x800116fc:  000aa783          lw                      a5,0(s5)
0x80011700:  8526              mv                      a0,s1
0x80011702:  004aa983          lw                      s3,4(s5)
0x80011706:  0087d613          srli                    a2,a5,8
0x8001170a:  0187971b          slliw                   a4,a5,24
0x8001170e:  0187d81b          srliw                   a6,a5,24
0x80011712:  0ff67613          andi                    a2,a2,255
0x80011716:  0107d593          srli                    a1,a5,16
0x8001171a:  0ff5f593          andi                    a1,a1,255
0x8001171e:  010767b3          or                      a5,a4,a6
0x80011722:  0106171b          slliw                   a4,a2,16
0x80011726:  8fd9              or                      a5,a5,a4
0x80011728:  0085959b          slliw                   a1,a1,8
0x8001172c:  8ddd              or                      a1,a1,a5
0x8001172e:  2581              sext.w                  a1,a1
0x80011730:  954fc0ef          jal                     ra,-16044               # 0x8000d884

----------------
IN: 
Priv: 3; Virt: 0
0x80011734:  85aa              mv                      a1,a0
0x80011736:  04054863          bltz                    a0,80                   # 0x80011786

----------------
IN: 
Priv: 3; Virt: 0
0x8001173a:  8526              mv                      a0,s1
0x8001173c:  86afc0ef          jal                     ra,-16278               # 0x8000d7a6

----------------
IN: 
Priv: 3; Virt: 0
0x80011740:  85aa              mv                      a1,a0
0x80011742:  04054263          bltz                    a0,68                   # 0x80011786

----------------
IN: 
Priv: 3; Virt: 0
0x80011746:  8662              mv                      a2,s8
0x80011748:  8526              mv                      a0,s1
0x8001174a:  998ff0ef          jal                     ra,-3688                # 0x800108e2

----------------
IN: 
Priv: 3; Virt: 0
0x8001174e:  ed05              bnez                    a0,56                   # 0x80011786

----------------
IN: 
Priv: 3; Virt: 0
0x80011750:  f7c42603          lw                      a2,-132(s0)
0x80011754:  02cd6963          bgtu                    a2,s10,50               # 0x80011786

----------------
IN: 
Priv: 3; Virt: 0
0x80011758:  0089d713          srli                    a4,s3,8
0x8001175c:  0189979b          slliw                   a5,s3,24
0x80011760:  0189d59b          srliw                   a1,s3,24
0x80011764:  0ff77713          andi                    a4,a4,255
0x80011768:  0109d993          srli                    s3,s3,16
0x8001176c:  8fcd              or                      a5,a5,a1
0x8001176e:  0107171b          slliw                   a4,a4,16
0x80011772:  0ff9f993          andi                    s3,s3,255
0x80011776:  8fd9              or                      a5,a5,a4
0x80011778:  0089999b          slliw                   s3,s3,8
0x8001177c:  0137e9b3          or                      s3,a5,s3
0x80011780:  2981              sext.w                  s3,s3
0x80011782:  053b8f63          beq                     s7,s3,94                # 0x800117e0

----------------
IN: 
Priv: 3; Virt: 0
0x800117e0:  87b2              mv                      a5,a2
0x800117e2:  02cce063          bgtu                    a2,s9,32                # 0x80011802

----------------
IN: 
Priv: 3; Virt: 0
0x800117e6:  00078c9b          sext.w                  s9,a5
0x800117ea:  87b2              mv                      a5,a2
0x800117ec:  01666663          bgtu                    s6,a2,12                # 0x800117f8

----------------
IN: 
Priv: 3; Virt: 0
0x800117f0:  00078b1b          sext.w                  s6,a5
0x800117f4:  2d85              addiw                   s11,s11,1
0x800117f6:  bf41              j                       -112                    # 0x80011786

----------------
IN: 
Priv: 3; Virt: 0
0x80011786:  f7842703          lw                      a4,-136(s0)
0x8001178a:  2905              addiw                   s2,s2,1
0x8001178c:  0aa1              addi                    s5,s5,8
0x8001178e:  01f7579b          srliw                   a5,a4,31
0x80011792:  9fb9              addw                    a5,a5,a4
0x80011794:  4017d79b          sraiw                   a5,a5,1
0x80011798:  f6f942e3          bgt                     a5,s2,-156              # 0x800116fc

----------------
IN: 
Priv: 3; Virt: 0
0x800116fc:  000aa783          lw                      a5,0(s5)
0x80011700:  8526              mv                      a0,s1
0x80011702:  004aa983          lw                      s3,4(s5)
0x80011706:  0087d613          srli                    a2,a5,8
0x8001170a:  0187971b          slliw                   a4,a5,24
0x8001170e:  0187d81b          srliw                   a6,a5,24
0x80011712:  0ff67613          andi                    a2,a2,255
0x80011716:  0107d593          srli                    a1,a5,16
0x8001171a:  0ff5f593          andi                    a1,a1,255
0x8001171e:  010767b3          or                      a5,a4,a6
0x80011722:  0106171b          slliw                   a4,a2,16
0x80011726:  8fd9              or                      a5,a5,a4
0x80011728:  0085959b          slliw                   a1,a1,8
0x8001172c:  8ddd              or                      a1,a1,a5
0x8001172e:  2581              sext.w                  a1,a1
0x80011730:  954fc0ef          jal                     ra,-16044               # 0x8000d884

----------------
IN: 
Priv: 3; Virt: 0
0x80011802:  87e6              mv                      a5,s9
0x80011804:  00078c9b          sext.w                  s9,a5
0x80011808:  87b2              mv                      a5,a2
0x8001180a:  ff6673e3          bleu                    s6,a2,-26               # 0x800117f0

----------------
IN: 
Priv: 3; Virt: 0
0x8001179c:  019b6d63          bgtu                    s9,s6,26                # 0x800117b6

----------------
IN: 
Priv: 3; Virt: 0
0x800117a0:  2b05              addiw                   s6,s6,1
0x800117a2:  419b07bb          subw                    a5,s6,s9
0x800117a6:  019a2023          sw                      s9,0(s4)
0x800117aa:  8b3e              mv                      s6,a5
0x800117ac:  06fde263          bgtu                    a5,s11,100              # 0x80011810

----------------
IN: 
Priv: 3; Virt: 0
0x800117b0:  601c              ld                      a5,0(s0)
0x800117b2:  0167a023          sw                      s6,0(a5)
0x800117b6:  4501              mv                      a0,zero
0x800117b8:  60aa              ld                      ra,136(sp)
0x800117ba:  640a              ld                      s0,128(sp)
0x800117bc:  74e6              ld                      s1,120(sp)
0x800117be:  7946              ld                      s2,112(sp)
0x800117c0:  79a6              ld                      s3,104(sp)
0x800117c2:  7a06              ld                      s4,96(sp)
0x800117c4:  6ae6              ld                      s5,88(sp)
0x800117c6:  6b46              ld                      s6,80(sp)
0x800117c8:  6ba6              ld                      s7,72(sp)
0x800117ca:  6c06              ld                      s8,64(sp)
0x800117cc:  7ce2              ld                      s9,56(sp)
0x800117ce:  7d42              ld                      s10,48(sp)
0x800117d0:  7da2              ld                      s11,40(sp)
0x800117d2:  6149              addi                    sp,sp,144
0x800117d4:  8082              ret                     

----------------
IN: 
Priv: 3; Virt: 0
0x8000eca0:  e905              bnez                    a0,48                   # 0x8000ecd0

----------------
IN: 
Priv: 3; Virt: 0
0x8000eca2:  00893783          ld                      a5,8(s2)
0x8000eca6:  cf81              beqz                    a5,24                   # 0x8000ecbe

----------------
IN: 
Priv: 3; Virt: 0
0x8000eca8:  94ce              add                     s1,s1,s3
0x8000ecaa:  6394              ld                      a3,0(a5)
0x8000ecac:  6498              ld                      a4,8(s1)
0x8000ecae:  689c              ld                      a5,16(s1)
0x8000ecb0:  6611              lui                     a2,4
0x8000ecb2:  9736              add                     a4,a4,a3
0x8000ecb4:  e498              sd                      a4,8(s1)
0x8000ecb6:  8f95              sub                     a5,a5,a3
0x8000ecb8:  02c7e763          bgtu                    a2,a5,46                # 0x8000ece6

----------------
IN: 
Priv: 3; Virt: 0
0x8000ecbc:  e890              sd                      a2,16(s1)
0x8000ecbe:  8552              mv                      a0,s4
0x8000ecc0:  607050ef          jal                     ra,24070                # 0x80014ac6

----------------
IN: 
Priv: 3; Virt: 0
0x80014ac6:  c161              beqz                    a0,192                  # 0x80014b86

----------------
IN: 
Priv: 3; Virt: 0
0x80014ac8:  711d              addi                    sp,sp,-96
0x80014aca:  e8a2              sd                      s0,80(sp)
0x80014acc:  e4a6              sd                      s1,72(sp)
0x80014ace:  e0ca              sd                      s2,64(sp)
0x80014ad0:  ec86              sd                      ra,88(sp)
0x80014ad2:  fc4e              sd                      s3,56(sp)
0x80014ad4:  f852              sd                      s4,48(sp)
0x80014ad6:  f456              sd                      s5,40(sp)
0x80014ad8:  1080              addi                    s0,sp,96
0x80014ada:  892a              mv                      s2,a0
0x80014adc:  6108              ld                      a0,0(a0)
0x80014ade:  6685              lui                     a3,1
0x80014ae0:  fff68493          addi                    s1,a3,-1
0x80014ae4:  8ce9              and                     s1,s1,a0
0x80014ae6:  ecd1              bnez                    s1,156                  # 0x80014b82

----------------
IN: 
Priv: 3; Virt: 0
0x80014ae8:  01492783          lw                      a5,20(s2)
0x80014aec:  00893583          ld                      a1,8(s2)
0x80014af0:  02079713          slli                    a4,a5,32
0x80014af4:  8379              srli                    a4,a4,30
0x80014af6:  08e5e663          bgtu                    a4,a1,140               # 0x80014b82

----------------
IN: 
Priv: 3; Virt: 0
0x80014afa:  01092703          lw                      a4,16(s2)
0x80014afe:  07f00613          addi                    a2,zero,127
0x80014b02:  08e66063          bgtu                    a4,a2,128               # 0x80014b82

----------------
IN: 
Priv: 3; Virt: 0
0x80014b06:  06d7fe63          bleu                    a3,a5,124               # 0x80014b82

----------------
IN: 
Priv: 3; Virt: 0
0x80014b0a:  00e7863b          addw                    a2,a5,a4
0x80014b0e:  0001c697          auipc                   a3,28                   # 0x80030b0e
0x80014b12:  c5a68693          addi                    a3,a3,-934
0x80014b16:  cb91              beqz                    a5,20                   # 0x80014b2a

----------------
IN: 
Priv: 3; Virt: 0
0x80014b18:  02071793          slli                    a5,a4,32
0x80014b1c:  83f5              srli                    a5,a5,29
0x80014b1e:  97b6              add                     a5,a5,a3
0x80014b20:  0127b023          sd                      s2,0(a5)
0x80014b24:  2705              addiw                   a4,a4,1
0x80014b26:  fee619e3          bne                     a2,a4,-14               # 0x80014b18

----------------
IN: 
Priv: 3; Virt: 0
0x80014b2a:  4a85              addi                    s5,zero,1
0x80014b2c:  fa840a13          addi                    s4,s0,-88
0x80014b30:  6985              lui                     s3,1
0x80014b32:  0afe              slli                    s5,s5,31
0x80014b34:  e981              bnez                    a1,16                   # 0x80014b44

----------------
IN: 
Priv: 3; Virt: 0
0x80014b44:  8d85              sub                     a1,a1,s1
0x80014b46:  9526              add                     a0,a0,s1
0x80014b48:  86d2              mv                      a3,s4
0x80014b4a:  8656              mv                      a2,s5
0x80014b4c:  94ce              add                     s1,s1,s3
0x80014b4e:  00b9f363          bleu                    a1,s3,6                 # 0x80014b54

----------------
IN: 
Priv: 3; Virt: 0
0x80014b52:  6585              lui                     a1,1
0x80014b54:  d44f10ef          jal                     ra,-60092               # 0x80006098

----------------
IN: 
Priv: 3; Virt: 0
0x80006098:  7179              addi                    sp,sp,-48
0x8000609a:  f022              sd                      s0,32(sp)
0x8000609c:  ec26              sd                      s1,24(sp)
0x8000609e:  e84a              sd                      s2,16(sp)
0x800060a0:  e44e              sd                      s3,8(sp)
0x800060a2:  e052              sd                      s4,0(sp)
0x800060a4:  f406              sd                      ra,40(sp)
0x800060a6:  1800              addi                    s0,sp,48
0x800060a8:  84aa              mv                      s1,a0
0x800060aa:  852e              mv                      a0,a1
0x800060ac:  8a2e              mv                      s4,a1
0x800060ae:  8932              mv                      s2,a2
0x800060b0:  89b6              mv                      s3,a3
0x800060b2:  616030ef          jal                     ra,13846                # 0x800096c8

----------------
IN: 
Priv: 3; Virt: 0
0x800096c8:  1141              addi                    sp,sp,-16
0x800096ca:  e422              sd                      s0,8(sp)
0x800096cc:  0800              addi                    s0,sp,16
0x800096ce:  872a              mv                      a4,a0
0x800096d0:  4501              mv                      a0,zero
0x800096d2:  4685              addi                    a3,zero,1
0x800096d4:  04000613          addi                    a2,zero,64
0x800096d8:  a021              j                       8                       # 0x800096e0

----------------
IN: 
Priv: 3; Virt: 0
0x800096e0:  00a697b3          sll                     a5,a3,a0
0x800096e4:  fee7ebe3          bgtu                    a4,a5,-10               # 0x800096da

----------------
IN: 
Priv: 3; Virt: 0
0x800096da:  0505              addi                    a0,a0,1
0x800096dc:  00c50663          beq                     a0,a2,12                # 0x800096e8

----------------
IN: 
Priv: 3; Virt: 0
0x800096e8:  6422              ld                      s0,8(sp)
0x800096ea:  0141              addi                    sp,sp,16
0x800096ec:  8082              ret                     

----------------
IN: 
Priv: 3; Virt: 0
0x800060b6:  04000793          addi                    a5,zero,64
0x800060ba:  02a7ec63          bgtu                    a0,a5,56                # 0x800060f2

----------------
IN: 
Priv: 3; Virt: 0
0x800060be:  02f50a63          beq                     a0,a5,52                # 0x800060f2

----------------
IN: 
Priv: 3; Virt: 0
0x800060c2:  fff48793          addi                    a5,s1,-1
0x800060c6:  4805              addi                    a6,zero,1
0x800060c8:  014785b3          add                     a1,a5,s4
0x800060cc:  04000893          addi                    a7,zero,64
0x800060d0:  00a81733          sll                     a4,a6,a0
0x800060d4:  40e007b3          neg                     a5,a4
0x800060d8:  8fe5              and                     a5,a5,s1
0x800060da:  973e              add                     a4,a4,a5
0x800060dc:  00f4e863          bgtu                    a5,s1,16                # 0x800060ec

----------------
IN: 
Priv: 3; Virt: 0
0x800060e0:  00e4f663          bleu                    a4,s1,12                # 0x800060ec

----------------
IN: 
Priv: 3; Virt: 0
0x800060e4:  00f5e463          bgtu                    a5,a1,8                 # 0x800060ec

----------------
IN: 
Priv: 3; Virt: 0
0x800060e8:  00e5e663          bgtu                    a4,a1,12                # 0x800060f4

----------------
IN: 
Priv: 3; Virt: 0
0x800060f4:  00098863          beqz                    s3,16                   # 0x80006104

----------------
IN: 
Priv: 3; Virt: 0
0x800060f8:  00f9b423          sd                      a5,8(s3)
0x800060fc:  00a9b023          sd                      a0,0(s3)
0x80006100:  0129b823          sd                      s2,16(s3)
0x80006104:  70a2              ld                      ra,40(sp)
0x80006106:  7402              ld                      s0,32(sp)
0x80006108:  64e2              ld                      s1,24(sp)
0x8000610a:  6942              ld                      s2,16(sp)
0x8000610c:  69a2              ld                      s3,8(sp)
0x8000610e:  6a02              ld                      s4,0(sp)
0x80006110:  6145              addi                    sp,sp,48
0x80006112:  8082              ret                     

----------------
IN: 
Priv: 3; Virt: 0
0x80014b58:  8552              mv                      a0,s4
0x80014b5a:  df3f10ef          jal                     ra,-57870               # 0x8000694c

----------------
IN: 
Priv: 3; Virt: 0
0x8000694c:  711d              addi                    sp,sp,-96
0x8000694e:  e8a2              sd                      s0,80(sp)
0x80006950:  ec86              sd                      ra,88(sp)
0x80006952:  e4a6              sd                      s1,72(sp)
0x80006954:  e0ca              sd                      s2,64(sp)
0x80006956:  fc4e              sd                      s3,56(sp)
0x80006958:  f852              sd                      s4,48(sp)
0x8000695a:  f456              sd                      s5,40(sp)
0x8000695c:  f05a              sd                      s6,32(sp)
0x8000695e:  ec5e              sd                      s7,24(sp)
0x80006960:  e862              sd                      s8,16(sp)
0x80006962:  e466              sd                      s9,8(sp)
0x80006964:  1080              addi                    s0,sp,96
0x80006966:  34002b73          csrrs                   s6,mscratch,zero

----------------
IN: 
Priv: 3; Virt: 0
0x8000696a:  18050163          beqz                    a0,386                  # 0x80006aec

----------------
IN: 
Priv: 3; Virt: 0
0x8000696e:  00022b97          auipc                   s7,34                   # 0x8002896e
0x80006972:  33ab8b93          addi                    s7,s7,826
0x80006976:  118ba783          lw                      a5,280(s7)
0x8000697a:  16079963          bnez                    a5,370                  # 0x80006aec

----------------
IN: 
Priv: 3; Virt: 0
0x8000697e:  00012997          auipc                   s3,18                   # 0x8001897e
0x80006982:  b2298993          addi                    s3,s3,-1246
0x80006986:  0609b483          ld                      s1,96(s3)
0x8000698a:  00023a97          auipc                   s5,35                   # 0x8002998a
0x8000698e:  83ea8a93          addi                    s5,s5,-1986
0x80006992:  15549d63          bne                     s1,s5,346               # 0x80006aec

----------------
IN: 
Priv: 3; Virt: 0
0x80006996:  6b8baa03          lw                      s4,1720(s7)
0x8000699a:  47bd              addi                    a5,zero,15
0x8000699c:  1547e863          bgtu                    s4,a5,336               # 0x80006aec

----------------
IN: 
Priv: 3; Virt: 0
0x800069a0:  520bb783          ld                      a5,1312(s7)
0x800069a4:  892a              mv                      s2,a0
0x800069a6:  e789              bnez                    a5,10                   # 0x800069b0

----------------
IN: 
Priv: 3; Virt: 0
0x800069b0:  85a6              mv                      a1,s1
0x800069b2:  854a              mv                      a0,s2
0x800069b4:  dfaff0ef          jal                     ra,-2566                # 0x80005fae

----------------
IN: 
Priv: 3; Virt: 0
0x80005fae:  1141              addi                    sp,sp,-16
0x80005fb0:  e422              sd                      s0,8(sp)
0x80005fb2:  0800              addi                    s0,sp,16
0x80005fb4:  6510              ld                      a2,8(a0)
0x80005fb6:  6118              ld                      a4,0(a0)
0x80005fb8:  0085b803          ld                      a6,8(a1)
0x80005fbc:  86aa              mv                      a3,a0
0x80005fbe:  6188              ld                      a0,0(a1)
0x80005fc0:  4785              addi                    a5,zero,1
0x80005fc2:  00e79733          sll                     a4,a5,a4
0x80005fc6:  fff60893          addi                    a7,a2,-1
0x80005fca:  00a797b3          sll                     a5,a5,a0
0x80005fce:  fff80513          addi                    a0,a6,-1
0x80005fd2:  97aa              add                     a5,a5,a0
0x80005fd4:  9746              add                     a4,a4,a7
0x80005fd6:  4501              mv                      a0,zero
0x80005fd8:  01066d63          bgtu                    a6,a2,26                # 0x80005ff2

----------------
IN: 
Priv: 3; Virt: 0
0x80005ff2:  fee87de3          bleu                    a4,a6,-6                # 0x80005fec

----------------
IN: 
Priv: 3; Virt: 0
0x80005fec:  6422              ld                      s0,8(sp)
0x80005fee:  0141              addi                    sp,sp,16
0x80005ff0:  8082              ret                     

----------------
IN: 
Priv: 3; Virt: 0
0x800069b8:  d96d              beqz                    a0,-14                  # 0x800069aa

----------------
IN: 
Priv: 3; Virt: 0
0x800069aa:  6c9c              ld                      a5,24(s1)
0x800069ac:  04e1              addi                    s1,s1,24
0x800069ae:  c3b1              beqz                    a5,68                   # 0x800069f2

----------------
IN: 
Priv: 3; Virt: 0
0x80005fdc:  00f67863          bleu                    a5,a2,16                # 0x80005fec

----------------
IN: 
Priv: 3; Virt: 0
0x800069f2:  1a02              slli                    s4,s4,32
0x800069f4:  020a5a13          srli                    s4,s4,32
0x800069f8:  001a1513          slli                    a0,s4,1
0x800069fc:  9a2a              add                     s4,s4,a0
0x800069fe:  003a1513          slli                    a0,s4,3
0x80006a02:  85ca              mv                      a1,s2
0x80006a04:  9556              add                     a0,a0,s5
0x80006a06:  4661              addi                    a2,zero,24
0x80006a08:  030b3a83          ld                      s5,48(s6)
0x80006a0c:  c97fb0ef          jal                     ra,-17258               # 0x800026a2

----------------
IN: 
Priv: 3; Virt: 0
0x800026a2:  1141              addi                    sp,sp,-16
0x800026a4:  e422              sd                      s0,8(sp)
0x800026a6:  0800              addi                    s0,sp,16
0x800026a8:  ca19              beqz                    a2,22                   # 0x800026be

----------------
IN: 
Priv: 3; Virt: 0
0x800026aa:  962a              add                     a2,a2,a0
0x800026ac:  87aa              mv                      a5,a0
0x800026ae:  0005c703          lbu                     a4,0(a1)
0x800026b2:  0785              addi                    a5,a5,1
0x800026b4:  0585              addi                    a1,a1,1
0x800026b6:  fee78fa3          sb                      a4,-1(a5)
0x800026ba:  fec79ae3          bne                     a5,a2,-12               # 0x800026ae

----------------
IN: 
Priv: 3; Virt: 0
0x800026ae:  0005c703          lbu                     a4,0(a1)
0x800026b2:  0785              addi                    a5,a5,1
0x800026b4:  0585              addi                    a1,a1,1
0x800026b6:  fee78fa3          sb                      a4,-1(a5)
0x800026ba:  fec79ae3          bne                     a5,a2,-12               # 0x800026ae

----------------
IN: 
Priv: 3; Virt: 0
0x800026be:  6422              ld                      s0,8(sp)
0x800026c0:  0141              addi                    sp,sp,16
0x800026c2:  8082              ret                     

----------------
IN: 
Priv: 3; Virt: 0
0x80006a10:  6b8ba703          lw                      a4,1720(s7)
0x80006a14:  00012a17          auipc                   s4,18                   # 0x80018a14
0x80006a18:  a8ca0a13          addi                    s4,s4,-1396
0x80006a1c:  5b7d              addi                    s6,zero,-1
0x80006a1e:  2705              addiw                   a4,a4,1
0x80006a20:  02071693          slli                    a3,a4,32
0x80006a24:  9281              srli                    a3,a3,32
0x80006a26:  00169793          slli                    a5,a3,1
0x80006a2a:  97b6              add                     a5,a5,a3
0x80006a2c:  078e              slli                    a5,a5,3
0x80006a2e:  97de              add                     a5,a5,s7
0x80006a30:  6aebac23          sw                      a4,1720(s7)
0x80006a34:  5207b023          sd                      zero,1312(a5)
0x80006a38:  4905              addi                    s2,zero,1
0x80006a3a:  85d2              mv                      a1,s4
0x80006a3c:  8556              mv                      a0,s5
0x80006a3e:  f72ff0ef          jal                     ra,-2190                # 0x800061b0

----------------
IN: 
Priv: 3; Virt: 0
0x800061b0:  7135              addi                    sp,sp,-160
0x800061b2:  e922              sd                      s0,144(sp)
0x800061b4:  fcce              sd                      s3,120(sp)
0x800061b6:  ed06              sd                      ra,152(sp)
0x800061b8:  e526              sd                      s1,136(sp)
0x800061ba:  e14a              sd                      s2,128(sp)
0x800061bc:  f8d2              sd                      s4,112(sp)
0x800061be:  f4d6              sd                      s5,104(sp)
0x800061c0:  f0da              sd                      s6,96(sp)
0x800061c2:  ecde              sd                      s7,88(sp)
0x800061c4:  e8e2              sd                      s8,80(sp)
0x800061c6:  e4e6              sd                      s9,72(sp)
0x800061c8:  e0ea              sd                      s10,64(sp)
0x800061ca:  fc6e              sd                      s11,56(sp)
0x800061cc:  1100              addi                    s0,sp,160
0x800061ce:  6dbc              ld                      a5,88(a1)
0x800061d0:  89ae              mv                      s3,a1
0x800061d2:  1e078963          beqz                    a5,498                  # 0x800063c4

----------------
IN: 
Priv: 3; Virt: 0
0x800061d6:  892a              mv                      s2,a0
0x800061d8:  08000593          addi                    a1,zero,128
0x800061dc:  853e              mv                      a0,a5
0x800061de:  9a0ff0ef          jal                     ra,-3680                # 0x8000537e

----------------
IN: 
Priv: 3; Virt: 0
0x8000537e:  1141              addi                    sp,sp,-16
0x80005380:  e422              sd                      s0,8(sp)
0x80005382:  0800              addi                    s0,sp,16
0x80005384:  fc05f793          andi                    a5,a1,-64
0x80005388:  c3ad              beqz                    a5,98                   # 0x800053ea

----------------
IN: 
Priv: 3; Virt: 0
0x8000538a:  4781              mv                      a5,zero
0x8000538c:  a801              j                       16                      # 0x8000539c

----------------
IN: 
Priv: 3; Virt: 0
0x8000539c:  6118              ld                      a4,0(a0)
0x8000539e:  0521              addi                    a0,a0,8
0x800053a0:  d77d              beqz                    a4,-18                  # 0x8000538e

----------------
IN: 
Priv: 3; Virt: 0
0x800053a2:  02071613          slli                    a2,a4,32
0x800053a6:  9201              srli                    a2,a2,32
0x800053a8:  4681              mv                      a3,zero
0x800053aa:  e601              bnez                    a2,8                    # 0x800053b2

----------------
IN: 
Priv: 3; Virt: 0
0x800053b2:  03071613          slli                    a2,a4,48
0x800053b6:  9241              srli                    a2,a2,48
0x800053b8:  e219              bnez                    a2,6                    # 0x800053be

----------------
IN: 
Priv: 3; Virt: 0
0x800053be:  0ff77613          andi                    a2,a4,255
0x800053c2:  e219              bnez                    a2,6                    # 0x800053c8

----------------
IN: 
Priv: 3; Virt: 0
0x800053c8:  00f77613          andi                    a2,a4,15
0x800053cc:  e219              bnez                    a2,6                    # 0x800053d2

----------------
IN: 
Priv: 3; Virt: 0
0x800053d2:  00377613          andi                    a2,a4,3
0x800053d6:  e219              bnez                    a2,6                    # 0x800053dc

----------------
IN: 
Priv: 3; Virt: 0
0x800053dc:  8b05              andi                    a4,a4,1
0x800053de:  cb05              beqz                    a4,48                   # 0x8000540e

----------------
IN: 
Priv: 3; Virt: 0
0x800053e0:  97b6              add                     a5,a5,a3
0x800053e2:  6422              ld                      s0,8(sp)
0x800053e4:  853e              mv                      a0,a5
0x800053e6:  0141              addi                    sp,sp,16
0x800053e8:  8082              ret                     

----------------
IN: 
Priv: 3; Virt: 0
0x800061e2:  0005049b          sext.w                  s1,a0
0x800061e6:  07f00793          addi                    a5,zero,127
0x800061ea:  0697eb63          bgtu                    s1,a5,118               # 0x80006260

----------------
IN: 
Priv: 3; Virt: 0
0x800061ee:  07f00a93          addi                    s5,zero,127
0x800061f2:  00091b63          bnez                    s2,22                   # 0x80006208

----------------
IN: 
Priv: 3; Virt: 0
0x80006208:  85a6              mv                      a1,s1
0x8000620a:  854a              mv                      a0,s2
0x8000620c:  05092a03          lw                      s4,80(s2)
0x80006210:  96afb0ef          jal                     ra,-20118               # 0x8000137a

----------------
IN: 
Priv: 3; Virt: 0
0x8000137a:  1141              addi                    sp,sp,-16
0x8000137c:  e422              sd                      s0,8(sp)
0x8000137e:  0800              addi                    s0,sp,16
0x80001380:  c11d              beqz                    a0,38                   # 0x800013a6

----------------
IN: 
Priv: 3; Virt: 0
0x80001382:  753c              ld                      a5,104(a0)
0x80001384:  872a              mv                      a4,a0
0x80001386:  852e              mv                      a0,a1
0x80001388:  cf81              beqz                    a5,24                   # 0x800013a0

----------------
IN: 
Priv: 3; Virt: 0
0x8000138a:  4b34              lw                      a3,80(a4)
0x8000138c:  ce89              beqz                    a3,26                   # 0x800013a6

----------------
IN: 
Priv: 3; Virt: 0
0x8000138e:  4501              mv                      a0,zero
0x80001390:  a021              j                       8                       # 0x80001398

----------------
IN: 
Priv: 3; Virt: 0
0x80001398:  4398              lw                      a4,0(a5)
0x8000139a:  0791              addi                    a5,a5,4
0x8000139c:  feb71be3          bne                     a4,a1,-10               # 0x80001392

----------------
IN: 
Priv: 3; Virt: 0
0x800013a0:  6422              ld                      s0,8(sp)
0x800013a2:  0141              addi                    sp,sp,16
0x800013a4:  8082              ret                     

----------------
IN: 
Priv: 3; Virt: 0
0x80006214:  0014861b          addiw                   a2,s1,1
0x80006218:  1602              slli                    a2,a2,32
0x8000621a:  2501              sext.w                  a0,a0
0x8000621c:  9201              srli                    a2,a2,32
0x8000621e:  08000593          addi                    a1,zero,128
0x80006222:  fd456be3          bgtu                    s4,a0,-42               # 0x800061f8

----------------
IN: 
Priv: 3; Virt: 0
0x800061f8:  0589b503          ld                      a0,88(s3)
0x800061fc:  b3cff0ef          jal                     ra,-3268                # 0x80005538

----------------
IN: 
Priv: 3; Virt: 0
0x80005538:  1141              addi                    sp,sp,-16
0x8000553a:  e422              sd                      s0,8(sp)
0x8000553c:  0800              addi                    s0,sp,16
0x8000553e:  0ab67363          bleu                    a1,a2,166               # 0x800055e4

----------------
IN: 
Priv: 3; Virt: 0
0x80005542:  00665713          srli                    a4,a2,6
0x80005546:  87aa              mv                      a5,a0
0x80005548:  070e              slli                    a4,a4,3
0x8000554a:  fc067513          andi                    a0,a2,-64
0x8000554e:  03f67613          andi                    a2,a2,63
0x80005552:  97ba              add                     a5,a5,a4
0x80005554:  8d89              sub                     a1,a1,a0
0x80005556:  e62d              bnez                    a2,106                  # 0x800055c0

----------------
IN: 
Priv: 3; Virt: 0
0x800055c0:  0007b803          ld                      a6,0(a5)
0x800055c4:  577d              addi                    a4,zero,-1
0x800055c6:  00c71733          sll                     a4,a4,a2
0x800055ca:  03f00693          addi                    a3,zero,63
0x800055ce:  01077733          and                     a4,a4,a6
0x800055d2:  00b6ff63          bleu                    a1,a3,30                # 0x800055f0

----------------
IN: 
Priv: 3; Virt: 0
0x800055d6:  f34d              bnez                    a4,-94                  # 0x80005578

----------------
IN: 
Priv: 3; Virt: 0
0x80005578:  02071693          slli                    a3,a4,32
0x8000557c:  9281              srli                    a3,a3,32
0x8000557e:  4781              mv                      a5,zero
0x80005580:  e681              bnez                    a3,8                    # 0x80005588

----------------
IN: 
Priv: 3; Virt: 0
0x80005588:  03071693          slli                    a3,a4,48
0x8000558c:  92c1              srli                    a3,a3,48
0x8000558e:  e299              bnez                    a3,6                    # 0x80005594

----------------
IN: 
Priv: 3; Virt: 0
0x80005594:  0ff77693          andi                    a3,a4,255
0x80005598:  e299              bnez                    a3,6                    # 0x8000559e

----------------
IN: 
Priv: 3; Virt: 0
0x8000559e:  00f77693          andi                    a3,a4,15
0x800055a2:  e299              bnez                    a3,6                    # 0x800055a8

----------------
IN: 
Priv: 3; Virt: 0
0x800055a8:  00377693          andi                    a3,a4,3
0x800055ac:  e299              bnez                    a3,6                    # 0x800055b2

----------------
IN: 
Priv: 3; Virt: 0
0x800055b2:  8b05              andi                    a4,a4,1
0x800055b4:  e311              bnez                    a4,4                    # 0x800055b8

----------------
IN: 
Priv: 3; Virt: 0
0x800055b6:  2785              addiw                   a5,a5,1
0x800055b8:  953e              add                     a0,a0,a5
0x800055ba:  6422              ld                      s0,8(sp)
0x800055bc:  0141              addi                    sp,sp,16
0x800055be:  8082              ret                     

----------------
IN: 
Priv: 3; Virt: 0
0x80006200:  0005049b          sext.w                  s1,a0
0x80006204:  049aee63          bgtu                    s1,s5,92                # 0x80006260

----------------
IN: 
Priv: 3; Virt: 0
0x80001392:  2505              addiw                   a0,a0,1
0x80001394:  00d50963          beq                     a0,a3,18                # 0x800013a6

----------------
IN: 
Priv: 3; Virt: 0
0x800055ae:  2789              addiw                   a5,a5,2
0x800055b0:  8309              srli                    a4,a4,2
0x800055b2:  8b05              andi                    a4,a4,1
0x800055b4:  e311              bnez                    a4,4                    # 0x800055b8

----------------
IN: 
Priv: 3; Virt: 0
0x800055b8:  953e              add                     a0,a0,a5
0x800055ba:  6422              ld                      s0,8(sp)
0x800055bc:  0141              addi                    sp,sp,16
0x800055be:  8082              ret                     

----------------
IN: 
Priv: 3; Virt: 0
0x800055a4:  2791              addiw                   a5,a5,4
0x800055a6:  8311              srli                    a4,a4,4
0x800055a8:  00377693          andi                    a3,a4,3
0x800055ac:  e299              bnez                    a3,6                    # 0x800055b2

----------------
IN: 
Priv: 3; Virt: 0
0x800055d8:  07a1              addi                    a5,a5,8
0x800055da:  fc058593          addi                    a1,a1,-64
0x800055de:  04050513          addi                    a0,a0,64
0x800055e2:  bf9d              j                       -138                    # 0x80005558

----------------
IN: 
Priv: 3; Virt: 0
0x80005558:  fc05f713          andi                    a4,a1,-64
0x8000555c:  cb41              beqz                    a4,144                  # 0x800055ec

----------------
IN: 
Priv: 3; Virt: 0
0x8000555e:  00b506b3          add                     a3,a0,a1
0x80005562:  a801              j                       16                      # 0x80005572

----------------
IN: 
Priv: 3; Virt: 0
0x80005572:  6398              ld                      a4,0(a5)
0x80005574:  07a1              addi                    a5,a5,8
0x80005576:  d77d              beqz                    a4,-18                  # 0x80005564

----------------
IN: 
Priv: 3; Virt: 0
0x80005564:  04050513          addi                    a0,a0,64
0x80005568:  40a685b3          sub                     a1,a3,a0
0x8000556c:  fc05f713          andi                    a4,a1,-64
0x80005570:  cf35              beqz                    a4,124                  # 0x800055ec

----------------
IN: 
Priv: 3; Virt: 0
0x800055ec:  d5f9              beqz                    a1,-50                  # 0x800055ba

----------------
IN: 
Priv: 3; Virt: 0
0x800055ba:  6422              ld                      s0,8(sp)
0x800055bc:  0141              addi                    sp,sp,16
0x800055be:  8082              ret                     

----------------
IN: 
Priv: 3; Virt: 0
0x80006260:  0609b783          ld                      a5,96(s3)
0x80006264:  1a078d63          beqz                    a5,442                  # 0x8000641e

----------------
IN: 
Priv: 3; Virt: 0
0x80006268:  0007b803          ld                      a6,0(a5)
0x8000626c:  853e              mv                      a0,a5
0x8000626e:  03d00313          addi                    t1,zero,61
0x80006272:  8742              mv                      a4,a6
0x80006274:  04000e13          addi                    t3,zero,64
0x80006278:  58fd              addi                    a7,zero,-1
0x8000627a:  1c080063          beqz                    a6,448                  # 0x8000643a

----------------
IN: 
Priv: 3; Virt: 0
0x8000627e:  00e896b3          sll                     a3,a7,a4
0x80006282:  ffd70593          addi                    a1,a4,-3
0x80006286:  fff6c613          not                     a2,a3
0x8000628a:  6514              ld                      a3,8(a0)
0x8000628c:  04b36063          bgtu                    a1,t1,64                # 0x800062cc

----------------
IN: 
Priv: 3; Virt: 0
0x80006290:  03c70d63          beq                     a4,t3,58                # 0x800062ca

----------------
IN: 
Priv: 3; Virt: 0
0x80006294:  8e75              and                     a2,a2,a3
0x80006296:  ea1d              bnez                    a2,54                   # 0x800062cc

----------------
IN: 
Priv: 3; Virt: 0
0x80006298:  6d18              ld                      a4,24(a0)
0x8000629a:  0561              addi                    a0,a0,24
0x8000629c:  f36d              bnez                    a4,-30                  # 0x8000627e

----------------
IN: 
Priv: 3; Virt: 0
0x800062ca:  d6f9              beqz                    a3,-50                  # 0x80006298

----------------
IN: 
Priv: 3; Virt: 0
0x8000629e:  00023717          auipc                   a4,35                   # 0x8002929e
0x800062a2:  a0a70713          addi                    a4,a4,-1526
0x800062a6:  6314              ld                      a3,0(a4)
0x800062a8:  670c              ld                      a1,8(a4)
0x800062aa:  01073883          ld                      a7,16(a4)
0x800062ae:  4501              mv                      a0,zero
0x800062b0:  873e              mv                      a4,a5
0x800062b2:  4b01              mv                      s6,zero
0x800062b4:  03068b63          beq                     a3,a6,54                # 0x800062ea

----------------
IN: 
Priv: 3; Virt: 0
0x800062ea:  6710              ld                      a2,8(a4)
0x800062ec:  fcb616e3          bne                     a2,a1,-52               # 0x800062b8

----------------
IN: 
Priv: 3; Virt: 0
0x800062f0:  6b10              ld                      a2,16(a4)
0x800062f2:  fd1613e3          bne                     a2,a7,-58               # 0x800062b8

----------------
IN: 
Priv: 3; Virt: 0
0x800062f6:  4505              addi                    a0,zero,1
0x800062f8:  b7c1              j                       -64                     # 0x800062b8

----------------
IN: 
Priv: 3; Virt: 0
0x800062b8:  01873803          ld                      a6,24(a4)
0x800062bc:  001b0b9b          addiw                   s7,s6,1
0x800062c0:  0761              addi                    a4,a4,24
0x800062c2:  02080c63          beqz                    a6,56                   # 0x800062fa

----------------
IN: 
Priv: 3; Virt: 0
0x800062c6:  8b5e              mv                      s6,s7
0x800062c8:  b7f5              j                       -20                     # 0x800062b4

----------------
IN: 
Priv: 3; Virt: 0
0x800062b4:  03068b63          beq                     a3,a6,54                # 0x800062ea

----------------
IN: 
Priv: 3; Virt: 0
0x800062fa:  14050063          beqz                    a0,320                  # 0x8000643a

----------------
IN: 
Priv: 3; Virt: 0
0x800062fe:  4c85              addi                    s9,zero,1
0x80006300:  f7840a93          addi                    s5,s0,-136
0x80006304:  0c0b0e63          beqz                    s6,220                  # 0x800063e0

----------------
IN: 
Priv: 3; Virt: 0
0x80006308:  000c8c1b          sext.w                  s8,s9
0x8000630c:  01078db3          add                     s11,a5,a6
0x80006310:  01880913          addi                    s2,a6,24
0x80006314:  077c7b63          bleu                    s7,s8,118               # 0x8000638a

----------------
IN: 
Priv: 3; Virt: 0
0x80006318:  418b073b          subw                    a4,s6,s8
0x8000631c:  1702              slli                    a4,a4,32
0x8000631e:  9301              srli                    a4,a4,32
0x80006320:  001c8693          addi                    a3,s9,1
0x80006324:  9736              add                     a4,a4,a3
0x80006326:  00171d13          slli                    s10,a4,1
0x8000632a:  01880913          addi                    s2,a6,24
0x8000632e:  976a              add                     a4,a4,s10
0x80006330:  8a4a              mv                      s4,s2
0x80006332:  00371d13          slli                    s10,a4,3
0x80006336:  014784b3          add                     s1,a5,s4
0x8000633a:  85ee              mv                      a1,s11
0x8000633c:  8526              mv                      a0,s1
0x8000633e:  c71ff0ef          jal                     ra,-912                 # 0x80005fae

----------------
IN: 
Priv: 3; Virt: 0
0x80006342:  0004b883          ld                      a7,0(s1)
0x80006346:  000db703          ld                      a4,0(s11)
0x8000634a:  0a61              addi                    s4,s4,24
0x8000634c:  e531              bnez                    a0,76                   # 0x80006398

----------------
IN: 
Priv: 3; Virt: 0
0x8000634e:  85a6              mv                      a1,s1
0x80006350:  4661              addi                    a2,zero,24
0x80006352:  8556              mv                      a0,s5
0x80006354:  00e8ee63          bgtu                    a4,a7,28                # 0x80006370

----------------
IN: 
Priv: 3; Virt: 0
0x80006358:  00e88763          beq                     a7,a4,14                # 0x80006366

----------------
IN: 
Priv: 3; Virt: 0
0x8000635c:  03aa0763          beq                     s4,s10,46               # 0x8000638a

----------------
IN: 
Priv: 3; Virt: 0
0x80006360:  0609b783          ld                      a5,96(s3)
0x80006364:  bfc9              j                       -46                     # 0x80006336

----------------
IN: 
Priv: 3; Virt: 0
0x80006336:  014784b3          add                     s1,a5,s4
0x8000633a:  85ee              mv                      a1,s11
0x8000633c:  8526              mv                      a0,s1
0x8000633e:  c71ff0ef          jal                     ra,-912                 # 0x80005fae

----------------
IN: 
Priv: 3; Virt: 0
0x80006370:  b32fc0ef          jal                     ra,-15566               # 0x800026a2

----------------
IN: 
Priv: 3; Virt: 0
0x80006374:  85ee              mv                      a1,s11
0x80006376:  4661              addi                    a2,zero,24
0x80006378:  8526              mv                      a0,s1
0x8000637a:  b28fc0ef          jal                     ra,-15576               # 0x800026a2

----------------
IN: 
Priv: 3; Virt: 0
0x8000637e:  4661              addi                    a2,zero,24
0x80006380:  85d6              mv                      a1,s5
0x80006382:  856e              mv                      a0,s11
0x80006384:  b1efc0ef          jal                     ra,-15586               # 0x800026a2

----------------
IN: 
Priv: 3; Virt: 0
0x80006388:  bfd1              j                       -44                     # 0x8000635c

----------------
IN: 
Priv: 3; Virt: 0
0x8000638a:  884a              mv                      a6,s2
0x8000638c:  056c7a63          bleu                    s6,s8,84                # 0x800063e0

----------------
IN: 
Priv: 3; Virt: 0
0x80006390:  0609b783          ld                      a5,96(s3)
0x80006394:  0c85              addi                    s9,s9,1
0x80006396:  bf8d              j                       -142                    # 0x80006308

----------------
IN: 
Priv: 3; Virt: 0
0x800063e0:  0809b603          ld                      a2,128(s3)
0x800063e4:  4785              addi                    a5,zero,1
0x800063e6:  06c7e863          bgtu                    a2,a5,112               # 0x80006456

----------------
IN: 
Priv: 3; Virt: 0
0x800063ea:  0789b483          ld                      s1,120(s3)
0x800063ee:  4691              addi                    a3,zero,4
0x800063f0:  854e              mv                      a0,s3
0x800063f2:  85a6              mv                      a1,s1
0x800063f4:  d21ff0ef          jal                     ra,-736                 # 0x80006114

----------------
IN: 
Priv: 3; Virt: 0
0x80006114:  1141              addi                    sp,sp,-16
0x80006116:  e422              sd                      s0,8(sp)
0x80006118:  0800              addi                    s0,sp,16
0x8000611a:  c559              beqz                    a0,142                  # 0x800061a8

----------------
IN: 
Priv: 3; Virt: 0
0x8000611c:  0026f793          andi                    a5,a3,2
0x80006120:  0016ff13          andi                    t5,a3,1
0x80006124:  c399              beqz                    a5,6                    # 0x8000612a

----------------
IN: 
Priv: 3; Virt: 0
0x8000612a:  0046f793          andi                    a5,a3,4
0x8000612e:  ebb5              bnez                    a5,116                  # 0x800061a2

----------------
IN: 
Priv: 3; Virt: 0
0x800061a2:  004f6f13          ori                     t5,t5,4
0x800061a6:  b769              j                       -118                    # 0x80006130

----------------
IN: 
Priv: 3; Virt: 0
0x80006130:  713c              ld                      a5,96(a0)
0x80006132:  6398              ld                      a4,0(a5)
0x80006134:  c32d              beqz                    a4,98                   # 0x80006196

----------------
IN: 
Priv: 3; Virt: 0
0x80006136:  4e0d              addi                    t3,zero,3
0x80006138:  03f00e93          addi                    t4,zero,63
0x8000613c:  4305              addi                    t1,zero,1
0x8000613e:  a819              j                       22                      # 0x80006154

----------------
IN: 
Priv: 3; Virt: 0
0x80006154:  0107b883          ld                      a7,16(a5)
0x80006158:  00e31533          sll                     a0,t1,a4
0x8000615c:  03c60663          beq                     a2,t3,44                # 0x80006188

----------------
IN: 
Priv: 3; Virt: 0
0x80006160:  0087b803          ld                      a6,8(a5)
0x80006164:  fceefee3          bleu                    a4,t4,-36               # 0x80006140

----------------
IN: 
Priv: 3; Virt: 0
0x80006140:  fff80713          addi                    a4,a6,-1
0x80006144:  953a              add                     a0,a0,a4
0x80006146:  0105e463          bgtu                    a6,a1,8                 # 0x8000614e

----------------
IN: 
Priv: 3; Virt: 0
0x8000614e:  6f98              ld                      a4,24(a5)
0x80006150:  07e1              addi                    a5,a5,24
0x80006152:  c331              beqz                    a4,68                   # 0x80006196

----------------
IN: 
Priv: 3; Virt: 0
0x80006168:  ff05e3e3          bgtu                    a6,a1,-26               # 0x8000614e

----------------
IN: 
Priv: 3; Virt: 0
0x8000616c:  828d              srli                    a3,a3,3
0x8000616e:  01f8d79b          srliw                   a5,a7,31
0x80006172:  8a85              andi                    a3,a3,1
0x80006174:  4501              mv                      a0,zero
0x80006176:  02d79363          bne                     a5,a3,38                # 0x8000619c

----------------
IN: 
Priv: 3; Virt: 0
0x8000617a:  011f7533          and                     a0,t5,a7
0x8000617e:  41e50533          sub                     a0,a0,t5
0x80006182:  00153513          seqz                    a0,a0
0x80006186:  a819              j                       22                      # 0x8000619c

----------------
IN: 
Priv: 3; Virt: 0
0x8000619c:  6422              ld                      s0,8(sp)
0x8000619e:  0141              addi                    sp,sp,16
0x800061a0:  8082              ret                     

----------------
IN: 
Priv: 3; Virt: 0
0x800063f8:  87aa              mv                      a5,a0
0x800063fa:  4501              mv                      a0,zero
0x800063fc:  e40793e3          bnez                    a5,-442                 # 0x80006242

----------------
IN: 
Priv: 3; Virt: 0
0x80006242:  60ea              ld                      ra,152(sp)
0x80006244:  644a              ld                      s0,144(sp)
0x80006246:  64aa              ld                      s1,136(sp)
0x80006248:  690a              ld                      s2,128(sp)
0x8000624a:  79e6              ld                      s3,120(sp)
0x8000624c:  7a46              ld                      s4,112(sp)
0x8000624e:  7aa6              ld                      s5,104(sp)
0x80006250:  7b06              ld                      s6,96(sp)
0x80006252:  6be6              ld                      s7,88(sp)
0x80006254:  6c46              ld                      s8,80(sp)
0x80006256:  6ca6              ld                      s9,72(sp)
0x80006258:  6d06              ld                      s10,64(sp)
0x8000625a:  7de2              ld                      s11,56(sp)
0x8000625c:  610d              addi                    sp,sp,160
0x8000625e:  8082              ret                     

----------------
IN: 
Priv: 3; Virt: 0
0x80006a42:  8c2a              mv                      s8,a0
0x80006a44:  e539              bnez                    a0,78                   # 0x80006a92

----------------
IN: 
Priv: 3; Virt: 0
0x80006a46:  0609b483          ld                      s1,96(s3)
0x80006a4a:  6098              ld                      a4,0(s1)
0x80006a4c:  d749              beqz                    a4,-118                 # 0x800069d6

----------------
IN: 
Priv: 3; Virt: 0
0x80006a4e:  4681              mv                      a3,zero
0x80006a50:  6c90              ld                      a2,24(s1)
0x80006a52:  04e1              addi                    s1,s1,24
0x80006a54:  ca05              beqz                    a2,48                   # 0x80006a84

----------------
IN: 
Priv: 3; Virt: 0
0x80006a56:  ff04b803          ld                      a6,-16(s1)
0x80006a5a:  0017079b          addiw                   a5,a4,1
0x80006a5e:  00fb17b3          sll                     a5,s6,a5
0x80006a62:  fff7c793          not                     a5,a5
0x80006a66:  0107f7b3          and                     a5,a5,a6
0x80006a6a:  0007059b          sext.w                  a1,a4
0x80006a6e:  e799              bnez                    a5,14                   # 0x80006a7c

----------------
IN: 
Priv: 3; Virt: 0
0x80006a70:  649c              ld                      a5,8(s1)
0x80006a72:  00b915b3          sll                     a1,s2,a1
0x80006a76:  95c2              add                     a1,a1,a6
0x80006a78:  02f58d63          beq                     a1,a5,58                # 0x80006ab2

----------------
IN: 
Priv: 3; Virt: 0
0x80006a7c:  8732              mv                      a4,a2
0x80006a7e:  6c90              ld                      a2,24(s1)
0x80006a80:  04e1              addi                    s1,s1,24
0x80006a82:  fa71              bnez                    a2,-44                  # 0x80006a56

----------------
IN: 
Priv: 3; Virt: 0
0x80006a84:  daa9              beqz                    a3,-174                 # 0x800069d6

----------------
IN: 
Priv: 3; Virt: 0
0x800069d6:  60e6              ld                      ra,88(sp)
0x800069d8:  6446              ld                      s0,80(sp)
0x800069da:  64a6              ld                      s1,72(sp)
0x800069dc:  6906              ld                      s2,64(sp)
0x800069de:  79e2              ld                      s3,56(sp)
0x800069e0:  7a42              ld                      s4,48(sp)
0x800069e2:  7aa2              ld                      s5,40(sp)
0x800069e4:  7b02              ld                      s6,32(sp)
0x800069e6:  6be2              ld                      s7,24(sp)
0x800069e8:  6ca2              ld                      s9,8(sp)
0x800069ea:  8562              mv                      a0,s8
0x800069ec:  6c42              ld                      s8,16(sp)
0x800069ee:  6125              addi                    sp,sp,96
0x800069f0:  8082              ret                     

----------------
IN: 
Priv: 3; Virt: 0
0x80014b5e:  dd69              beqz                    a0,-38                  # 0x80014b38

----------------
IN: 
Priv: 3; Virt: 0
0x80014b38:  00893583          ld                      a1,8(s2)
0x80014b3c:  02b4fb63          bleu                    a1,s1,54                # 0x80014b72

----------------
IN: 
Priv: 3; Virt: 0
0x80014b40:  00093503          ld                      a0,0(s2)
0x80014b44:  8d85              sub                     a1,a1,s1
0x80014b46:  9526              add                     a0,a0,s1
0x80014b48:  86d2              mv                      a3,s4
0x80014b4a:  8656              mv                      a2,s5
0x80014b4c:  94ce              add                     s1,s1,s3
0x80014b4e:  00b9f363          bleu                    a1,s3,6                 # 0x80014b54

----------------
IN: 
Priv: 3; Virt: 0
0x80006366:  6498              ld                      a4,8(s1)
0x80006368:  008db783          ld                      a5,8(s11)
0x8000636c:  fef778e3          bleu                    a5,a4,-16               # 0x8000635c

----------------
IN: 
Priv: 3; Virt: 0
0x80006ab2:  fce615e3          bne                     a2,a4,-54               # 0x80006a7c

----------------
IN: 
Priv: 3; Virt: 0
0x80006ab6:  ff84b583          ld                      a1,-8(s1)
0x80006aba:  689c              ld                      a5,16(s1)
0x80006abc:  fcf590e3          bne                     a1,a5,-64               # 0x80006a7c

----------------
IN: 
Priv: 3; Virt: 0
0x80006ac0:  0705              addi                    a4,a4,1
0x80006ac2:  fee4b423          sd                      a4,-24(s1)
0x80006ac6:  8ca6              mv                      s9,s1
0x80006ac8:  8566              mv                      a0,s9
0x80006aca:  0ce1              addi                    s9,s9,24
0x80006acc:  4661              addi                    a2,zero,24
0x80006ace:  85e6              mv                      a1,s9
0x80006ad0:  bd3fb0ef          jal                     ra,-17454               # 0x800026a2

----------------
IN: 
Priv: 3; Virt: 0
0x80006ad4:  000cb783          ld                      a5,0(s9)
0x80006ad8:  fbe5              bnez                    a5,-16                  # 0x80006ac8

----------------
IN: 
Priv: 3; Virt: 0
0x80006ac8:  8566              mv                      a0,s9
0x80006aca:  0ce1              addi                    s9,s9,24
0x80006acc:  4661              addi                    a2,zero,24
0x80006ace:  85e6              mv                      a1,s9
0x80006ad0:  bd3fb0ef          jal                     ra,-17454               # 0x800026a2

----------------
IN: 
Priv: 3; Virt: 0
0x80006ada:  6b8ba783          lw                      a5,1720(s7)
0x80006ade:  6098              ld                      a4,0(s1)
0x80006ae0:  37fd              addiw                   a5,a5,-1
0x80006ae2:  6afbac23          sw                      a5,1720(s7)
0x80006ae6:  db31              beqz                    a4,-172                 # 0x80006a3a

----------------
IN: 
Priv: 3; Virt: 0
0x80006ae8:  4685              addi                    a3,zero,1
0x80006aea:  b79d              j                       -154                    # 0x80006a50

----------------
IN: 
Priv: 3; Virt: 0
0x80006a50:  6c90              ld                      a2,24(s1)
0x80006a52:  04e1              addi                    s1,s1,24
0x80006a54:  ca05              beqz                    a2,48                   # 0x80006a84

----------------
IN: 
Priv: 3; Virt: 0
0x80006a86:  85d2              mv                      a1,s4
0x80006a88:  8556              mv                      a0,s5
0x80006a8a:  f26ff0ef          jal                     ra,-2266                # 0x800061b0

----------------
IN: 
Priv: 3; Virt: 0
0x80006a8e:  8c2a              mv                      s8,a0
0x80006a90:  d95d              beqz                    a0,-74                  # 0x80006a46

----------------
IN: 
Priv: 3; Virt: 0
0x80014b54:  d44f10ef          jal                     ra,-60092               # 0x80006098

----------------
IN: 
Priv: 3; Virt: 0
0x80014b72:  00004517          auipc                   a0,4                    # 0x80018b72
0x80014b76:  59650513          addi                    a0,a0,1430
0x80014b7a:  d54ec0ef          jal                     ra,-80556               # 0x800010ce

----------------
IN: 
Priv: 3; Virt: 0
0x800010ce:  1141              addi                    sp,sp,-16
0x800010d0:  e422              sd                      s0,8(sp)
0x800010d2:  0800              addi                    s0,sp,16
0x800010d4:  c901              beqz                    a0,16                   # 0x800010e4

----------------
IN: 
Priv: 3; Virt: 0
0x800010d6:  0001b797          auipc                   a5,27                   # 0x8001c0d6
0x800010da:  f5a78793          addi                    a5,a5,-166
0x800010de:  2087b703          ld                      a4,520(a5)
0x800010e2:  c701              beqz                    a4,8                    # 0x800010ea

----------------
IN: 
Priv: 3; Virt: 0
0x800010ea:  20a7b423          sd                      a0,520(a5)
0x800010ee:  6422              ld                      s0,8(sp)
0x800010f0:  0141              addi                    sp,sp,16
0x800010f2:  8082              ret                     

----------------
IN: 
Priv: 3; Virt: 0
0x80014b7e:  4501              mv                      a0,zero
0x80014b80:  b7c5              j                       -32                     # 0x80014b60

----------------
IN: 
Priv: 3; Virt: 0
0x80014b60:  60e6              ld                      ra,88(sp)
0x80014b62:  6446              ld                      s0,80(sp)
0x80014b64:  64a6              ld                      s1,72(sp)
0x80014b66:  6906              ld                      s2,64(sp)
0x80014b68:  79e2              ld                      s3,56(sp)
0x80014b6a:  7a42              ld                      s4,48(sp)
0x80014b6c:  7aa2              ld                      s5,40(sp)
0x80014b6e:  6125              addi                    sp,sp,96
0x80014b70:  8082              ret                     

----------------
IN: 
Priv: 3; Virt: 0
0x8000ecc4:  e511              bnez                    a0,12                   # 0x8000ecd0

----------------
IN: 
Priv: 3; Virt: 0
0x8000ecc6:  0009b783          ld                      a5,0(s3)
0x8000ecca:  0785              addi                    a5,a5,1
0x8000eccc:  00f9b023          sd                      a5,0(s3)
0x8000ecd0:  70e2              ld                      ra,56(sp)
0x8000ecd2:  7442              ld                      s0,48(sp)
0x8000ecd4:  74a2              ld                      s1,40(sp)
0x8000ecd6:  7902              ld                      s2,32(sp)
0x8000ecd8:  69e2              ld                      s3,24(sp)
0x8000ecda:  6a42              ld                      s4,16(sp)
0x8000ecdc:  6121              addi                    sp,sp,64
0x8000ecde:  8082              ret                     

----------------
IN: 
Priv: 3; Virt: 0
0x8000ec26:  ff6500e3          beq                     a0,s6,-32               # 0x8000ec06

----------------
IN: 
Priv: 3; Virt: 0
0x8000ec2a:  f149              bnez                    a0,-126                 # 0x8000ebac

----------------
IN: 
Priv: 3; Virt: 0
0x8000ec2c:  009a3023          sd                      s1,0(s4)
0x8000ec30:  bfd9              j                       -42                     # 0x8000ec06

----------------
IN: 
Priv: 3; Virt: 0
0x8000ec06:  6090              ld                      a2,0(s1)
0x8000ec08:  85ea              mv                      a1,s10
0x8000ec0a:  86de              mv                      a3,s7
0x8000ec0c:  854a              mv                      a0,s2
0x8000ec0e:  6b8010ef          jal                     ra,5816                 # 0x800102c6

----------------
IN: 
Priv: 3; Virt: 0
0x8000ec32:  000a3783          ld                      a5,0(s4)
0x8000ec36:  f79797e3          bne                     a5,s9,-146              # 0x8000eba4

----------------
IN: 
Priv: 3; Virt: 0
0x8000eba4:  6b9c              ld                      a5,16(a5)
0x8000eba6:  4501              mv                      a0,zero
0x8000eba8:  c391              beqz                    a5,4                    # 0x8000ebac

----------------
IN: 
Priv: 3; Virt: 0
0x8000ebaa:  9782              jalr                    ra,a5,0

----------------
IN: 
Priv: 3; Virt: 0
0x80014a9e:  f1402573          csrrs                   a0,mhartid,zero

----------------
IN: 
Priv: 3; Virt: 0
0x80014aa2:  07f00793          addi                    a5,zero,127
0x80014aa6:  2501              sext.w                  a0,a0
0x80014aa8:  00a7ed63          bgtu                    a0,a5,26                # 0x80014ac2

----------------
IN: 
Priv: 3; Virt: 0
0x80014aac:  1141              addi                    sp,sp,-16
0x80014aae:  e022              sd                      s0,0(sp)
0x80014ab0:  e406              sd                      ra,8(sp)
0x80014ab2:  0800              addi                    s0,sp,16
0x80014ab4:  f97ff0ef          jal                     ra,-106                 # 0x80014a4a

----------------
IN: 
Priv: 3; Virt: 0
0x80014a4a:  1141              addi                    sp,sp,-16
0x80014a4c:  02051793          slli                    a5,a0,32
0x80014a50:  e422              sd                      s0,8(sp)
0x80014a52:  01d7d713          srli                    a4,a5,29
0x80014a56:  0800              addi                    s0,sp,16
0x80014a58:  0001c797          auipc                   a5,28                   # 0x80030a58
0x80014a5c:  d1078793          addi                    a5,a5,-752
0x80014a60:  97ba              add                     a5,a5,a4
0x80014a62:  639c              ld                      a5,0(a5)
0x80014a64:  cb99              beqz                    a5,22                   # 0x80014a7a

----------------
IN: 
Priv: 3; Virt: 0
0x80014a66:  6398              ld                      a4,0(a5)
0x80014a68:  0140000f          fence                   w,o
0x80014a6c:  4b9c              lw                      a5,16(a5)
0x80014a6e:  9d1d              subw                    a0,a0,a5
0x80014a70:  1502              slli                    a0,a0,32
0x80014a72:  8179              srli                    a0,a0,30
0x80014a74:  953a              add                     a0,a0,a4
0x80014a76:  4781              mv                      a5,zero
0x80014a78:  c11c              sw                      a5,0(a0)
0x80014a7a:  6422              ld                      s0,8(sp)
0x80014a7c:  0141              addi                    sp,sp,16
0x80014a7e:  8082              ret                     

----------------
IN: 
Priv: 3; Virt: 0
0x80014a78:  c11c              sw                      a5,0(a0)

----------------
IN: 
Priv: 3; Virt: 0
0x80014a7a:  6422              ld                      s0,8(sp)
0x80014a7c:  0141              addi                    sp,sp,16
0x80014a7e:  8082              ret                     

----------------
IN: 
Priv: 3; Virt: 0
0x80014ab8:  60a2              ld                      ra,8(sp)
0x80014aba:  6402              ld                      s0,0(sp)
0x80014abc:  4501              mv                      a0,zero
0x80014abe:  0141              addi                    sp,sp,16
0x80014ac0:  8082              ret                     

----------------
IN: 
Priv: 3; Virt: 0
0x8000ebac:  70a6              ld                      ra,104(sp)
0x8000ebae:  7406              ld                      s0,96(sp)
0x8000ebb0:  64e6              ld                      s1,88(sp)
0x8000ebb2:  6946              ld                      s2,80(sp)
0x8000ebb4:  69a6              ld                      s3,72(sp)
0x8000ebb6:  6a06              ld                      s4,64(sp)
0x8000ebb8:  7ae2              ld                      s5,56(sp)
0x8000ebba:  7b42              ld                      s6,48(sp)
0x8000ebbc:  7ba2              ld                      s7,40(sp)
0x8000ebbe:  7c02              ld                      s8,32(sp)
0x8000ebc0:  6ce2              ld                      s9,24(sp)
0x8000ebc2:  6d42              ld                      s10,16(sp)
0x8000ebc4:  6165              addi                    sp,sp,112
0x8000ebc6:  8082              ret                     

----------------
IN: 
Priv: 3; Virt: 0
0x80001142:  e501              bnez                    a0,8                    # 0x8000114a

----------------
IN: 
Priv: 3; Virt: 0
0x80001144:  30446073          csrrsi                  zero,mie,8

----------------
IN: 
Priv: 3; Virt: 0
0x80001148:  4501              mv                      a0,zero
0x8000114a:  70a2              ld                      ra,40(sp)
0x8000114c:  7402              ld                      s0,32(sp)
0x8000114e:  64e2              ld                      s1,24(sp)
0x80001150:  6942              ld                      s2,16(sp)
0x80001152:  69a2              ld                      s3,8(sp)
0x80001154:  6a02              ld                      s4,0(sp)
0x80001156:  6145              addi                    sp,sp,48
0x80001158:  8082              ret                     

----------------
IN: 
Priv: 3; Virt: 0
0x8000089c:  862a              mv                      a2,a0
0x8000089e:  cd09              beqz                    a0,26                   # 0x800008b8

----------------
IN: 
Priv: 3; Virt: 0
0x800008b8:  4585              addi                    a1,zero,1
0x800008ba:  8526              mv                      a0,s1
0x800008bc:  1eb020ef          jal                     ra,10730                # 0x800032a6

----------------
IN: 
Priv: 3; Virt: 0
0x800032a6:  7179              addi                    sp,sp,-48
0x800032a8:  f022              sd                      s0,32(sp)
0x800032aa:  ec26              sd                      s1,24(sp)
0x800032ac:  f406              sd                      ra,40(sp)
0x800032ae:  e84a              sd                      s2,16(sp)
0x800032b0:  e44e              sd                      s3,8(sp)
0x800032b2:  e052              sd                      s4,0(sp)
0x800032b4:  1800              addi                    s0,sp,48
0x800032b6:  84aa              mv                      s1,a0
0x800032b8:  e5b9              bnez                    a1,78                   # 0x80003306

----------------
IN: 
Priv: 3; Virt: 0
0x80003306:  4521              addi                    a0,zero,8
0x80003308:  0304ba03          ld                      s4,48(s1)
0x8000330c:  00025997          auipc                   s3,37                   # 0x8002830c
0x80003310:  76c98993          addi                    s3,s3,1900
0x80003314:  948ff0ef          jal                     ra,-3768                # 0x8000245c

----------------
IN: 
Priv: 3; Virt: 0
0x80003318:  00a9b023          sd                      a0,0(s3)
0x8000331c:  cd25              beqz                    a0,120                  # 0x80003394

----------------
IN: 
Priv: 3; Virt: 0
0x8000331e:  4561              addi                    a0,zero,24
0x80003320:  93cff0ef          jal                     ra,-3780                # 0x8000245c

----------------
IN: 
Priv: 3; Virt: 0
0x80003324:  00a9b423          sd                      a0,8(s3)
0x80003328:  cd25              beqz                    a0,120                  # 0x800033a0

----------------
IN: 
Priv: 3; Virt: 0
0x8000332a:  1c000513          addi                    a0,zero,448
0x8000332e:  92eff0ef          jal                     ra,-3794                # 0x8000245c

----------------
IN: 
Priv: 3; Virt: 0
0x80003332:  00a9bc23          sd                      a0,24(s3)
0x80003336:  cd25              beqz                    a0,120                  # 0x800033ae

----------------
IN: 
Priv: 3; Virt: 0
0x80003338:  00015517          auipc                   a0,21                   # 0x80018338
0x8000333c:  e1050513          addi                    a0,a0,-496
0x80003340:  c4bfd0ef          jal                     ra,-9142                # 0x80000f8a

----------------
IN: 
Priv: 3; Virt: 0
0x80000f8a:  cd09              beqz                    a0,26                   # 0x80000fa4

----------------
IN: 
Priv: 3; Virt: 0
0x80000f8c:  791c              ld                      a5,48(a0)
0x80000f8e:  cb99              beqz                    a5,22                   # 0x80000fa4

----------------
IN: 
Priv: 3; Virt: 0
0x80000f90:  1141              addi                    sp,sp,-16
0x80000f92:  e022              sd                      s0,0(sp)
0x80000f94:  e406              sd                      ra,8(sp)
0x80000f96:  0800              addi                    s0,sp,16
0x80000f98:  ec5ff0ef          jal                     ra,-316                 # 0x80000e5c

----------------
IN: 
Priv: 3; Virt: 0
0x80000f9c:  60a2              ld                      ra,8(sp)
0x80000f9e:  6402              ld                      s0,0(sp)
0x80000fa0:  0141              addi                    sp,sp,16
0x80000fa2:  8082              ret                     

----------------
IN: 
Priv: 3; Virt: 0
0x80003344:  892a              mv                      s2,a0
0x80003346:  02054a63          bltz                    a0,52                   # 0x8000337a

----------------
IN: 
Priv: 3; Virt: 0
0x8000334a:  00015797          auipc                   a5,21                   # 0x8001834a
0x8000334e:  cea7af23          sw                      a0,-770(a5)
0x80003352:  020a0263          beqz                    s4,36                   # 0x80003376

----------------
IN: 
Priv: 3; Virt: 0
0x80003356:  058a3783          ld                      a5,88(s4)
0x8000335a:  6705              lui                     a4,1
0x8000335c:  63dc              ld                      a5,128(a5)
0x8000335e:  c399              beqz                    a5,6                    # 0x80003364

----------------
IN: 
Priv: 3; Virt: 0
0x80003360:  9782              jalr                    ra,a5,0

----------------
IN: 
Priv: 3; Virt: 0
0x80003a6e:  1141              addi                    sp,sp,-16
0x80003a70:  e422              sd                      s0,8(sp)
0x80003a72:  0800              addi                    s0,sp,16
0x80003a74:  6422              ld                      s0,8(sp)
0x80003a76:  6505              lui                     a0,1
0x80003a78:  0141              addi                    sp,sp,16
0x80003a7a:  8082              ret                     

----------------
IN: 
Priv: 3; Virt: 0
0x80003362:  872a              mv                      a4,a0
0x80003364:  0009b783          ld                      a5,0(s3)
0x80003368:  0089b503          ld                      a0,8(s3)
0x8000336c:  0189b583          ld                      a1,24(s3)
0x80003370:  00e9b823          sd                      a4,16(s3)
0x80003374:  b7ad              j                       -150                    # 0x800032de

----------------
IN: 
Priv: 3; Virt: 0
0x800032de:  97a6              add                     a5,a5,s1
0x800032e0:  0007b023          sd                      zero,0(a5)
0x800032e4:  03800693          addi                    a3,zero,56
0x800032e8:  4621              addi                    a2,zero,8
0x800032ea:  95a6              add                     a1,a1,s1
0x800032ec:  9526              add                     a0,a0,s1
0x800032ee:  313030ef          jal                     ra,15122                # 0x80006e00

----------------
IN: 
Priv: 3; Virt: 0
0x80006e00:  8732              mv                      a4,a2
0x80006e02:  02d60633          mul                     a2,a2,a3
0x80006e06:  1141              addi                    sp,sp,-16
0x80006e08:  e022              sd                      s0,0(sp)
0x80006e0a:  e406              sd                      ra,8(sp)
0x80006e0c:  0800              addi                    s0,sp,16
0x80006e0e:  87aa              mv                      a5,a0
0x80006e10:  e38c              sd                      a1,0(a5)
0x80006e12:  852e              mv                      a0,a1
0x80006e14:  00e79723          sh                      a4,14(a5)
0x80006e18:  00d79623          sh                      a3,12(a5)
0x80006e1c:  0007a423          sw                      zero,8(a5)
0x80006e20:  0007a823          sw                      zero,16(a5)
0x80006e24:  4581              mv                      a1,zero
0x80006e26:  85bfb0ef          jal                     ra,-18342               # 0x80002680

----------------
IN: 
Priv: 3; Virt: 0
0x80006e2a:  60a2              ld                      ra,8(sp)
0x80006e2c:  6402              ld                      s0,0(sp)
0x80006e2e:  0141              addi                    sp,sp,16
0x80006e30:  8082              ret                     

----------------
IN: 
Priv: 3; Virt: 0
0x800032f2:  4901              mv                      s2,zero
0x800032f4:  70a2              ld                      ra,40(sp)
0x800032f6:  7402              ld                      s0,32(sp)
0x800032f8:  64e2              ld                      s1,24(sp)
0x800032fa:  69a2              ld                      s3,8(sp)
0x800032fc:  6a02              ld                      s4,0(sp)
0x800032fe:  854a              mv                      a0,s2
0x80003300:  6942              ld                      s2,16(sp)
0x80003302:  6145              addi                    sp,sp,48
0x80003304:  8082              ret                     

----------------
IN: 
Priv: 3; Virt: 0
0x800008c0:  862a              mv                      a2,a0
0x800008c2:  cd09              beqz                    a0,26                   # 0x800008dc

----------------
IN: 
Priv: 3; Virt: 0
0x800008dc:  4585              addi                    a1,zero,1
0x800008de:  8526              mv                      a0,s1
0x800008e0:  2fc020ef          jal                     ra,8956                 # 0x80002bdc

----------------
IN: 
Priv: 3; Virt: 0
0x80002bdc:  7179              addi                    sp,sp,-48
0x80002bde:  f022              sd                      s0,32(sp)
0x80002be0:  ec26              sd                      s1,24(sp)
0x80002be2:  e84a              sd                      s2,16(sp)
0x80002be4:  f406              sd                      ra,40(sp)
0x80002be6:  e44e              sd                      s3,8(sp)
0x80002be8:  e052              sd                      s4,0(sp)
0x80002bea:  1800              addi                    s0,sp,48
0x80002bec:  03053983          ld                      s3,48(a0)
0x80002bf0:  84aa              mv                      s1,a0
0x80002bf2:  892e              mv                      s2,a1
0x80002bf4:  e995              bnez                    a1,52                   # 0x80002c28

----------------
IN: 
Priv: 3; Virt: 0
0x80002c28:  4521              addi                    a0,zero,8
0x80002c2a:  833ff0ef          jal                     ra,-1998                # 0x8000245c

----------------
IN: 
Priv: 3; Virt: 0
0x80002c2e:  00026a17          auipc                   s4,38                   # 0x80028c2e
0x80002c32:  e32a0a13          addi                    s4,s4,-462
0x80002c36:  00aa3823          sd                      a0,16(s4)
0x80002c3a:  c115              beqz                    a0,36                   # 0x80002c5e

----------------
IN: 
Priv: 3; Virt: 0
0x80002c3c:  4585              addi                    a1,zero,1
0x80002c3e:  8526              mv                      a0,s1
0x80002c40:  728040ef          jal                     ra,18216                # 0x80007368

----------------
IN: 
Priv: 3; Virt: 0
0x80002c44:  c911              beqz                    a0,20                   # 0x80002c58

----------------
IN: 
Priv: 3; Virt: 0
0x80002c46:  00000797          auipc                   a5,0                    # 0x80002c46
0x80002c4a:  d0878793          addi                    a5,a5,-760
0x80002c4e:  010a3503          ld                      a0,16(s4)
0x80002c52:  00fa3423          sd                      a5,8(s4)
0x80002c56:  b76d              j                       -86                     # 0x80002c00

----------------
IN: 
Priv: 3; Virt: 0
0x80002c00:  94aa              add                     s1,s1,a0
0x80002c02:  0004b023          sd                      zero,0(s1)
0x80002c06:  4501              mv                      a0,zero
0x80002c08:  00098863          beqz                    s3,16                   # 0x80002c18

----------------
IN: 
Priv: 3; Virt: 0
0x80002c0c:  0589b783          ld                      a5,88(s3)
0x80002c10:  67dc              ld                      a5,136(a5)
0x80002c12:  c399              beqz                    a5,6                    # 0x80002c18

----------------
IN: 
Priv: 3; Virt: 0
0x80002c14:  854a              mv                      a0,s2
0x80002c16:  9782              jalr                    ra,a5,0

----------------
IN: 
Priv: 3; Virt: 0
0x8000a858:  7159              addi                    sp,sp,-112
0x8000a85a:  f0a2              sd                      s0,96(sp)
0x8000a85c:  f486              sd                      ra,104(sp)
0x8000a85e:  eca6              sd                      s1,88(sp)
0x8000a860:  e8ca              sd                      s2,80(sp)
0x8000a862:  e4ce              sd                      s3,72(sp)
0x8000a864:  e0d2              sd                      s4,64(sp)
0x8000a866:  fc56              sd                      s5,56(sp)
0x8000a868:  f85a              sd                      s6,48(sp)
0x8000a86a:  f45e              sd                      s7,40(sp)
0x8000a86c:  f062              sd                      s8,32(sp)
0x8000a86e:  ec66              sd                      s9,24(sp)
0x8000a870:  e86a              sd                      s10,16(sp)
0x8000a872:  1880              addi                    s0,sp,112
0x8000a874:  e51d              bnez                    a0,46                   # 0x8000a8a2

----------------
IN: 
Priv: 3; Virt: 0
0x8000a8a2:  34002773          csrrs                   a4,mscratch,zero

----------------
IN: 
Priv: 3; Virt: 0
0x8000a8a6:  0000fc17          auipc                   s8,15                   # 0x800198a6
0x8000a8aa:  acac3c03          ld                      s8,-1334(s8)
0x8000a8ae:  000c3783          ld                      a5,0(s8)
0x8000a8b2:  01073903          ld                      s2,16(a4)
0x8000a8b6:  d3e1              beqz                    a5,-64                  # 0x8000a876

----------------
IN: 
Priv: 3; Virt: 0
0x8000a8b8:  0000f997          auipc                   s3,15                   # 0x800198b8
0x8000a8bc:  a009b983          ld                      s3,-1536(s3)
0x8000a8c0:  4a81              mv                      s5,zero
0x8000a8c2:  f9840b93          addi                    s7,s0,-104
0x8000a8c6:  c1800b13          addi                    s6,zero,-1000
0x8000a8ca:  0000ea17          auipc                   s4,14                   # 0x800188ca
0x8000a8ce:  d6ea0a13          addi                    s4,s4,-658
0x8000a8d2:  0001fc97          auipc                   s9,31                   # 0x800298d2
0x8000a8d6:  abec8c93          addi                    s9,s9,-1346
0x8000a8da:  0009b483          ld                      s1,0(s3)
0x8000a8de:  5d7d              addi                    s10,zero,-1
0x8000a8e0:  6090              ld                      a2,0(s1)
0x8000a8e2:  85ea              mv                      a1,s10
0x8000a8e4:  86de              mv                      a3,s7
0x8000a8e6:  854a              mv                      a0,s2
0x8000a8e8:  1df050ef          jal                     ra,23006                # 0x800102c6

----------------
IN: 
Priv: 3; Virt: 0
0x8000a8ec:  8d2a              mv                      s10,a0
0x8000a8ee:  85ea              mv                      a1,s10
0x8000a8f0:  854a              mv                      a0,s2
0x8000a8f2:  000d4d63          bltz                    s10,26                  # 0x8000a90c

----------------
IN: 
Priv: 3; Virt: 0
0x8000a8f6:  649c              ld                      a5,8(s1)
0x8000a8f8:  c799              beqz                    a5,14                   # 0x8000a906

----------------
IN: 
Priv: 3; Virt: 0
0x8000a8fa:  f9843603          ld                      a2,-104(s0)
0x8000a8fe:  9782              jalr                    ra,a5,0

----------------
IN: 
Priv: 3; Virt: 0
0x8000a922:  7119              addi                    sp,sp,-128
0x8000a924:  f8a2              sd                      s0,112(sp)
0x8000a926:  e0da              sd                      s6,64(sp)
0x8000a928:  fc5e              sd                      s7,56(sp)
0x8000a92a:  fc86              sd                      ra,120(sp)
0x8000a92c:  f4a6              sd                      s1,104(sp)
0x8000a92e:  f0ca              sd                      s2,96(sp)
0x8000a930:  ecce              sd                      s3,88(sp)
0x8000a932:  e8d2              sd                      s4,80(sp)
0x8000a934:  e4d6              sd                      s5,72(sp)
0x8000a936:  0100              addi                    s0,sp,128
0x8000a938:  0001fb17          auipc                   s6,31                   # 0x80029938
0x8000a93c:  a78b0b13          addi                    s6,s6,-1416
0x8000a940:  000b3b83          ld                      s7,0(s6)
0x8000a944:  47bd              addi                    a5,zero,15
0x8000a946:  1977ec63          bgtu                    s7,a5,408               # 0x8000aade

----------------
IN: 
Priv: 3; Virt: 0
0x8000a94a:  05800493          addi                    s1,zero,88
0x8000a94e:  029b84b3          mul                     s1,s7,s1
0x8000a952:  0001f997          auipc                   s3,31                   # 0x80029952
0x8000a956:  a6698993          addi                    s3,s3,-1434
0x8000a95a:  8a32              mv                      s4,a2
0x8000a95c:  fa840813          addi                    a6,s0,-88
0x8000a960:  f9840793          addi                    a5,s0,-104
0x8000a964:  fa040713          addi                    a4,s0,-96
0x8000a968:  f9040693          addi                    a3,s0,-112
0x8000a96c:  4605              addi                    a2,zero,1
0x8000a96e:  8aaa              mv                      s5,a0
0x8000a970:  02c48313          addi                    t1,s1,44
0x8000a974:  934e              add                     t1,t1,s3
0x8000a976:  02848893          addi                    a7,s1,40
0x8000a97a:  e01a              sd                      t1,0(sp)
0x8000a97c:  98ce              add                     a7,a7,s3
0x8000a97e:  48b060ef          jal                     ra,27786                # 0x80011608

----------------
IN: 
Priv: 3; Virt: 0
0x80011638:  4b9d              addi                    s7,zero,7
0x8001163a:  1c094d63          bltz                    s2,474                  # 0x80011814

----------------
IN: 
Priv: 3; Virt: 0
0x800116a0:  f8043783          ld                      a5,-128(s0)
0x800116a4:  00fcb023          sd                      a5,0(s9)
0x800116a8:  000c0663          beqz                    s8,12                   # 0x800116b4

----------------
IN: 
Priv: 3; Virt: 0
0x800116ac:  f8843783          ld                      a5,-120(s0)
0x800116b0:  00fc3023          sd                      a5,0(s8)
0x800116b4:  601c              ld                      a5,0(s0)
0x800116b6:  000a2023          sw                      zero,0(s4)
0x800116ba:  f7840693          addi                    a3,s0,-136
0x800116be:  0007a023          sw                      zero,0(a5)
0x800116c2:  00005617          auipc                   a2,5                    # 0x800166c2
0x800116c6:  66660613          addi                    a2,a2,1638
0x800116ca:  85ca              mv                      a1,s2
0x800116cc:  8526              mv                      a0,s1
0x800116ce:  bd5fb0ef          jal                     ra,-17452               # 0x8000d2a2

----------------
IN: 
Priv: 3; Virt: 0
0x8000a982:  892a              mv                      s2,a0
0x8000a984:  cd09              beqz                    a0,26                   # 0x8000a99e

----------------
IN: 
Priv: 3; Virt: 0
0x8000a99e:  99a6              add                     s3,s3,s1
0x8000a9a0:  4785              addi                    a5,zero,1
0x8000a9a2:  94da              add                     s1,s1,s6
0x8000a9a4:  85ce              mv                      a1,s3
0x8000a9a6:  8556              mv                      a0,s5
0x8000a9a8:  fc9c              sd                      a5,56(s1)
0x8000a9aa:  084060ef          jal                     ra,24708                # 0x80010a2e

----------------
IN: 
Priv: 3; Virt: 0
0x80010a2e:  c159              beqz                    a0,134                  # 0x80010ab4

----------------
IN: 
Priv: 3; Virt: 0
0x80010a30:  7179              addi                    sp,sp,-48
0x80010a32:  f022              sd                      s0,32(sp)
0x80010a34:  ec26              sd                      s1,24(sp)
0x80010a36:  f406              sd                      ra,40(sp)
0x80010a38:  e84a              sd                      s2,16(sp)
0x80010a3a:  1800              addi                    s0,sp,48
0x80010a3c:  84ae              mv                      s1,a1
0x80010a3e:  c5b5              beqz                    a1,108                  # 0x80010aaa

----------------
IN: 
Priv: 3; Virt: 0
0x80010a40:  00005597          auipc                   a1,5                    # 0x80015a40
0x80010a44:  f3058593          addi                    a1,a1,-208
0x80010a48:  892a              mv                      s2,a0
0x80010a4a:  b1ffc0ef          jal                     ra,-13538               # 0x8000d568

----------------
IN: 
Priv: 3; Virt: 0
0x80010a4e:  04054863          bltz                    a0,80                   # 0x80010a9e

----------------
IN: 
Priv: 3; Virt: 0
0x80010a52:  85aa              mv                      a1,a0
0x80010a54:  fdc40693          addi                    a3,s0,-36
0x80010a58:  00006617          auipc                   a2,6                    # 0x80016a58
0x80010a5c:  5d060613          addi                    a2,a2,1488
0x80010a60:  854a              mv                      a0,s2
0x80010a62:  841fc0ef          jal                     ra,-14272               # 0x8000d2a2

----------------
IN: 
Priv: 3; Virt: 0
0x80010a66:  fdc42783          lw                      a5,-36(s0)
0x80010a6a:  04f05263          blez                    a5,68                   # 0x80010aae

----------------
IN: 
Priv: 3; Virt: 0
0x80010a6e:  c121              beqz                    a0,64                   # 0x80010aae

----------------
IN: 
Priv: 3; Virt: 0
0x80010a70:  411c              lw                      a5,0(a0)
0x80010a72:  4501              mv                      a0,zero
0x80010a74:  0087d693          srli                    a3,a5,8
0x80010a78:  0187971b          slliw                   a4,a5,24
0x80010a7c:  0187d61b          srliw                   a2,a5,24
0x80010a80:  0ff6f693          andi                    a3,a3,255
0x80010a84:  83c1              srli                    a5,a5,16
0x80010a86:  8f51              or                      a4,a4,a2
0x80010a88:  0106969b          slliw                   a3,a3,16
0x80010a8c:  0ff7f793          andi                    a5,a5,255
0x80010a90:  8f55              or                      a4,a4,a3
0x80010a92:  0087979b          slliw                   a5,a5,8
0x80010a96:  8fd9              or                      a5,a5,a4
0x80010a98:  1782              slli                    a5,a5,32
0x80010a9a:  9381              srli                    a5,a5,32
0x80010a9c:  e09c              sd                      a5,0(s1)
0x80010a9e:  70a2              ld                      ra,40(sp)
0x80010aa0:  7402              ld                      s0,32(sp)
0x80010aa2:  64e2              ld                      s1,24(sp)
0x80010aa4:  6942              ld                      s2,16(sp)
0x80010aa6:  6145              addi                    sp,sp,48
0x80010aa8:  8082              ret                     

----------------
IN: 
Priv: 3; Virt: 0
0x8000a9ae:  892a              mv                      s2,a0
0x8000a9b0:  f979              bnez                    a0,-42                  # 0x8000a986

----------------
IN: 
Priv: 3; Virt: 0
0x8000a9b2:  008a3703          ld                      a4,8(s4)
0x8000a9b6:  f9043683          ld                      a3,-112(s0)
0x8000a9ba:  c771              beqz                    a4,204                  # 0x8000aa86

----------------
IN: 
Priv: 3; Virt: 0
0x8000a9bc:  67a1              lui                     a5,8
0x8000a9be:  17e1              addi                    a5,a5,-8
0x8000a9c0:  f094              sd                      a3,32(s1)
0x8000a9c2:  f49c              sd                      a5,40(s1)
0x8000a9c4:  4710              lw                      a2,8(a4)
0x8000a9c6:  ce41              beqz                    a2,152                  # 0x8000aa5e

----------------
IN: 
Priv: 3; Virt: 0
0x8000aa5e:  fa043603          ld                      a2,-96(s0)
0x8000aa62:  00f685b3          add                     a1,a3,a5
0x8000aa66:  e88c              sd                      a1,16(s1)
0x8000aa68:  40f607b3          sub                     a5,a2,a5
0x8000aa6c:  ec9c              sd                      a5,24(s1)
0x8000aa6e:  00076603          lwu                     a2,0(a4)
0x8000aa72:  962e              add                     a2,a2,a1
0x8000aa74:  e890              sd                      a2,16(s1)
0x8000aa76:  00076603          lwu                     a2,0(a4)
0x8000aa7a:  8f91              sub                     a5,a5,a2
0x8000aa7c:  ec9c              sd                      a5,24(s1)
0x8000aa7e:  bf89              j                       -174                    # 0x8000a9d0

----------------
IN: 
Priv: 3; Virt: 0
0x8000a9d0:  05800793          addi                    a5,zero,88
0x8000a9d4:  02fb87b3          mul                     a5,s7,a5
0x8000a9d8:  00076603          lwu                     a2,0(a4)
0x8000a9dc:  96b2              add                     a3,a3,a2
0x8000a9de:  97da              add                     a5,a5,s6
0x8000a9e0:  f394              sd                      a3,32(a5)
0x8000a9e2:  4358              lw                      a4,4(a4)
0x8000a9e4:  df98              sw                      a4,56(a5)
0x8000a9e6:  05800793          addi                    a5,zero,88
0x8000a9ea:  02fb87b3          mul                     a5,s7,a5
0x8000a9ee:  97da              add                     a5,a5,s6
0x8000a9f0:  6f98              ld                      a4,24(a5)
0x8000a9f2:  c759              beqz                    a4,142                  # 0x8000aa80

----------------
IN: 
Priv: 3; Virt: 0
0x8000a9f4:  000b3603          ld                      a2,0(s6)
0x8000a9f8:  0207ae23          sw                      zero,60(a5)
0x8000a9fc:  c61d              beqz                    a2,46                   # 0x8000aa2a

----------------
IN: 
Priv: 3; Virt: 0
0x8000aa2a:  588b3583          ld                      a1,1416(s6)
0x8000aa2e:  854e              mv                      a0,s3
0x8000aa30:  438080ef          jal                     ra,33848                # 0x80012e68

----------------
IN: 
Priv: 3; Virt: 0
0x80012e68:  14050263          beqz                    a0,324                  # 0x80012fac

----------------
IN: 
Priv: 3; Virt: 0
0x80012e6c:  1101              addi                    sp,sp,-32
0x80012e6e:  e822              sd                      s0,16(sp)
0x80012e70:  e426              sd                      s1,8(sp)
0x80012e72:  ec06              sd                      ra,24(sp)
0x80012e74:  e04a              sd                      s2,0(sp)
0x80012e76:  1000              addi                    s0,sp,32
0x80012e78:  02c52803          lw                      a6,44(a0)
0x80012e7c:  84aa              mv                      s1,a0
0x80012e7e:  87ae              mv                      a5,a1
0x80012e80:  00080463          beqz                    a6,8                    # 0x80012e88

----------------
IN: 
Priv: 3; Virt: 0
0x80012e84:  7118              ld                      a4,32(a0)
0x80012e86:  c779              beqz                    a4,206                  # 0x80012f54

----------------
IN: 
Priv: 3; Virt: 0
0x80012e88:  688c              ld                      a1,16(s1)
0x80012e8a:  e1e9              bnez                    a1,194                  # 0x80012f4c

----------------
IN: 
Priv: 3; Virt: 0
0x80012f4c:  6498              ld                      a4,8(s1)
0x80012f4e:  8f4d              or                      a4,a4,a1
0x80012f50:  8b1d              andi                    a4,a4,7
0x80012f52:  df0d              beqz                    a4,-198                 # 0x80012e8c

----------------
IN: 
Priv: 3; Virt: 0
0x80012e8c:  0184b883          ld                      a7,24(s1)
0x80012e90:  0078f713          andi                    a4,a7,7
0x80012e94:  e361              bnez                    a4,192                  # 0x80012f54

----------------
IN: 
Priv: 3; Virt: 0
0x80012e96:  0204b303          ld                      t1,32(s1)
0x80012e9a:  00737713          andi                    a4,t1,7
0x80012e9e:  eb5d              bnez                    a4,182                  # 0x80012f54

----------------
IN: 
Priv: 3; Virt: 0
0x80012ea0:  5498              lw                      a4,40(s1)
0x80012ea2:  07f00693          addi                    a3,zero,127
0x80012ea6:  0ae6e763          bgtu                    a4,a3,174               # 0x80012f54

----------------
IN: 
Priv: 3; Virt: 0
0x80012eaa:  6685              lui                     a3,1
0x80012eac:  0ad87463          bleu                    a3,a6,168               # 0x80012f54

----------------
IN: 
Priv: 3; Virt: 0
0x80012eb0:  cb91              beqz                    a5,20                   # 0x80012ec4

----------------
IN: 
Priv: 3; Virt: 0
0x80012ec4:  00000697          auipc                   a3,0                    # 0x80012ec4
0x80012ec8:  db268693          addi                    a3,a3,-590
0x80012ecc:  589c              lw                      a5,48(s1)
0x80012ece:  e4b4              sd                      a3,72(s1)
0x80012ed0:  00000697          auipc                   a3,0                    # 0x80012ed0
0x80012ed4:  dd268693          addi                    a3,a3,-558
0x80012ed8:  e8b4              sd                      a3,80(s1)
0x80012eda:  e7d5              bnez                    a5,172                  # 0x80012f86

----------------
IN: 
Priv: 3; Virt: 0
0x80012f86:  00000797          auipc                   a5,0                    # 0x80012f86
0x80012f8a:  cd478793          addi                    a5,a5,-812
0x80012f8e:  e4bc              sd                      a5,72(s1)
0x80012f90:  00000797          auipc                   a5,0                    # 0x80012f90
0x80012f94:  cd878793          addi                    a5,a5,-808
0x80012f98:  e8bc              sd                      a5,80(s1)
0x80012f9a:  b789              j                       -190                    # 0x80012edc

----------------
IN: 
Priv: 3; Virt: 0
0x80012edc:  00e8063b          addw                    a2,a6,a4
0x80012ee0:  0001d697          auipc                   a3,29                   # 0x8002fee0
0x80012ee4:  45868693          addi                    a3,a3,1112
0x80012ee8:  00080a63          beqz                    a6,20                   # 0x80012efc

----------------
IN: 
Priv: 3; Virt: 0
0x80012eec:  02071793          slli                    a5,a4,32
0x80012ef0:  83f5              srli                    a5,a5,29
0x80012ef2:  97b6              add                     a5,a5,a3
0x80012ef4:  e384              sd                      s1,0(a5)
0x80012ef6:  2705              addiw                   a4,a4,1
0x80012ef8:  fee61ae3          bne                     a2,a4,-12               # 0x80012eec

----------------
IN: 
Priv: 3; Virt: 0
0x80012efc:  cdb1              beqz                    a1,92                   # 0x80012f58

----------------
IN: 
Priv: 3; Virt: 0
0x80012efe:  6488              ld                      a0,8(s1)
0x80012f00:  006887b3          add                     a5,a7,t1
0x80012f04:  06f50863          beq                     a0,a5,112               # 0x80012f74

----------------
IN: 
Priv: 3; Virt: 0
0x80012f74:  4685              addi                    a3,zero,1
0x80012f76:  06fe              slli                    a3,a3,31
0x80012f78:  6605              lui                     a2,1
0x80012f7a:  959a              add                     a1,a1,t1
0x80012f7c:  8546              mv                      a0,a7
0x80012f7e:  b73f30ef          jal                     ra,-50318               # 0x80006af0

----------------
IN: 
Priv: 3; Virt: 0
0x80006af0:  7119              addi                    sp,sp,-128
0x80006af2:  f8a2              sd                      s0,112(sp)
0x80006af4:  e8d2              sd                      s4,80(sp)
0x80006af6:  fc86              sd                      ra,120(sp)
0x80006af8:  f4a6              sd                      s1,104(sp)
0x80006afa:  f0ca              sd                      s2,96(sp)
0x80006afc:  ecce              sd                      s3,88(sp)
0x80006afe:  e4d6              sd                      s5,72(sp)
0x80006b00:  e0da              sd                      s6,64(sp)
0x80006b02:  fc5e              sd                      s7,56(sp)
0x80006b04:  f862              sd                      s8,48(sp)
0x80006b06:  f466              sd                      s9,40(sp)
0x80006b08:  f06a              sd                      s10,32(sp)
0x80006b0a:  0100              addi                    s0,sp,128
0x80006b0c:  00b50a33          add                     s4,a0,a1
0x80006b10:  07457f63          bleu                    s4,a0,126               # 0x80006b8e

----------------
IN: 
Priv: 3; Virt: 0
0x80006b14:  5c7d              addi                    s8,zero,-1
0x80006b16:  6bc1              lui                     s7,16
0x80006b18:  892a              mv                      s2,a0
0x80006b1a:  8ab2              mv                      s5,a2
0x80006b1c:  8d36              mv                      s10,a3
0x80006b1e:  fff60b13          addi                    s6,a2,-1
0x80006b22:  f8840993          addi                    s3,s0,-120
0x80006b26:  020c5c13          srli                    s8,s8,32
0x80006b2a:  1bfd              addi                    s7,s7,-1
0x80006b2c:  4c85              addi                    s9,zero,1
0x80006b2e:  012b77b3          and                     a5,s6,s2
0x80006b32:  cfad              beqz                    a5,122                  # 0x80006bac

----------------
IN: 
Priv: 3; Virt: 0
0x80006bac:  412a04b3          sub                     s1,s4,s2
0x80006bb0:  fc9af2e3          bleu                    s1,s5,-60               # 0x80006b74

----------------
IN: 
Priv: 3; Virt: 0
0x80006bb4:  84d6              mv                      s1,s5
0x80006bb6:  bf7d              j                       -66                     # 0x80006b74

----------------
IN: 
Priv: 3; Virt: 0
0x80006b74:  854a              mv                      a0,s2
0x80006b76:  86ce              mv                      a3,s3
0x80006b78:  866a              mv                      a2,s10
0x80006b7a:  85a6              mv                      a1,s1
0x80006b7c:  d1cff0ef          jal                     ra,-2788                # 0x80006098

----------------
IN: 
Priv: 3; Virt: 0
0x80006b80:  854e              mv                      a0,s3
0x80006b82:  dcbff0ef          jal                     ra,-566                 # 0x8000694c

----------------
IN: 
Priv: 3; Virt: 0
0x80006b86:  e509              bnez                    a0,10                   # 0x80006b90

----------------
IN: 
Priv: 3; Virt: 0
0x80006b88:  9926              add                     s2,s2,s1
0x80006b8a:  fb4962e3          bgtu                    s4,s2,-92               # 0x80006b2e

----------------
IN: 
Priv: 3; Virt: 0
0x80006b2e:  012b77b3          and                     a5,s6,s2
0x80006b32:  cfad              beqz                    a5,122                  # 0x80006bac

----------------
IN: 
Priv: 3; Virt: 0
0x80006b8e:  4501              mv                      a0,zero
0x80006b90:  70e6              ld                      ra,120(sp)
0x80006b92:  7446              ld                      s0,112(sp)
0x80006b94:  74a6              ld                      s1,104(sp)
0x80006b96:  7906              ld                      s2,96(sp)
0x80006b98:  69e6              ld                      s3,88(sp)
0x80006b9a:  6a46              ld                      s4,80(sp)
0x80006b9c:  6aa6              ld                      s5,72(sp)
0x80006b9e:  6b06              ld                      s6,64(sp)
0x80006ba0:  7be2              ld                      s7,56(sp)
0x80006ba2:  7c42              ld                      s8,48(sp)
0x80006ba4:  7ca2              ld                      s9,40(sp)
0x80006ba6:  7d02              ld                      s10,32(sp)
0x80006ba8:  6109              addi                    sp,sp,128
0x80006baa:  8082              ret                     

----------------
IN: 
Priv: 3; Virt: 0
0x80012f82:  d555              beqz                    a0,-84                  # 0x80012f2e

----------------
IN: 
Priv: 3; Virt: 0
0x80012f2e:  609c              ld                      a5,0(s1)
0x80012f30:  00006517          auipc                   a0,6                    # 0x80018f30
0x80012f34:  0a850513          addi                    a0,a0,168
0x80012f38:  f11c              sd                      a5,32(a0)
0x80012f3a:  c7bef0ef          jal                     ra,-66438               # 0x80002bb4

----------------
IN: 
Priv: 3; Virt: 0
0x80002bb4:  1141              addi                    sp,sp,-16
0x80002bb6:  e422              sd                      s0,8(sp)
0x80002bb8:  0800              addi                    s0,sp,16
0x80002bba:  c519              beqz                    a0,14                   # 0x80002bc8

----------------
IN: 
Priv: 3; Virt: 0
0x80002bbc:  00026797          auipc                   a5,38                   # 0x80028bbc
0x80002bc0:  ea478793          addi                    a5,a5,-348
0x80002bc4:  6398              ld                      a4,0(a5)
0x80002bc6:  c701              beqz                    a4,8                    # 0x80002bce

----------------
IN: 
Priv: 3; Virt: 0
0x80002bce:  6798              ld                      a4,8(a5)
0x80002bd0:  e388              sd                      a0,0(a5)
0x80002bd2:  fb7d              bnez                    a4,-10                  # 0x80002bc8

----------------
IN: 
Priv: 3; Virt: 0
0x80002bc8:  6422              ld                      s0,8(sp)
0x80002bca:  0141              addi                    sp,sp,16
0x80002bcc:  8082              ret                     

----------------
IN: 
Priv: 3; Virt: 0
0x80012f3e:  4501              mv                      a0,zero
0x80012f40:  60e2              ld                      ra,24(sp)
0x80012f42:  6442              ld                      s0,16(sp)
0x80012f44:  64a2              ld                      s1,8(sp)
0x80012f46:  6902              ld                      s2,0(sp)
0x80012f48:  6105              addi                    sp,sp,32
0x80012f4a:  8082              ret                     

----------------
IN: 
Priv: 3; Virt: 0
0x8000aa34:  892a              mv                      s2,a0
0x8000aa36:  f921              bnez                    a0,-176                 # 0x8000a986

----------------
IN: 
Priv: 3; Virt: 0
0x8000aa38:  05800793          addi                    a5,zero,88
0x8000aa3c:  02fb87b3          mul                     a5,s7,a5
0x8000aa40:  97da              add                     a5,a5,s6
0x8000aa42:  5bdc              lw                      a5,52(a5)
0x8000aa44:  e799              bnez                    a5,14                   # 0x8000aa52

----------------
IN: 
Priv: 3; Virt: 0
0x8000aa52:  000b3703          ld                      a4,0(s6)
0x8000aa56:  0705              addi                    a4,a4,1
0x8000aa58:  00eb3023          sd                      a4,0(s6)
0x8000aa5c:  b72d              j                       -214                    # 0x8000a986

----------------
IN: 
Priv: 3; Virt: 0
0x8000a986:  70e6              ld                      ra,120(sp)
0x8000a988:  7446              ld                      s0,112(sp)
0x8000a98a:  74a6              ld                      s1,104(sp)
0x8000a98c:  69e6              ld                      s3,88(sp)
0x8000a98e:  6a46              ld                      s4,80(sp)
0x8000a990:  6aa6              ld                      s5,72(sp)
0x8000a992:  6b06              ld                      s6,64(sp)
0x8000a994:  7be2              ld                      s7,56(sp)
0x8000a996:  854a              mv                      a0,s2
0x8000a998:  7906              ld                      s2,96(sp)
0x8000a99a:  6109              addi                    sp,sp,128
0x8000a99c:  8082              ret                     

----------------
IN: 
Priv: 3; Virt: 0
0x8000a900:  ff6500e3          beq                     a0,s6,-32               # 0x8000a8e0

----------------
IN: 
Priv: 3; Virt: 0
0x8000a904:  f149              bnez                    a0,-126                 # 0x8000a886

----------------
IN: 
Priv: 3; Virt: 0
0x8000a906:  009a3023          sd                      s1,0(s4)
0x8000a90a:  bfd9              j                       -42                     # 0x8000a8e0

----------------
IN: 
Priv: 3; Virt: 0
0x8000a8e0:  6090              ld                      a2,0(s1)
0x8000a8e2:  85ea              mv                      a1,s10
0x8000a8e4:  86de              mv                      a3,s7
0x8000a8e6:  854a              mv                      a0,s2
0x8000a8e8:  1df050ef          jal                     ra,23006                # 0x800102c6

----------------
IN: 
Priv: 3; Virt: 0
0x8000a90c:  000a3783          ld                      a5,0(s4)
0x8000a910:  f79797e3          bne                     a5,s9,-146              # 0x8000a87e

----------------
IN: 
Priv: 3; Virt: 0
0x8000a87e:  6b9c              ld                      a5,16(a5)
0x8000a880:  4501              mv                      a0,zero
0x8000a882:  c391              beqz                    a5,4                    # 0x8000a886

----------------
IN: 
Priv: 3; Virt: 0
0x8000a884:  9782              jalr                    ra,a5,0

----------------
IN: 
Priv: 3; Virt: 0
0x80012e04:  1101              addi                    sp,sp,-32
0x80012e06:  e822              sd                      s0,16(sp)
0x80012e08:  ec06              sd                      ra,24(sp)
0x80012e0a:  e426              sd                      s1,8(sp)
0x80012e0c:  e04a              sd                      s2,0(sp)
0x80012e0e:  1000              addi                    s0,sp,32
0x80012e10:  f14027f3          csrrs                   a5,mhartid,zero

----------------
IN: 
Priv: 3; Virt: 0
0x80012e14:  02079713          slli                    a4,a5,32
0x80012e18:  01d75693          srli                    a3,a4,29
0x80012e1c:  0001d717          auipc                   a4,29                   # 0x8002fe1c
0x80012e20:  51c70713          addi                    a4,a4,1308
0x80012e24:  9736              add                     a4,a4,a3
0x80012e26:  00073903          ld                      s2,0(a4)
0x80012e2a:  02090c63          beqz                    s2,56                   # 0x80012e62

----------------
IN: 
Priv: 3; Virt: 0
0x80012e2e:  854a              mv                      a0,s2
0x80012e30:  0007849b          sext.w                  s1,a5
0x80012e34:  f33ff0ef          jal                     ra,-206                 # 0x80012d66

----------------
IN: 
Priv: 3; Virt: 0
0x80012d66:  595c              lw                      a5,52(a0)
0x80012d68:  e3c1              bnez                    a5,128                  # 0x80012de8

----------------
IN: 
Priv: 3; Virt: 0
0x80012d6a:  7139              addi                    sp,sp,-64
0x80012d6c:  f822              sd                      s0,48(sp)
0x80012d6e:  f426              sd                      s1,40(sp)
0x80012d70:  fc06              sd                      ra,56(sp)
0x80012d72:  f04a              sd                      s2,32(sp)
0x80012d74:  ec4e              sd                      s3,24(sp)
0x80012d76:  e852              sd                      s4,16(sp)
0x80012d78:  e456              sd                      s5,8(sp)
0x80012d7a:  0080              addi                    s0,sp,64
0x80012d7c:  03853903          ld                      s2,56(a0)
0x80012d80:  84aa              mv                      s1,a0
0x80012d82:  04090a63          beqz                    s2,84                   # 0x80012dd6

----------------
IN: 
Priv: 3; Virt: 0
0x80012dd6:  70e2              ld                      ra,56(sp)
0x80012dd8:  7442              ld                      s0,48(sp)
0x80012dda:  74a2              ld                      s1,40(sp)
0x80012ddc:  7902              ld                      s2,32(sp)
0x80012dde:  69e2              ld                      s3,24(sp)
0x80012de0:  6a42              ld                      s4,16(sp)
0x80012de2:  6aa2              ld                      s5,8(sp)
0x80012de4:  6121              addi                    sp,sp,64
0x80012de6:  8082              ret                     

----------------
IN: 
Priv: 3; Virt: 0
0x80012e38:  02892783          lw                      a5,40(s2)
0x80012e3c:  01893603          ld                      a2,24(s2)
0x80012e40:  05093703          ld                      a4,80(s2)
0x80012e44:  40f487bb          subw                    a5,s1,a5
0x80012e48:  1782              slli                    a5,a5,32
0x80012e4a:  83f5              srli                    a5,a5,29
0x80012e4c:  4505              addi                    a0,zero,1
0x80012e4e:  963e              add                     a2,a2,a5
0x80012e50:  55fd              addi                    a1,zero,-1
0x80012e52:  9702              jalr                    ra,a4,0

----------------
IN: 
Priv: 3; Virt: 0
0x80012c68:  1141              addi                    sp,sp,-16
0x80012c6a:  e422              sd                      s0,8(sp)
0x80012c6c:  0800              addi                    s0,sp,16
0x80012c6e:  e20c              sd                      a1,0(a2)
0x80012c70:  6422              ld                      s0,8(sp)
0x80012c72:  0141              addi                    sp,sp,16
0x80012c74:  8082              ret                     

----------------
IN: 
Priv: 3; Virt: 0
0x80012c6e:  e20c              sd                      a1,0(a2)

----------------
IN: 
Priv: 3; Virt: 0
0x80012c70:  6422              ld                      s0,8(sp)
0x80012c72:  0141              addi                    sp,sp,16
0x80012c74:  8082              ret                     

----------------
IN: 
Priv: 3; Virt: 0
0x80012e54:  4501              mv                      a0,zero
0x80012e56:  60e2              ld                      ra,24(sp)
0x80012e58:  6442              ld                      s0,16(sp)
0x80012e5a:  64a2              ld                      s1,8(sp)
0x80012e5c:  6902              ld                      s2,0(sp)
0x80012e5e:  6105              addi                    sp,sp,32
0x80012e60:  8082              ret                     

----------------
IN: 
Priv: 3; Virt: 0
0x8000a886:  70a6              ld                      ra,104(sp)
0x8000a888:  7406              ld                      s0,96(sp)
0x8000a88a:  64e6              ld                      s1,88(sp)
0x8000a88c:  6946              ld                      s2,80(sp)
0x8000a88e:  69a6              ld                      s3,72(sp)
0x8000a890:  6a06              ld                      s4,64(sp)
0x8000a892:  7ae2              ld                      s5,56(sp)
0x8000a894:  7b42              ld                      s6,48(sp)
0x8000a896:  7ba2              ld                      s7,40(sp)
0x8000a898:  7c02              ld                      s8,32(sp)
0x8000a89a:  6ce2              ld                      s9,24(sp)
0x8000a89c:  6d42              ld                      s10,16(sp)
0x8000a89e:  6165              addi                    sp,sp,112
0x8000a8a0:  8082              ret                     

----------------
IN: 
Priv: 3; Virt: 0
0x80002c18:  70a2              ld                      ra,40(sp)
0x80002c1a:  7402              ld                      s0,32(sp)
0x80002c1c:  64e2              ld                      s1,24(sp)
0x80002c1e:  6942              ld                      s2,16(sp)
0x80002c20:  69a2              ld                      s3,8(sp)
0x80002c22:  6a02              ld                      s4,0(sp)
0x80002c24:  6145              addi                    sp,sp,48
0x80002c26:  8082              ret                     

----------------
IN: 
Priv: 3; Virt: 0
0x800008e4:  862a              mv                      a2,a0
0x800008e6:  cd09              beqz                    a0,26                   # 0x80000900

----------------
IN: 
Priv: 3; Virt: 0
0x80000900:  264040ef          jal                     ra,16996                # 0x80004b64

----------------
IN: 
Priv: 3; Virt: 0
0x80004b64:  7179              addi                    sp,sp,-48
0x80004b66:  f022              sd                      s0,32(sp)
0x80004b68:  e44e              sd                      s3,8(sp)
0x80004b6a:  f406              sd                      ra,40(sp)
0x80004b6c:  ec26              sd                      s1,24(sp)
0x80004b6e:  e84a              sd                      s2,16(sp)
0x80004b70:  1800              addi                    s0,sp,48
0x80004b72:  00014997          auipc                   s3,20                   # 0x80018b72
0x80004b76:  76e9b983          ld                      s3,1902(s3)
0x80004b7a:  0009b783          ld                      a5,0(s3)
0x80004b7e:  cb85              beqz                    a5,48                   # 0x80004bae

----------------
IN: 
Priv: 3; Virt: 0
0x80004b80:  00015497          auipc                   s1,21                   # 0x80019b80
0x80004b84:  8204b483          ld                      s1,-2016(s1)
0x80004b88:  4901              mv                      s2,zero
0x80004b8a:  a029              j                       10                      # 0x80004b94

----------------
IN: 
Priv: 3; Virt: 0
0x80004b94:  6088              ld                      a0,0(s1)
0x80004b96:  0905              addi                    s2,s2,1
0x80004b98:  04a1              addi                    s1,s1,8
0x80004b9a:  e41ff0ef          jal                     ra,-448                 # 0x800049da

----------------
IN: 
Priv: 3; Virt: 0
0x800049da:  1141              addi                    sp,sp,-16
0x800049dc:  e422              sd                      s0,8(sp)
0x800049de:  0800              addi                    s0,sp,16
0x800049e0:  c939              beqz                    a0,86                   # 0x80004a36

----------------
IN: 
Priv: 3; Virt: 0
0x800049e2:  882a              mv                      a6,a0
0x800049e4:  01083583          ld                      a1,16(a6)
0x800049e8:  6d08              ld                      a0,24(a0)
0x800049ea:  04b56663          bgtu                    a1,a0,76                # 0x80004a36

----------------
IN: 
Priv: 3; Virt: 0
0x800049ee:  02883783          ld                      a5,40(a6)
0x800049f2:  c3b1              beqz                    a5,68                   # 0x80004a36

----------------
IN: 
Priv: 3; Virt: 0
0x800049f4:  00014617          auipc                   a2,20                   # 0x800189f4
0x800049f8:  8a460613          addi                    a2,a2,-1884
0x800049fc:  621c              ld                      a5,0(a2)
0x800049fe:  00c78b63          beq                     a5,a2,22                # 0x80004a14

----------------
IN: 
Priv: 3; Virt: 0
0x80004a14:  01083023          sd                      a6,0(a6)
0x80004a18:  01083423          sd                      a6,8(a6)
0x80004a1c:  661c              ld                      a5,8(a2)
0x80004a1e:  00c83023          sd                      a2,0(a6)
0x80004a22:  4501              mv                      a0,zero
0x80004a24:  00f83423          sd                      a5,8(a6)
0x80004a28:  0107b023          sd                      a6,0(a5)
0x80004a2c:  01063423          sd                      a6,8(a2)
0x80004a30:  6422              ld                      s0,8(sp)
0x80004a32:  0141              addi                    sp,sp,16
0x80004a34:  8082              ret                     

----------------
IN: 
Priv: 3; Virt: 0
0x80004b9e:  d57d              beqz                    a0,-18                  # 0x80004b8c

----------------
IN: 
Priv: 3; Virt: 0
0x80004b8c:  0009b783          ld                      a5,0(s3)
0x80004b90:  00f97f63          bleu                    a5,s2,30                # 0x80004bae

----------------
IN: 
Priv: 3; Virt: 0
0x80004a02:  6f98              ld                      a4,24(a5)
0x80004a04:  6b94              ld                      a3,16(a5)
0x80004a06:  00b76463          bgtu                    a1,a4,8                 # 0x80004a0e

----------------
IN: 
Priv: 3; Virt: 0
0x80004a0a:  02d57663          bleu                    a3,a0,44                # 0x80004a36

----------------
IN: 
Priv: 3; Virt: 0
0x80004a0e:  639c              ld                      a5,0(a5)
0x80004a10:  fec799e3          bne                     a5,a2,-14               # 0x80004a02

----------------
IN: 
Priv: 3; Virt: 0
0x80004bae:  70a2              ld                      ra,40(sp)
0x80004bb0:  7402              ld                      s0,32(sp)
0x80004bb2:  64e2              ld                      s1,24(sp)
0x80004bb4:  6942              ld                      s2,16(sp)
0x80004bb6:  69a2              ld                      s3,8(sp)
0x80004bb8:  4501              mv                      a0,zero
0x80004bba:  6145              addi                    sp,sp,48
0x80004bbc:  8082              ret                     

----------------
IN: 
Priv: 3; Virt: 0
0x80000904:  862a              mv                      a2,a0
0x80000906:  cd09              beqz                    a0,26                   # 0x80000920

----------------
IN: 
Priv: 3; Virt: 0
0x80000920:  85ca              mv                      a1,s2
0x80000922:  8526              mv                      a0,s1
0x80000924:  29a060ef          jal                     ra,25242                # 0x80006bbe

----------------
IN: 
Priv: 3; Virt: 0
0x80006bbe:  715d              addi                    sp,sp,-80
0x80006bc0:  e0a2              sd                      s0,64(sp)
0x80006bc2:  e85a              sd                      s6,16(sp)
0x80006bc4:  e45e              sd                      s7,8(sp)
0x80006bc6:  e486              sd                      ra,72(sp)
0x80006bc8:  fc26              sd                      s1,56(sp)
0x80006bca:  f84a              sd                      s2,48(sp)
0x80006bcc:  f44e              sd                      s3,40(sp)
0x80006bce:  f052              sd                      s4,32(sp)
0x80006bd0:  ec56              sd                      s5,24(sp)
0x80006bd2:  e062              sd                      s8,0(sp)
0x80006bd4:  0880              addi                    s0,sp,80
0x80006bd6:  791c              ld                      a5,48(a0)
0x80006bd8:  8b2a              mv                      s6,a0
0x80006bda:  8bae              mv                      s7,a1
0x80006bdc:  c799              beqz                    a5,14                   # 0x80006bea

----------------
IN: 
Priv: 3; Virt: 0
0x80006bde:  6fbc              ld                      a5,88(a5)
0x80006be0:  63bc              ld                      a5,64(a5)
0x80006be2:  c781              beqz                    a5,8                    # 0x80006bea

----------------
IN: 
Priv: 3; Virt: 0
0x80006be4:  9782              jalr                    ra,a5,0

----------------
IN: 
Priv: 3; Virt: 0
0x80003a96:  1141              addi                    sp,sp,-16
0x80003a98:  e022              sd                      s0,0(sp)
0x80003a9a:  e406              sd                      ra,8(sp)
0x80003a9c:  0800              addi                    s0,sp,16
0x80003a9e:  340027f3          csrrs                   a5,mscratch,zero

----------------
IN: 
Priv: 3; Virt: 0
0x80003aa2:  6b88              ld                      a0,16(a5)
0x80003aa4:  2be0c0ef          jal                     ra,49854                # 0x8000fd62

----------------
IN: 
Priv: 3; Virt: 0
0x8000fd62:  0e050663          beqz                    a0,236                  # 0x8000fe4e

----------------
IN: 
Priv: 3; Virt: 0
0x8000fd66:  7139              addi                    sp,sp,-64
0x8000fd68:  f822              sd                      s0,48(sp)
0x8000fd6a:  f04a              sd                      s2,32(sp)
0x8000fd6c:  fc06              sd                      ra,56(sp)
0x8000fd6e:  f426              sd                      s1,40(sp)
0x8000fd70:  ec4e              sd                      s3,24(sp)
0x8000fd72:  e852              sd                      s4,16(sp)
0x8000fd74:  0080              addi                    s0,sp,64
0x8000fd76:  00006597          auipc                   a1,6                    # 0x80015d76
0x8000fd7a:  bfa58593          addi                    a1,a1,-1030
0x8000fd7e:  892a              mv                      s2,a0
0x8000fd80:  fe8fd0ef          jal                     ra,-10264               # 0x8000d568

----------------
IN: 
Priv: 3; Virt: 0
0x8000fd84:  85aa              mv                      a1,a0
0x8000fd86:  08054063          bltz                    a0,128                  # 0x8000fe06

----------------
IN: 
Priv: 3; Virt: 0
0x8000fd8a:  57fd              addi                    a5,zero,-1
0x8000fd8c:  fcf42223          sw                      a5,-60(s0)
0x8000fd90:  f14029f3          csrrs                   s3,mhartid,zero

----------------
IN: 
Priv: 3; Virt: 0
0x8000fd94:  854a              mv                      a0,s2
0x8000fd96:  a1dfc0ef          jal                     ra,-13796               # 0x8000c7b2

----------------
IN: 
Priv: 3; Virt: 0
0x8000c7b2:  1101              addi                    sp,sp,-32
0x8000c7b4:  e822              sd                      s0,16(sp)
0x8000c7b6:  ec06              sd                      ra,24(sp)
0x8000c7b8:  1000              addi                    s0,sp,32
0x8000c7ba:  fec40613          addi                    a2,s0,-20
0x8000c7be:  fe042623          sw                      zero,-20(s0)
0x8000c7c2:  f2bff0ef          jal                     ra,-214                 # 0x8000c6ec

----------------
IN: 
Priv: 3; Virt: 0
0x8000c7c6:  00054b63          bltz                    a0,22                   # 0x8000c7dc

----------------
IN: 
Priv: 3; Virt: 0
0x8000c7ca:  fec42703          lw                      a4,-20(s0)
0x8000c7ce:  4785              addi                    a5,zero,1
0x8000c7d0:  00f71663          bne                     a4,a5,12                # 0x8000c7dc

----------------
IN: 
Priv: 3; Virt: 0
0x8000c7d4:  60e2              ld                      ra,24(sp)
0x8000c7d6:  6442              ld                      s0,16(sp)
0x8000c7d8:  6105              addi                    sp,sp,32
0x8000c7da:  8082              ret                     

----------------
IN: 
Priv: 3; Virt: 0
0x8000fd9a:  2981              sext.w                  s3,s3
0x8000fd9c:  84aa              mv                      s1,a0
0x8000fd9e:  04054b63          bltz                    a0,86                   # 0x8000fdf4

----------------
IN: 
Priv: 3; Virt: 0
0x8000fda2:  fc840a13          addi                    s4,s0,-56
0x8000fda6:  a801              j                       16                      # 0x8000fdb6

----------------
IN: 
Priv: 3; Virt: 0
0x8000fdb6:  85a6              mv                      a1,s1
0x8000fdb8:  8652              mv                      a2,s4
0x8000fdba:  854a              mv                      a0,s2
0x8000fdbc:  327000ef          jal                     ra,2854                 # 0x800108e2

----------------
IN: 
Priv: 3; Virt: 0
0x8000fdc0:  f565              bnez                    a0,-24                  # 0x8000fda8

----------------
IN: 
Priv: 3; Virt: 0
0x8000fdc2:  fc842783          lw                      a5,-56(s0)
0x8000fdc6:  ff3791e3          bne                     a5,s3,-30               # 0x8000fda8

----------------
IN: 
Priv: 3; Virt: 0
0x8000fdca:  85a6              mv                      a1,s1
0x8000fdcc:  854a              mv                      a0,s2
0x8000fdce:  2a3000ef          jal                     ra,2722                 # 0x80010870

----------------
IN: 
Priv: 3; Virt: 0
0x80010870:  7179              addi                    sp,sp,-48
0x80010872:  f022              sd                      s0,32(sp)
0x80010874:  f406              sd                      ra,40(sp)
0x80010876:  1800              addi                    s0,sp,48
0x80010878:  ec26              sd                      s1,24(sp)
0x8001087a:  fdc40693          addi                    a3,s0,-36
0x8001087e:  00006617          auipc                   a2,6                    # 0x8001687e
0x80010882:  5f260613          addi                    a2,a2,1522
0x80010886:  a1dfc0ef          jal                     ra,-13796               # 0x8000d2a2

----------------
IN: 
Priv: 3; Virt: 0
0x8001088a:  c10d              beqz                    a0,34                   # 0x800108ac

----------------
IN: 
Priv: 3; Virt: 0
0x8001088c:  84aa              mv                      s1,a0
0x8001088e:  00006517          auipc                   a0,6                    # 0x8001688e
0x80010892:  77250513          addi                    a0,a0,1906
0x80010896:  ce3f10ef          jal                     ra,-58142               # 0x80002578

----------------
IN: 
Priv: 3; Virt: 0
0x8001089a:  862a              mv                      a2,a0
0x8001089c:  00006597          auipc                   a1,6                    # 0x8001689c
0x800108a0:  76458593          addi                    a1,a1,1892
0x800108a4:  8526              mv                      a0,s1
0x800108a6:  c9ff10ef          jal                     ra,-58210               # 0x80002544

----------------
IN: 
Priv: 3; Virt: 0
0x800108aa:  e519              bnez                    a0,14                   # 0x800108b8

----------------
IN: 
Priv: 3; Virt: 0
0x800108ac:  70a2              ld                      ra,40(sp)
0x800108ae:  7402              ld                      s0,32(sp)
0x800108b0:  64e2              ld                      s1,24(sp)
0x800108b2:  4505              addi                    a0,zero,1
0x800108b4:  6145              addi                    sp,sp,48
0x800108b6:  8082              ret                     

----------------
IN: 
Priv: 3; Virt: 0
0x8000fdd2:  d979              beqz                    a0,-42                  # 0x8000fda8

----------------
IN: 
Priv: 3; Virt: 0
0x8000fdd4:  fcc40693          addi                    a3,s0,-52
0x8000fdd8:  00007617          auipc                   a2,7                    # 0x80016dd8
0x8000fddc:  16060613          addi                    a2,a2,352
0x8000fde0:  85a6              mv                      a1,s1
0x8000fde2:  854a              mv                      a0,s2
0x8000fde4:  cbefd0ef          jal                     ra,-11074               # 0x8000d2a2

----------------
IN: 
Priv: 3; Virt: 0
0x8000fde8:  c511              beqz                    a0,12                   # 0x8000fdf4

----------------
IN: 
Priv: 3; Virt: 0
0x8000fdf4:  00000617          auipc                   a2,0                    # 0x8000fdf4
0x8000fdf8:  84c60613          addi                    a2,a2,-1972
0x8000fdfc:  fc440593          addi                    a1,s0,-60
0x8000fe00:  854a              mv                      a0,s2
0x8000fe02:  e7eff0ef          jal                     ra,-2434                # 0x8000f480

----------------
IN: 
Priv: 3; Virt: 0
0x8000f480:  c951              beqz                    a0,148                  # 0x8000f514

----------------
IN: 
Priv: 3; Virt: 0
0x8000f482:  7139              addi                    sp,sp,-64
0x8000f484:  f822              sd                      s0,48(sp)
0x8000f486:  e852              sd                      s4,16(sp)
0x8000f488:  fc06              sd                      ra,56(sp)
0x8000f48a:  f426              sd                      s1,40(sp)
0x8000f48c:  f04a              sd                      s2,32(sp)
0x8000f48e:  ec4e              sd                      s3,24(sp)
0x8000f490:  e456              sd                      s5,8(sp)
0x8000f492:  0080              addi                    s0,sp,64
0x8000f494:  8a32              mv                      s4,a2
0x8000f496:  ce2d              beqz                    a2,122                  # 0x8000f510

----------------
IN: 
Priv: 3; Virt: 0
0x8000f498:  89ae              mv                      s3,a1
0x8000f49a:  00007597          auipc                   a1,7                    # 0x8001649a
0x8000f49e:  5a658593          addi                    a1,a1,1446
0x8000f4a2:  892a              mv                      s2,a0
0x8000f4a4:  8c4fe0ef          jal                     ra,-7996                # 0x8000d568

----------------
IN: 
Priv: 3; Virt: 0
0x8000f4a8:  85aa              mv                      a1,a0
0x8000f4aa:  04054963          bltz                    a0,82                   # 0x8000f4fc

----------------
IN: 
Priv: 3; Virt: 0
0x8000f4ae:  00008617          auipc                   a2,8                    # 0x800174ae
0x8000f4b2:  9ca60613          addi                    a2,a2,-1590
0x8000f4b6:  854a              mv                      a0,s2
0x8000f4b8:  ee4fe0ef          jal                     ra,-6428                # 0x8000db9c

----------------
IN: 
Priv: 3; Virt: 0
0x8000f4bc:  85aa              mv                      a1,a0
0x8000f4be:  02054f63          bltz                    a0,62                   # 0x8000f4fc

----------------
IN: 
Priv: 3; Virt: 0
0x8000f4fc:  4501              mv                      a0,zero
0x8000f4fe:  70e2              ld                      ra,56(sp)
0x8000f500:  7442              ld                      s0,48(sp)
0x8000f502:  74a2              ld                      s1,40(sp)
0x8000f504:  7902              ld                      s2,32(sp)
0x8000f506:  69e2              ld                      s3,24(sp)
0x8000f508:  6a42              ld                      s4,16(sp)
0x8000f50a:  6aa2              ld                      s5,8(sp)
0x8000f50c:  6121              addi                    sp,sp,64
0x8000f50e:  8082              ret                     

----------------
IN: 
Priv: 3; Virt: 0
0x8000fe06:  70e2              ld                      ra,56(sp)
0x8000fe08:  7442              ld                      s0,48(sp)
0x8000fe0a:  74a2              ld                      s1,40(sp)
0x8000fe0c:  7902              ld                      s2,32(sp)
0x8000fe0e:  69e2              ld                      s3,24(sp)
0x8000fe10:  6a42              ld                      s4,16(sp)
0x8000fe12:  6121              addi                    sp,sp,64
0x8000fe14:  8082              ret                     

----------------
IN: 
Priv: 3; Virt: 0
0x80003aa8:  60a2              ld                      ra,8(sp)
0x80003aaa:  6402              ld                      s0,0(sp)
0x80003aac:  0141              addi                    sp,sp,16
0x80003aae:  8082              ret                     

----------------
IN: 
Priv: 3; Virt: 0
0x80006be6:  8c2a              mv                      s8,a0
0x80006be8:  e565              bnez                    a0,232                  # 0x80006cd0

----------------
IN: 
Priv: 3; Virt: 0
0x80006bea:  00022a97          auipc                   s5,34                   # 0x80028bea
0x80006bee:  0bea8a93          addi                    s5,s5,190
0x80006bf2:  018ab903          ld                      s2,24(s5)
0x80006bf6:  00022997          auipc                   s3,34                   # 0x80028bf6
0x80006bfa:  0d298993          addi                    s3,s3,210
0x80006bfe:  07f00a13          addi                    s4,zero,127
0x80006c02:  00091863          bnez                    s2,16                   # 0x80006c12

----------------
IN: 
Priv: 3; Virt: 0
0x80006c12:  06892483          lw                      s1,104(s2)
0x80006c16:  4064d793          srai                    a5,s1,6
0x80006c1a:  078e              slli                    a5,a5,3
0x80006c1c:  03f4f613          andi                    a2,s1,63
0x80006c20:  fe9a64e3          bgtu                    s1,s4,-24               # 0x80006c08

----------------
IN: 
Priv: 3; Virt: 0
0x80006c24:  05893703          ld                      a4,88(s2)
0x80006c28:  02049693          slli                    a3,s1,32
0x80006c2c:  82f5              srli                    a3,a3,29
0x80006c2e:  973e              add                     a4,a4,a5
0x80006c30:  6318              ld                      a4,0(a4)
0x80006c32:  96d6              add                     a3,a3,s5
0x80006c34:  00c75733          srl                     a4,a4,a2
0x80006c38:  8b05              andi                    a4,a4,1
0x80006c3a:  d779              beqz                    a4,-50                  # 0x80006c08

----------------
IN: 
Priv: 3; Virt: 0
0x80006c3c:  1206b703          ld                      a4,288(a3)
0x80006c40:  fd2714e3          bne                     a4,s2,-56               # 0x80006c08

----------------
IN: 
Priv: 3; Virt: 0
0x80006c44:  00890713          addi                    a4,s2,8
0x80006c48:  97ba              add                     a5,a5,a4
0x80006c4a:  639c              ld                      a5,0(a5)
0x80006c4c:  00c7d633          srl                     a2,a5,a2
0x80006c50:  8a05              andi                    a2,a2,1
0x80006c52:  da5d              beqz                    a2,-74                  # 0x80006c08

----------------
IN: 
Priv: 3; Virt: 0
0x80006c54:  07893683          ld                      a3,120(s2)
0x80006c58:  8626              mv                      a2,s1
0x80006c5a:  4581              mv                      a1,zero
0x80006c5c:  855a              mv                      a0,s6
0x80006c5e:  05749263          bne                     s1,s7,68                # 0x80006ca2

----------------
IN: 
Priv: 3; Virt: 0
0x80006c62:  00db3c23          sd                      a3,24(s6)
0x80006c66:  08093783          ld                      a5,128(s2)
0x80006c6a:  09a1              addi                    s3,s3,8
0x80006c6c:  02fb3023          sd                      a5,32(s6)
0x80006c70:  07093783          ld                      a5,112(s2)
0x80006c74:  00fb3823          sd                      a5,16(s6)
0x80006c78:  ff89b903          ld                      s2,-8(s3)
0x80006c7c:  f8091be3          bnez                    s2,-106                 # 0x80006c12

----------------
IN: 
Priv: 3; Virt: 0
0x80006c80:  4785              addi                    a5,zero,1
0x80006c82:  10faac23          sw                      a5,280(s5)
0x80006c86:  4c01              mv                      s8,zero
0x80006c88:  60a6              ld                      ra,72(sp)
0x80006c8a:  6406              ld                      s0,64(sp)
0x80006c8c:  74e2              ld                      s1,56(sp)
0x80006c8e:  7942              ld                      s2,48(sp)
0x80006c90:  79a2              ld                      s3,40(sp)
0x80006c92:  7a02              ld                      s4,32(sp)
0x80006c94:  6ae2              ld                      s5,24(sp)
0x80006c96:  6b42              ld                      s6,16(sp)
0x80006c98:  6ba2              ld                      s7,8(sp)
0x80006c9a:  8562              mv                      a0,s8
0x80006c9c:  6c02              ld                      s8,0(sp)
0x80006c9e:  6161              addi                    sp,sp,80
0x80006ca0:  8082              ret                     

----------------
IN: 
Priv: 3; Virt: 0
0x80000928:  862a              mv                      a2,a0
0x8000092a:  cd09              beqz                    a0,26                   # 0x80000944

----------------
IN: 
Priv: 3; Virt: 0
0x80000944:  8526              mv                      a0,s1
0x80000946:  05d060ef          jal                     ra,26716                # 0x800071a2

----------------
IN: 
Priv: 3; Virt: 0
0x800071a2:  715d              addi                    sp,sp,-80
0x800071a4:  e0a2              sd                      s0,64(sp)
0x800071a6:  e486              sd                      ra,72(sp)
0x800071a8:  fc26              sd                      s1,56(sp)
0x800071aa:  f84a              sd                      s2,48(sp)
0x800071ac:  f44e              sd                      s3,40(sp)
0x800071ae:  f052              sd                      s4,32(sp)
0x800071b0:  ec56              sd                      s5,24(sp)
0x800071b2:  e85a              sd                      s6,16(sp)
0x800071b4:  e45e              sd                      s7,8(sp)
0x800071b6:  e062              sd                      s8,0(sp)
0x800071b8:  0880              addi                    s0,sp,80
0x800071ba:  f1402773          csrrs                   a4,mhartid,zero

----------------
IN: 
Priv: 3; Virt: 0
0x800071be:  00022497          auipc                   s1,34                   # 0x800291be
0x800071c2:  1ba48493          addi                    s1,s1,442
0x800071c6:  609c              ld                      a5,0(s1)
0x800071c8:  97aa              add                     a5,a5,a0
0x800071ca:  0107a983          lw                      s3,16(a5)
0x800071ce:  00099f63          bnez                    s3,30                   # 0x800071ec

----------------
IN: 
Priv: 3; Virt: 0
0x800071ec:  1702              slli                    a4,a4,32
0x800071ee:  8aaa              mv                      s5,a0
0x800071f0:  9301              srli                    a4,a4,32
0x800071f2:  6f88              ld                      a0,24(a5)
0x800071f4:  070e              slli                    a4,a4,3
0x800071f6:  00012797          auipc                   a5,18                   # 0x800191f6
0x800071fa:  1027b783          ld                      a5,258(a5)
0x800071fe:  973e              add                     a4,a4,a5
0x80007200:  00073a03          ld                      s4,0(a4)
0x80007204:  4c4020ef          jal                     ra,9412                 # 0x800096c8

----------------
IN: 
Priv: 3; Virt: 0
0x80007208:  609c              ld                      a5,0(s1)
0x8000720a:  060a3483          ld                      s1,96(s4)
0x8000720e:  9abe              add                     s5,s5,a5
0x80007210:  014aaa83          lw                      s5,20(s5)
0x80007214:  6094              ld                      a3,0(s1)
0x80007216:  fffa879b          addiw                   a5,s5,-1
0x8000721a:  4a85              addi                    s5,zero,1
0x8000721c:  00fa97b3          sll                     a5,s5,a5
0x80007220:  fff78a93          addi                    s5,a5,-1
0x80007224:  00faeab3          or                      s5,s5,a5
0x80007228:  c6b5              beqz                    a3,108                  # 0x80007294

----------------
IN: 
Priv: 3; Virt: 0
0x8000722a:  02051913          slli                    s2,a0,32
0x8000722e:  02095913          srli                    s2,s2,32
0x80007232:  4c01              mv                      s8,zero
0x80007234:  0a61              addi                    s4,s4,24
0x80007236:  0000fb97          auipc                   s7,15                   # 0x80016236
0x8000723a:  59ab8b93          addi                    s7,s7,1434
0x8000723e:  0000fb17          auipc                   s6,15                   # 0x8001623e
0x80007242:  5bab0b13          addi                    s6,s6,1466
0x80007246:  689c              ld                      a5,16(s1)
0x80007248:  0027f713          andi                    a4,a5,2
0x8000724c:  0017f593          andi                    a1,a5,1
0x80007250:  c701              beqz                    a4,8                    # 0x80007258

----------------
IN: 
Priv: 3; Virt: 0
0x80007258:  0047f713          andi                    a4,a5,4
0x8000725c:  c319              beqz                    a4,6                    # 0x80007262

----------------
IN: 
Priv: 3; Virt: 0
0x80007262:  8ba1              andi                    a5,a5,8
0x80007264:  c399              beqz                    a5,6                    # 0x8000726a

----------------
IN: 
Priv: 3; Virt: 0
0x8000726a:  0126e763          bgtu                    s2,a3,14                # 0x80007278

----------------
IN: 
Priv: 3; Virt: 0
0x8000726e:  6490              ld                      a2,8(s1)
0x80007270:  00265793          srli                    a5,a2,2
0x80007274:  0357ef63          bgtu                    s5,a5,62                # 0x800072b2

----------------
IN: 
Priv: 3; Virt: 0
0x800072b2:  1582              slli                    a1,a1,32
0x800072b4:  8562              mv                      a0,s8
0x800072b6:  9181              srli                    a1,a1,32
0x800072b8:  2c05              addiw                   s8,s8,1
0x800072ba:  a94fd0ef          jal                     ra,-11628               # 0x8000454e

----------------
IN: 
Priv: 3; Virt: 0
0x8000454e:  03f00793          addi                    a5,zero,63
0x80004552:  0ca7ee63          bgtu                    a0,a5,220               # 0x8000462e

----------------
IN: 
Priv: 3; Virt: 0
0x80004556:  715d              addi                    sp,sp,-80
0x80004558:  e0a2              sd                      s0,64(sp)
0x8000455a:  e85a              sd                      s6,16(sp)
0x8000455c:  e486              sd                      ra,72(sp)
0x8000455e:  fc26              sd                      s1,56(sp)
0x80004560:  f84a              sd                      s2,48(sp)
0x80004562:  f44e              sd                      s3,40(sp)
0x80004564:  f052              sd                      s4,32(sp)
0x80004566:  ec56              sd                      s5,24(sp)
0x80004568:  e45e              sd                      s7,8(sp)
0x8000456a:  e062              sd                      s8,0(sp)
0x8000456c:  0880              addi                    s0,sp,80
0x8000456e:  ffe68793          addi                    a5,a3,-2
0x80004572:  03e00713          addi                    a4,zero,62
0x80004576:  8b36              mv                      s6,a3
0x80004578:  0af76d63          bgtu                    a5,a4,186               # 0x80004632

----------------
IN: 
Priv: 3; Virt: 0
0x8000457c:  00255a9b          srliw                   s5,a0,2
0x80004580:  3a0a8a9b          addiw                   s5,s5,928
0x80004584:  00351b9b          slliw                   s7,a0,3
0x80004588:  ffeafa93          andi                    s5,s5,-2
0x8000458c:  038bfb93          andi                    s7,s7,56
0x80004590:  0ff00493          addi                    s1,zero,255
0x80004594:  4789              addi                    a5,zero,2
0x80004596:  89b2              mv                      s3,a2
0x80004598:  2a81              sext.w                  s5,s5
0x8000459a:  3b050a1b          addiw                   s4,a0,944
0x8000459e:  fe75f913          andi                    s2,a1,-25
0x800045a2:  01749c33          sll                     s8,s1,s7
0x800045a6:  06f68663          beq                     a3,a5,108               # 0x80004612

----------------
IN: 
Priv: 3; Virt: 0
0x800045aa:  8556              mv                      a0,s5
0x800045ac:  80fff0ef          jal                     ra,-2034                # 0x80003dba

----------------
IN: 
Priv: 3; Virt: 0
0x80003dba:  3ef00793          addi                    a5,zero,1007
0x80003dbe:  02a7c963          bgt                     a0,a5,50                # 0x80003df0

----------------
IN: 
Priv: 3; Virt: 0
0x80003dc2:  31f00793          addi                    a5,zero,799
0x80003dc6:  3aa7d063          ble                     a0,a5,928               # 0x80004166

----------------
IN: 
Priv: 3; Virt: 0
0x80003dca:  ce05079b          addiw                   a5,a0,-800
0x80003dce:  0007869b          sext.w                  a3,a5
0x80003dd2:  0cf00713          addi                    a4,zero,207
0x80003dd6:  38d76863          bgtu                    a3,a4,912               # 0x80004166

----------------
IN: 
Priv: 3; Virt: 0
0x80003dda:  1782              slli                    a5,a5,32
0x80003ddc:  9381              srli                    a5,a5,32
0x80003dde:  00012717          auipc                   a4,18                   # 0x80015dde
0x80003de2:  bfa70713          addi                    a4,a4,-1030
0x80003de6:  078a              slli                    a5,a5,2
0x80003de8:  97ba              add                     a5,a5,a4
0x80003dea:  439c              lw                      a5,0(a5)
0x80003dec:  97ba              add                     a5,a5,a4
0x80003dee:  8782              jr                      a5

----------------
IN: 
Priv: 3; Virt: 0
0x800040ac:  3a002573          csrrs                   a0,pmpcfg3,zero

----------------
IN: 
Priv: 3; Virt: 0
0x800040b0:  8082              ret                     

----------------
IN: 
Priv: 3; Virt: 0
0x800045b0:  01896593          ori                     a1,s2,24
0x800045b4:  017595b3          sll                     a1,a1,s7
0x800045b8:  00a5c4b3          xor                     s1,a1,a0
0x800045bc:  0184f4b3          and                     s1,s1,s8
0x800045c0:  04000793          addi                    a5,zero,64
0x800045c4:  8ca9              xor                     s1,s1,a0
0x800045c6:  55fd              addi                    a1,zero,-1
0x800045c8:  02fb0163          beq                     s6,a5,34                # 0x800045ea

----------------
IN: 
Priv: 3; Virt: 0
0x800045cc:  4585              addi                    a1,zero,1
0x800045ce:  3b79              addiw                   s6,s6,-2
0x800045d0:  01659b33          sll                     s6,a1,s6
0x800045d4:  416007b3          neg                     a5,s6
0x800045d8:  0029d993          srli                    s3,s3,2
0x800045dc:  fffb0593          addi                    a1,s6,-1
0x800045e0:  0137f9b3          and                     s3,a5,s3
0x800045e4:  8185              srli                    a1,a1,1
0x800045e6:  0135e5b3          or                      a1,a1,s3
0x800045ea:  8552              mv                      a0,s4
0x800045ec:  b99ff0ef          jal                     ra,-1128                # 0x80004184

----------------
IN: 
Priv: 3; Virt: 0
0x80004416:  3b059073          csrrw                   zero,pmpaddr0,a1

----------------
IN: 
Priv: 3; Virt: 0
0x8000441a:  8082              ret                     

----------------
IN: 
Priv: 3; Virt: 0
0x800045f0:  8556              mv                      a0,s5
0x800045f2:  85a6              mv                      a1,s1
0x800045f4:  b91ff0ef          jal                     ra,-1136                # 0x80004184

----------------
IN: 
Priv: 3; Virt: 0
0x80004476:  3a059073          csrrw                   zero,pmpcfg3,a1

----------------
IN: 
Priv: 3; Virt: 0
0x8000447a:  8082              ret                     

----------------
IN: 
Priv: 3; Virt: 0
0x800045f8:  4501              mv                      a0,zero
0x800045fa:  60a6              ld                      ra,72(sp)
0x800045fc:  6406              ld                      s0,64(sp)
0x800045fe:  74e2              ld                      s1,56(sp)
0x80004600:  7942              ld                      s2,48(sp)
0x80004602:  79a2              ld                      s3,40(sp)
0x80004604:  7a02              ld                      s4,32(sp)
0x80004606:  6ae2              ld                      s5,24(sp)
0x80004608:  6b42              ld                      s6,16(sp)
0x8000460a:  6ba2              ld                      s7,8(sp)
0x8000460c:  6c02              ld                      s8,0(sp)
0x8000460e:  6161              addi                    sp,sp,80
0x80004610:  8082              ret                     

----------------
IN: 
Priv: 3; Virt: 0
0x800072be:  b7f1              j                       -52                     # 0x8000728a

----------------
IN: 
Priv: 3; Virt: 0
0x8000728a:  6c94              ld                      a3,24(s1)
0x8000728c:  04e1              addi                    s1,s1,24
0x8000728e:  c299              beqz                    a3,6                    # 0x80007294

----------------
IN: 
Priv: 3; Virt: 0
0x80007290:  fb3c6be3          bgtu                    s3,s8,-74               # 0x80007246

----------------
IN: 
Priv: 3; Virt: 0
0x80007246:  689c              ld                      a5,16(s1)
0x80007248:  0027f713          andi                    a4,a5,2
0x8000724c:  0017f593          andi                    a1,a5,1
0x80007250:  c701              beqz                    a4,8                    # 0x80007258

----------------
IN: 
Priv: 3; Virt: 0
0x80004410:  3b159073          csrrw                   zero,pmpaddr1,a1

----------------
IN: 
Priv: 3; Virt: 0
0x80004414:  8082              ret                     

----------------
IN: 
Priv: 3; Virt: 0
0x80007252:  0025e593          ori                     a1,a1,2
0x80007256:  2581              sext.w                  a1,a1
0x80007258:  0047f713          andi                    a4,a5,4
0x8000725c:  c319              beqz                    a4,6                    # 0x80007262

----------------
IN: 
Priv: 3; Virt: 0
0x8000725e:  0045e593          ori                     a1,a1,4
0x80007262:  8ba1              andi                    a5,a5,8
0x80007264:  c399              beqz                    a5,6                    # 0x8000726a

----------------
IN: 
Priv: 3; Virt: 0
0x800045ea:  8552              mv                      a0,s4
0x800045ec:  b99ff0ef          jal                     ra,-1128                # 0x80004184

----------------
IN: 
Priv: 3; Virt: 0
0x8000440a:  3b259073          csrrw                   zero,pmpaddr2,a1

----------------
IN: 
Priv: 3; Virt: 0
0x8000440e:  8082              ret                     

----------------
IN: 
Priv: 3; Virt: 0
0x80007294:  05300513          addi                    a0,zero,83
0x80007298:  969fc0ef          jal                     ra,-13976               # 0x80003c00

----------------
IN: 
Priv: 3; Virt: 0
0x8000729c:  d91d              beqz                    a0,-202                 # 0x800071d2

----------------
IN: 
Priv: 3; Virt: 0
0x8000729e:  12000073          sfence.vma              zero,zero
0x800072a2:  04800513          addi                    a0,zero,72
0x800072a6:  95bfc0ef          jal                     ra,-13990               # 0x80003c00

----------------
IN: 
Priv: 3; Virt: 0
0x800072aa:  d505              beqz                    a0,-216                 # 0x800071d2

----------------
IN: 
Priv: 3; Virt: 0
0x800072ac:  45c020ef          jal                     ra,9308                 # 0x80009708

----------------
IN: 
Priv: 3; Virt: 0
0x80009708:  62000073          illegal                 
0x8000970c:  8082              ret                     

----------------
IN: 
Priv: 3; Virt: 0
0x800072b0:  b70d              j                       -222                    # 0x800071d2

----------------
IN: 
Priv: 3; Virt: 0
0x800071d2:  60a6              ld                      ra,72(sp)
0x800071d4:  6406              ld                      s0,64(sp)
0x800071d6:  74e2              ld                      s1,56(sp)
0x800071d8:  7942              ld                      s2,48(sp)
0x800071da:  79a2              ld                      s3,40(sp)
0x800071dc:  7a02              ld                      s4,32(sp)
0x800071de:  6ae2              ld                      s5,24(sp)
0x800071e0:  6b42              ld                      s6,16(sp)
0x800071e2:  6ba2              ld                      s7,8(sp)
0x800071e4:  6c02              ld                      s8,0(sp)
0x800071e6:  4501              mv                      a0,zero
0x800071e8:  6161              addi                    sp,sp,80
0x800071ea:  8082              ret                     

----------------
IN: 
Priv: 3; Virt: 0
0x8000094a:  862a              mv                      a2,a0
0x8000094c:  2e051663          bnez                    a0,748                  # 0x80000c38

----------------
IN: 
Priv: 3; Virt: 0
0x80000950:  00098b63          beqz                    s3,22                   # 0x80000966

----------------
IN: 
Priv: 3; Virt: 0
0x80000954:  0589b783          ld                      a5,88(s3)
0x80000958:  6b9c              ld                      a5,16(a5)
0x8000095a:  c791              beqz                    a5,12                   # 0x80000966

----------------
IN: 
Priv: 3; Virt: 0
0x8000095c:  4505              addi                    a0,zero,1
0x8000095e:  9782              jalr                    ra,a5,0

----------------
IN: 
Priv: 3; Virt: 0
0x80003ae2:  e119              bnez                    a0,6                    # 0x80003ae8

----------------
IN: 
Priv: 3; Virt: 0
0x80003ae8:  1101              addi                    sp,sp,-32
0x80003aea:  e822              sd                      s0,16(sp)
0x80003aec:  ec06              sd                      ra,24(sp)
0x80003aee:  e426              sd                      s1,8(sp)
0x80003af0:  1000              addi                    s0,sp,32
0x80003af2:  42f070ef          jal                     ra,31790                # 0x8000b720

----------------
IN: 
Priv: 3; Virt: 0
0x8000b720:  7179              addi                    sp,sp,-48
0x8000b722:  f022              sd                      s0,32(sp)
0x8000b724:  f406              sd                      ra,40(sp)
0x8000b726:  ec26              sd                      s1,24(sp)
0x8000b728:  e84a              sd                      s2,16(sp)
0x8000b72a:  e44e              sd                      s3,8(sp)
0x8000b72c:  e052              sd                      s4,0(sp)
0x8000b72e:  1800              addi                    s0,sp,48
0x8000b730:  34002773          csrrs                   a4,mscratch,zero

----------------
IN: 
Priv: 3; Virt: 0
0x8000b734:  0000e997          auipc                   s3,14                   # 0x80019734
0x8000b738:  b8c9b983          ld                      s3,-1140(s3)
0x8000b73c:  0009b783          ld                      a5,0(s3)
0x8000b740:  01073a03          ld                      s4,16(a4)
0x8000b744:  c38d              beqz                    a5,34                   # 0x8000b766

----------------
IN: 
Priv: 3; Virt: 0
0x8000b746:  0000e917          auipc                   s2,14                   # 0x80019746
0x8000b74a:  b6a93903          ld                      s2,-1174(s2)
0x8000b74e:  4481              mv                      s1,zero
0x8000b750:  00093583          ld                      a1,0(s2)
0x8000b754:  8552              mv                      a0,s4
0x8000b756:  0485              addi                    s1,s1,1
0x8000b758:  f5fff0ef          jal                     ra,-162                 # 0x8000b6b6

----------------
IN: 
Priv: 3; Virt: 0
0x8000b6b6:  7179              addi                    sp,sp,-48
0x8000b6b8:  f022              sd                      s0,32(sp)
0x8000b6ba:  ec26              sd                      s1,24(sp)
0x8000b6bc:  e84a              sd                      s2,16(sp)
0x8000b6be:  f406              sd                      ra,40(sp)
0x8000b6c0:  1800              addi                    s0,sp,48
0x8000b6c2:  6190              ld                      a2,0(a1)
0x8000b6c4:  84ae              mv                      s1,a1
0x8000b6c6:  fd840693          addi                    a3,s0,-40
0x8000b6ca:  55fd              addi                    a1,zero,-1
0x8000b6cc:  892a              mv                      s2,a0
0x8000b6ce:  3f9040ef          jal                     ra,19448                # 0x800102c6

----------------
IN: 
Priv: 3; Virt: 0
0x8000b6d2:  04054463          bltz                    a0,72                   # 0x8000b71a

----------------
IN: 
Priv: 3; Virt: 0
0x8000b71a:  c1800493          addi                    s1,zero,-1000
0x8000b71e:  b7fd              j                       -18                     # 0x8000b70c

----------------
IN: 
Priv: 3; Virt: 0
0x8000b70c:  70a2              ld                      ra,40(sp)
0x8000b70e:  7402              ld                      s0,32(sp)
0x8000b710:  6942              ld                      s2,16(sp)
0x8000b712:  8526              mv                      a0,s1
0x8000b714:  64e2              ld                      s1,24(sp)
0x8000b716:  6145              addi                    sp,sp,48
0x8000b718:  8082              ret                     

----------------
IN: 
Priv: 3; Virt: 0
0x8000b75c:  0009b783          ld                      a5,0(s3)
0x8000b760:  0921              addi                    s2,s2,8
0x8000b762:  fef4e7e3          bgtu                    a5,s1,-18               # 0x8000b750

----------------
IN: 
Priv: 3; Virt: 0
0x8000b750:  00093583          ld                      a1,0(s2)
0x8000b754:  8552              mv                      a0,s4
0x8000b756:  0485              addi                    s1,s1,1
0x8000b758:  f5fff0ef          jal                     ra,-162                 # 0x8000b6b6

----------------
IN: 
Priv: 3; Virt: 0
0x8000b766:  70a2              ld                      ra,40(sp)
0x8000b768:  7402              ld                      s0,32(sp)
0x8000b76a:  64e2              ld                      s1,24(sp)
0x8000b76c:  6942              ld                      s2,16(sp)
0x8000b76e:  69a2              ld                      s3,8(sp)
0x8000b770:  6a02              ld                      s4,0(sp)
0x8000b772:  6145              addi                    sp,sp,48
0x8000b774:  8082              ret                     

----------------
IN: 
Priv: 3; Virt: 0
0x80003af6:  340027f3          csrrs                   a5,mscratch,zero

----------------
IN: 
Priv: 3; Virt: 0
0x80003afa:  6b84              ld                      s1,16(a5)
0x80003afc:  8526              mv                      a0,s1
0x80003afe:  1300e0ef          jal                     ra,57648                # 0x80011c2e

----------------
IN: 
Priv: 3; Virt: 0
0x80011c2e:  7159              addi                    sp,sp,-112
0x80011c30:  f0a2              sd                      s0,96(sp)
0x80011c32:  e8ca              sd                      s2,80(sp)
0x80011c34:  f486              sd                      ra,104(sp)
0x80011c36:  eca6              sd                      s1,88(sp)
0x80011c38:  e4ce              sd                      s3,72(sp)
0x80011c3a:  e0d2              sd                      s4,64(sp)
0x80011c3c:  fc56              sd                      s5,56(sp)
0x80011c3e:  f85a              sd                      s6,48(sp)
0x80011c40:  f45e              sd                      s7,40(sp)
0x80011c42:  f062              sd                      s8,32(sp)
0x80011c44:  ec66              sd                      s9,24(sp)
0x80011c46:  1880              addi                    s0,sp,112
0x80011c48:  892a              mv                      s2,a0
0x80011c4a:  f14027f3          csrrs                   a5,mhartid,zero

----------------
IN: 
Priv: 3; Virt: 0
0x80011c4e:  00454603          lbu                     a2,4(a0)
0x80011c52:  00554683          lbu                     a3,5(a0)
0x80011c56:  00754583          lbu                     a1,7(a0)
0x80011c5a:  00654703          lbu                     a4,6(a0)
0x80011c5e:  0186161b          slliw                   a2,a2,24
0x80011c62:  0106969b          slliw                   a3,a3,16
0x80011c66:  8e55              or                      a2,a2,a3
0x80011c68:  1782              slli                    a5,a5,32
0x80011c6a:  8e4d              or                      a2,a2,a1
0x80011c6c:  0087171b          slliw                   a4,a4,8
0x80011c70:  9381              srli                    a5,a5,32
0x80011c72:  8e59              or                      a2,a2,a4
0x80011c74:  078e              slli                    a5,a5,3
0x80011c76:  00007717          auipc                   a4,7                    # 0x80018c76
0x80011c7a:  68273703          ld                      a4,1666(a4)
0x80011c7e:  97ba              add                     a5,a5,a4
0x80011c80:  0206061b          addiw                   a2,a2,32
0x80011c84:  85aa              mv                      a1,a0
0x80011c86:  0007ba03          ld                      s4,0(a5)
0x80011c8a:  031020ef          jal                     ra,10288                # 0x800144ba

----------------
IN: 
Priv: 3; Virt: 0
0x800144ba:  7119              addi                    sp,sp,-128
0x800144bc:  f8a2              sd                      s0,112(sp)
0x800144be:  f4a6              sd                      s1,104(sp)
0x800144c0:  f0ca              sd                      s2,96(sp)
0x800144c2:  ecce              sd                      s3,88(sp)
0x800144c4:  e8d2              sd                      s4,80(sp)
0x800144c6:  fc86              sd                      ra,120(sp)
0x800144c8:  e4d6              sd                      s5,72(sp)
0x800144ca:  e0da              sd                      s6,64(sp)
0x800144cc:  fc5e              sd                      s7,56(sp)
0x800144ce:  f862              sd                      s8,48(sp)
0x800144d0:  f466              sd                      s9,40(sp)
0x800144d2:  f06a              sd                      s10,32(sp)
0x800144d4:  ec6e              sd                      s11,24(sp)
0x800144d6:  0100              addi                    s0,sp,128
0x800144d8:  00454c03          lbu                     s8,4(a0)
0x800144dc:  00554a83          lbu                     s5,5(a0)
0x800144e0:  00654b83          lbu                     s7,6(a0)
0x800144e4:  00754d03          lbu                     s10,7(a0)
0x800144e8:  84aa              mv                      s1,a0
0x800144ea:  8a2e              mv                      s4,a1
0x800144ec:  89b2              mv                      s3,a2
0x800144ee:  bcbf70ef          jal                     ra,-33846               # 0x8000c0b8

----------------
IN: 
Priv: 3; Virt: 0
0x800144f2:  892a              mv                      s2,a0
0x800144f4:  18054563          bltz                    a0,394                  # 0x8001467e

----------------
IN: 
Priv: 3; Virt: 0
0x800144f8:  8526              mv                      a0,s1
0x800144fa:  ffef80ef          jal                     ra,-30722               # 0x8000ccf8

----------------
IN: 
Priv: 3; Virt: 0
0x8000ccf8:  1101              addi                    sp,sp,-32
0x8000ccfa:  e822              sd                      s0,16(sp)
0x8000ccfc:  e426              sd                      s1,8(sp)
0x8000ccfe:  e04a              sd                      s2,0(sp)
0x8000cd00:  ec06              sd                      ra,24(sp)
0x8000cd02:  1000              addi                    s0,sp,32
0x8000cd04:  84aa              mv                      s1,a0
0x8000cd06:  4901              mv                      s2,zero
0x8000cd08:  a891              j                       84                      # 0x8000cd5c

----------------
IN: 
Priv: 3; Virt: 0
0x8000cd5c:  85ca              mv                      a1,s2
0x8000cd5e:  8526              mv                      a0,s1
0x8000cd60:  b99ff0ef          jal                     ra,-1128                # 0x8000c8f8

----------------
IN: 
Priv: 3; Virt: 0
0x8000c8f8:  1141              addi                    sp,sp,-16
0x8000c8fa:  e422              sd                      s0,8(sp)
0x8000c8fc:  0800              addi                    s0,sp,16
0x8000c8fe:  01054703          lbu                     a4,16(a0)
0x8000c902:  01154783          lbu                     a5,17(a0)
0x8000c906:  01254683          lbu                     a3,18(a0)
0x8000c90a:  01354603          lbu                     a2,19(a0)
0x8000c90e:  0107979b          slliw                   a5,a5,16
0x8000c912:  0187171b          slliw                   a4,a4,24
0x8000c916:  8f5d              or                      a4,a4,a5
0x8000c918:  8f51              or                      a4,a4,a2
0x8000c91a:  0086979b          slliw                   a5,a3,8
0x8000c91e:  8fd9              or                      a5,a5,a4
0x8000c920:  0045969b          slliw                   a3,a1,4
0x8000c924:  9ebd              addw                    a3,a3,a5
0x8000c926:  0006871b          sext.w                  a4,a3
0x8000c92a:  2781              sext.w                  a5,a5
0x8000c92c:  04f76463          bgtu                    a5,a4,72                # 0x8000c974

----------------
IN: 
Priv: 3; Virt: 0
0x8000c930:  00454703          lbu                     a4,4(a0)
0x8000c934:  00554803          lbu                     a6,5(a0)
0x8000c938:  00754883          lbu                     a7,7(a0)
0x8000c93c:  00654603          lbu                     a2,6(a0)
0x8000c940:  0187171b          slliw                   a4,a4,24
0x8000c944:  0108181b          slliw                   a6,a6,16
0x8000c948:  01076733          or                      a4,a4,a6
0x8000c94c:  01176733          or                      a4,a4,a7
0x8000c950:  0086161b          slliw                   a2,a2,8
0x8000c954:  8f51              or                      a4,a4,a2
0x8000c956:  1702              slli                    a4,a4,32
0x8000c958:  9301              srli                    a4,a4,32
0x8000c95a:  1682              slli                    a3,a3,32
0x8000c95c:  9281              srli                    a3,a3,32
0x8000c95e:  1741              addi                    a4,a4,-16
0x8000c960:  00d76a63          bgtu                    a3,a4,20                # 0x8000c974

----------------
IN: 
Priv: 3; Virt: 0
0x8000c964:  6422              ld                      s0,8(sp)
0x8000c966:  1782              slli                    a5,a5,32
0x8000c968:  0592              slli                    a1,a1,4
0x8000c96a:  9381              srli                    a5,a5,32
0x8000c96c:  97ae              add                     a5,a5,a1
0x8000c96e:  953e              add                     a0,a0,a5
0x8000c970:  0141              addi                    sp,sp,16
0x8000c972:  8082              ret                     

----------------
IN: 
Priv: 3; Virt: 0
0x8000cd64:  f15d              bnez                    a0,-90                  # 0x8000cd0a

----------------
IN: 
Priv: 3; Virt: 0
0x8000cd0a:  6518              ld                      a4,8(a0)
0x8000cd0c:  00875613          srli                    a2,a4,8
0x8000cd10:  03875593          srli                    a1,a4,56
0x8000cd14:  03871793          slli                    a5,a4,56
0x8000cd18:  01075693          srli                    a3,a4,16
0x8000cd1c:  0ff67613          andi                    a2,a2,255
0x8000cd20:  8fcd              or                      a5,a5,a1
0x8000cd22:  1642              slli                    a2,a2,48
0x8000cd24:  0ff6f693          andi                    a3,a3,255
0x8000cd28:  8fd1              or                      a5,a5,a2
0x8000cd2a:  16a2              slli                    a3,a3,40
0x8000cd2c:  0187559b          srliw                   a1,a4,24
0x8000cd30:  02075613          srli                    a2,a4,32
0x8000cd34:  8fd5              or                      a5,a5,a3
0x8000cd36:  1582              slli                    a1,a1,32
0x8000cd38:  02875693          srli                    a3,a4,40
0x8000cd3c:  0ff67613          andi                    a2,a2,255
0x8000cd40:  8fcd              or                      a5,a5,a1
0x8000cd42:  0662              slli                    a2,a2,24
0x8000cd44:  0ff6f693          andi                    a3,a3,255
0x8000cd48:  9341              srli                    a4,a4,48
0x8000cd4a:  8fd1              or                      a5,a5,a2
0x8000cd4c:  06c2              slli                    a3,a3,16
0x8000cd4e:  0ff77713          andi                    a4,a4,255
0x8000cd52:  8fd5              or                      a5,a5,a3
0x8000cd54:  0722              slli                    a4,a4,8
0x8000cd56:  8fd9              or                      a5,a5,a4
0x8000cd58:  cb81              beqz                    a5,16                   # 0x8000cd68

----------------
IN: 
Priv: 3; Virt: 0
0x8000cd68:  60e2              ld                      ra,24(sp)
0x8000cd6a:  6442              ld                      s0,16(sp)
0x8000cd6c:  64a2              ld                      s1,8(sp)
0x8000cd6e:  854a              mv                      a0,s2
0x8000cd70:  6902              ld                      s2,0(sp)
0x8000cd72:  6105              addi                    sp,sp,32
0x8000cd74:  8082              ret                     

----------------
IN: 
Priv: 3; Virt: 0
0x800144fe:  0144c783          lbu                     a5,20(s1)
0x80014502:  0154c683          lbu                     a3,21(s1)
0x80014506:  0174c603          lbu                     a2,23(s1)
0x8001450a:  0164c703          lbu                     a4,22(s1)
0x8001450e:  0187979b          slliw                   a5,a5,24
0x80014512:  0106969b          slliw                   a3,a3,16
0x80014516:  8fd5              or                      a5,a5,a3
0x80014518:  0087171b          slliw                   a4,a4,8
0x8001451c:  8fd1              or                      a5,a5,a2
0x8001451e:  00150b1b          addiw                   s6,a0,1
0x80014522:  8fd9              or                      a5,a5,a4
0x80014524:  004b1c9b          slliw                   s9,s6,4
0x80014528:  2781              sext.w                  a5,a5
0x8001452a:  4741              addi                    a4,zero,16
0x8001452c:  8b66              mv                      s6,s9
0x8001452e:  16f77863          bleu                    a5,a4,368               # 0x8001469e

----------------
IN: 
Priv: 3; Virt: 0
0x80014532:  0244c903          lbu                     s2,36(s1)
0x80014536:  0254c783          lbu                     a5,37(s1)
0x8001453a:  0274c703          lbu                     a4,39(s1)
0x8001453e:  0264c603          lbu                     a2,38(s1)
0x80014542:  0189191b          slliw                   s2,s2,24
0x80014546:  0107979b          slliw                   a5,a5,16
0x8001454a:  00f96933          or                      s2,s2,a5
0x8001454e:  0086161b          slliw                   a2,a2,8
0x80014552:  00e96933          or                      s2,s2,a4
0x80014556:  00c96933          or                      s2,s2,a2
0x8001455a:  2901              sext.w                  s2,s2
0x8001455c:  864a              mv                      a2,s2
0x8001455e:  85e6              mv                      a1,s9
0x80014560:  8526              mv                      a0,s1
0x80014562:  f9242623          sw                      s2,-116(s0)
0x80014566:  890ff0ef          jal                     ra,-3952                # 0x800135f6

----------------
IN: 
Priv: 3; Virt: 0
0x800135f6:  1141              addi                    sp,sp,-16
0x800135f8:  e422              sd                      s0,8(sp)
0x800135fa:  0800              addi                    s0,sp,16
0x800135fc:  872a              mv                      a4,a0
0x800135fe:  01154783          lbu                     a5,17(a0)
0x80013602:  01054503          lbu                     a0,16(a0)
0x80013606:  01374803          lbu                     a6,19(a4)
0x8001360a:  01274683          lbu                     a3,18(a4)
0x8001360e:  0185151b          slliw                   a0,a0,24
0x80013612:  0107979b          slliw                   a5,a5,16
0x80013616:  8fc9              or                      a5,a5,a0
0x80013618:  0107e7b3          or                      a5,a5,a6
0x8001361c:  0086969b          slliw                   a3,a3,8
0x80013620:  8fd5              or                      a5,a5,a3
0x80013622:  2781              sext.w                  a5,a5
0x80013624:  02700513          addi                    a0,zero,39
0x80013628:  02f57d63          bleu                    a5,a0,58                # 0x80013662

----------------
IN: 
Priv: 3; Virt: 0
0x8001362c:  00874683          lbu                     a3,8(a4)
0x80013630:  00974803          lbu                     a6,9(a4)
0x80013634:  00b74883          lbu                     a7,11(a4)
0x80013638:  00a74503          lbu                     a0,10(a4)
0x8001363c:  0186969b          slliw                   a3,a3,24
0x80013640:  0108181b          slliw                   a6,a6,16
0x80013644:  0106e6b3          or                      a3,a3,a6
0x80013648:  0085151b          slliw                   a0,a0,8
0x8001364c:  0116e6b3          or                      a3,a3,a7
0x80013650:  8ec9              or                      a3,a3,a0
0x80013652:  2681              sext.w                  a3,a3
0x80013654:  9dbd              addw                    a1,a1,a5
0x80013656:  4505              addi                    a0,zero,1
0x80013658:  00b6f963          bleu                    a1,a3,18                # 0x8001366a

----------------
IN: 
Priv: 3; Virt: 0
0x8001366a:  00c74783          lbu                     a5,12(a4)
0x8001366e:  00d74803          lbu                     a6,13(a4)
0x80013672:  00f74883          lbu                     a7,15(a4)
0x80013676:  00e74583          lbu                     a1,14(a4)
0x8001367a:  0187979b          slliw                   a5,a5,24
0x8001367e:  0108181b          slliw                   a6,a6,16
0x80013682:  0107e7b3          or                      a5,a5,a6
0x80013686:  0117e7b3          or                      a5,a5,a7
0x8001368a:  0085959b          slliw                   a1,a1,8
0x8001368e:  8fcd              or                      a5,a5,a1
0x80013690:  2781              sext.w                  a5,a5
0x80013692:  9e35              addw                    a2,a2,a3
0x80013694:  fcc7e4e3          bgtu                    a2,a5,-56               # 0x8001365c

----------------
IN: 
Priv: 3; Virt: 0
0x80013698:  02074503          lbu                     a0,32(a4)
0x8001369c:  02174883          lbu                     a7,33(a4)
0x800136a0:  00474683          lbu                     a3,4(a4)
0x800136a4:  00574803          lbu                     a6,5(a4)
0x800136a8:  02374e03          lbu                     t3,35(a4)
0x800136ac:  02274583          lbu                     a1,34(a4)
0x800136b0:  00774303          lbu                     t1,7(a4)
0x800136b4:  00674603          lbu                     a2,6(a4)
0x800136b8:  0185151b          slliw                   a0,a0,24
0x800136bc:  0186971b          slliw                   a4,a3,24
0x800136c0:  0108989b          slliw                   a7,a7,16
0x800136c4:  0108169b          slliw                   a3,a6,16
0x800136c8:  8f55              or                      a4,a4,a3
0x800136ca:  01156533          or                      a0,a0,a7
0x800136ce:  6422              ld                      s0,8(sp)
0x800136d0:  01c56533          or                      a0,a0,t3
0x800136d4:  0085959b          slliw                   a1,a1,8
0x800136d8:  00676733          or                      a4,a4,t1
0x800136dc:  0086169b          slliw                   a3,a2,8
0x800136e0:  8d4d              or                      a0,a0,a1
0x800136e2:  8f55              or                      a4,a4,a3
0x800136e4:  9d3d              addw                    a0,a0,a5
0x800136e6:  0007079b          sext.w                  a5,a4
0x800136ea:  00a7b533          sltu                    a0,a5,a0
0x800136ee:  0141              addi                    sp,sp,16
0x800136f0:  8082              ret                     

----------------
IN: 
Priv: 3; Virt: 0
0x8001456a:  16050763          beqz                    a0,366                  # 0x800146d8

----------------
IN: 
Priv: 3; Virt: 0
0x800146d8:  864e              mv                      a2,s3
0x800146da:  85d2              mv                      a1,s4
0x800146dc:  8526              mv                      a0,s1
0x800146de:  9acf80ef          jal                     ra,-32340               # 0x8000c88a

----------------
IN: 
Priv: 3; Virt: 0
0x8000c88a:  06064563          bltz                    a2,106                  # 0x8000c8f4

----------------
IN: 
Priv: 3; Virt: 0
0x8000c88e:  7179              addi                    sp,sp,-48
0x8000c890:  f022              sd                      s0,32(sp)
0x8000c892:  ec26              sd                      s1,24(sp)
0x8000c894:  e84a              sd                      s2,16(sp)
0x8000c896:  e44e              sd                      s3,8(sp)
0x8000c898:  f406              sd                      ra,40(sp)
0x8000c89a:  1800              addi                    s0,sp,48
0x8000c89c:  8932              mv                      s2,a2
0x8000c89e:  84aa              mv                      s1,a0
0x8000c8a0:  89ae              mv                      s3,a1
0x8000c8a2:  817ff0ef          jal                     ra,-2026                # 0x8000c0b8

----------------
IN: 
Priv: 3; Virt: 0
0x8000c8a6:  02054e63          bltz                    a0,60                   # 0x8000c8e2

----------------
IN: 
Priv: 3; Virt: 0
0x8000c8aa:  0044c783          lbu                     a5,4(s1)
0x8000c8ae:  0054c703          lbu                     a4,5(s1)
0x8000c8b2:  0074c683          lbu                     a3,7(s1)
0x8000c8b6:  0064c603          lbu                     a2,6(s1)
0x8000c8ba:  0187979b          slliw                   a5,a5,24
0x8000c8be:  0107171b          slliw                   a4,a4,16
0x8000c8c2:  8fd9              or                      a5,a5,a4
0x8000c8c4:  8fd5              or                      a5,a5,a3
0x8000c8c6:  0086161b          slliw                   a2,a2,8
0x8000c8ca:  8fd1              or                      a5,a5,a2
0x8000c8cc:  2781              sext.w                  a5,a5
0x8000c8ce:  02f96163          bgtu                    a5,s2,34                # 0x8000c8f0

----------------
IN: 
Priv: 3; Virt: 0
0x8000c8d2:  02079613          slli                    a2,a5,32
0x8000c8d6:  9201              srli                    a2,a2,32
0x8000c8d8:  85a6              mv                      a1,s1
0x8000c8da:  854e              mv                      a0,s3
0x8000c8dc:  de9f50ef          jal                     ra,-41496               # 0x800026c4

----------------
IN: 
Priv: 3; Virt: 0
0x800026c4:  1141              addi                    sp,sp,-16
0x800026c6:  e422              sd                      s0,8(sp)
0x800026c8:  0800              addi                    s0,sp,16
0x800026ca:  00b50f63          beq                     a0,a1,30                # 0x800026e8

----------------
IN: 
Priv: 3; Virt: 0
0x800026e8:  6422              ld                      s0,8(sp)
0x800026ea:  0141              addi                    sp,sp,16
0x800026ec:  8082              ret                     

----------------
IN: 
Priv: 3; Virt: 0
0x8000c8e0:  4501              mv                      a0,zero
0x8000c8e2:  70a2              ld                      ra,40(sp)
0x8000c8e4:  7402              ld                      s0,32(sp)
0x8000c8e6:  64e2              ld                      s1,24(sp)
0x8000c8e8:  6942              ld                      s2,16(sp)
0x8000c8ea:  69a2              ld                      s3,8(sp)
0x8000c8ec:  6145              addi                    sp,sp,48
0x8000c8ee:  8082              ret                     

----------------
IN: 
Priv: 3; Virt: 0
0x800146e2:  892a              mv                      s2,a0
0x800146e4:  fd49              bnez                    a0,-102                 # 0x8001467e

----------------
IN: 
Priv: 3; Virt: 0
0x800146e6:  f8c42783          lw                      a5,-116(s0)
0x800146ea:  0089d593          srli                    a1,s3,8
0x800146ee:  0189971b          slliw                   a4,s3,24
0x800146f2:  0087d513          srli                    a0,a5,8
0x800146f6:  0187969b          slliw                   a3,a5,24
0x800146fa:  0187d89b          srliw                   a7,a5,24
0x800146fe:  0ff57513          andi                    a0,a0,255
0x80014702:  83c1              srli                    a5,a5,16
0x80014704:  0189d81b          srliw                   a6,s3,24
0x80014708:  0ff5f593          andi                    a1,a1,255
0x8001470c:  0109d613          srli                    a2,s3,16
0x80014710:  0116e6b3          or                      a3,a3,a7
0x80014714:  0105151b          slliw                   a0,a0,16
0x80014718:  0ff7f793          andi                    a5,a5,255
0x8001471c:  01076733          or                      a4,a4,a6
0x80014720:  0105959b          slliw                   a1,a1,16
0x80014724:  0ff67613          andi                    a2,a2,255
0x80014728:  8ec9              or                      a3,a3,a0
0x8001472a:  0087979b          slliw                   a5,a5,8
0x8001472e:  8f4d              or                      a4,a4,a1
0x80014730:  0086161b          slliw                   a2,a2,8
0x80014734:  8fd5              or                      a5,a5,a3
0x80014736:  8f51              or                      a4,a4,a2
0x80014738:  110006b7          lui                     a3,69632
0x8001473c:  00da2a23          sw                      a3,20(s4)
0x80014740:  02fa2223          sw                      a5,36(s4)
0x80014744:  00ea2223          sw                      a4,4(s4)
0x80014748:  bf1d              j                       -202                    # 0x8001467e

----------------
IN: 
Priv: 3; Virt: 0
0x8001467e:  70e6              ld                      ra,120(sp)
0x80014680:  7446              ld                      s0,112(sp)
0x80014682:  74a6              ld                      s1,104(sp)
0x80014684:  69e6              ld                      s3,88(sp)
0x80014686:  6a46              ld                      s4,80(sp)
0x80014688:  6aa6              ld                      s5,72(sp)
0x8001468a:  6b06              ld                      s6,64(sp)
0x8001468c:  7be2              ld                      s7,56(sp)
0x8001468e:  7c42              ld                      s8,48(sp)
0x80014690:  7ca2              ld                      s9,40(sp)
0x80014692:  7d02              ld                      s10,32(sp)
0x80014694:  6de2              ld                      s11,24(sp)
0x80014696:  854a              mv                      a0,s2
0x80014698:  7906              ld                      s2,96(sp)
0x8001469a:  6109              addi                    sp,sp,128
0x8001469c:  8082              ret                     

----------------
IN: 
Priv: 3; Virt: 0
0x80011c8e:  0a054463          bltz                    a0,168                  # 0x80011d36

----------------
IN: 
Priv: 3; Virt: 0
0x80011c92:  00004597          auipc                   a1,4                    # 0x80015c92
0x80011c96:  cde58593          addi                    a1,a1,-802
0x80011c9a:  854a              mv                      a0,s2
0x80011c9c:  8cdfb0ef          jal                     ra,-18228               # 0x8000d568

----------------
IN: 
Priv: 3; Virt: 0
0x80011ca0:  85aa              mv                      a1,a0
0x80011ca2:  08054a63          bltz                    a0,148                  # 0x80011d36

----------------
IN: 
Priv: 3; Virt: 0
0x80011ca6:  854a              mv                      a0,s2
0x80011ca8:  b0bfa0ef          jal                     ra,-21750               # 0x8000c7b2

----------------
IN: 
Priv: 3; Virt: 0
0x80011cac:  84aa              mv                      s1,a0
0x80011cae:  08054463          bltz                    a0,136                  # 0x80011d36

----------------
IN: 
Priv: 3; Virt: 0
0x80011cb2:  f9c40993          addi                    s3,s0,-100
0x80011cb6:  f9840b13          addi                    s6,s0,-104
0x80011cba:  00005a97          auipc                   s5,5                    # 0x80016cba
0x80011cbe:  47ea8a93          addi                    s5,s5,1150
0x80011cc2:  00005b97          auipc                   s7,5                    # 0x80016cc2
0x80011cc6:  19eb8b93          addi                    s7,s7,414
0x80011cca:  00005c17          auipc                   s8,5                    # 0x80016cca
0x80011cce:  1a6c0c13          addi                    s8,s8,422
0x80011cd2:  85a6              mv                      a1,s1
0x80011cd4:  864e              mv                      a2,s3
0x80011cd6:  854a              mv                      a0,s2
0x80011cd8:  c0bfe0ef          jal                     ra,-5110                # 0x800108e2

----------------
IN: 
Priv: 3; Virt: 0
0x8000cbee:  02059513          slli                    a0,a1,32
0x8000cbf2:  9101              srli                    a0,a0,32
0x8000cbf4:  bf89              j                       -174                    # 0x8000cb46

----------------
IN: 
Priv: 3; Virt: 0
0x80011cdc:  87aa              mv                      a5,a0
0x80011cde:  85a6              mv                      a1,s1
0x80011ce0:  854a              mv                      a0,s2
0x80011ce2:  e3b9              bnez                    a5,70                   # 0x80011d28

----------------
IN: 
Priv: 3; Virt: 0
0x80011ce4:  b8dfe0ef          jal                     ra,-5236                # 0x80010870

----------------
IN: 
Priv: 3; Virt: 0
0x80011ce8:  87aa              mv                      a5,a0
0x80011cea:  86da              mv                      a3,s6
0x80011cec:  8656              mv                      a2,s5
0x80011cee:  85a6              mv                      a1,s1
0x80011cf0:  854a              mv                      a0,s2
0x80011cf2:  cb9d              beqz                    a5,54                   # 0x80011d28

----------------
IN: 
Priv: 3; Virt: 0
0x80011cf4:  daefb0ef          jal                     ra,-19026               # 0x8000d2a2

----------------
IN: 
Priv: 3; Virt: 0
0x80011cf8:  f9c42583          lw                      a1,-100(s0)
0x80011cfc:  8caa              mv                      s9,a0
0x80011cfe:  8552              mv                      a0,s4
0x80011d00:  b0af40ef          jal                     ra,-48374               # 0x8000600a

----------------
IN: 
Priv: 3; Virt: 0
0x8000600a:  1141              addi                    sp,sp,-16
0x8000600c:  e422              sd                      s0,8(sp)
0x8000600e:  0800              addi                    s0,sp,16
0x80006010:  c911              beqz                    a0,20                   # 0x80006024

----------------
IN: 
Priv: 3; Virt: 0
0x80006012:  07f00713          addi                    a4,zero,127
0x80006016:  87aa              mv                      a5,a0
0x80006018:  4501              mv                      a0,zero
0x8000601a:  00b77963          bleu                    a1,a4,18                # 0x8000602c

----------------
IN: 
Priv: 3; Virt: 0
0x8000602c:  4065d713          srai                    a4,a1,6
0x80006030:  07a1              addi                    a5,a5,8
0x80006032:  070e              slli                    a4,a4,3
0x80006034:  97ba              add                     a5,a5,a4
0x80006036:  6388              ld                      a0,0(a5)
0x80006038:  6422              ld                      s0,8(sp)
0x8000603a:  00b555b3          srl                     a1,a0,a1
0x8000603e:  0015f513          andi                    a0,a1,1
0x80006042:  0141              addi                    sp,sp,16
0x80006044:  8082              ret                     

----------------
IN: 
Priv: 3; Virt: 0
0x80011d04:  87aa              mv                      a5,a0
0x80011d06:  855e              mv                      a0,s7
0x80011d08:  c791              beqz                    a5,12                   # 0x80011d14

----------------
IN: 
Priv: 3; Virt: 0
0x80011d0a:  000c8563          beqz                    s9,10                   # 0x80011d14

----------------
IN: 
Priv: 3; Virt: 0
0x80011d0e:  f9842783          lw                      a5,-104(s0)
0x80011d12:  eb99              bnez                    a5,22                   # 0x80011d28

----------------
IN: 
Priv: 3; Virt: 0
0x80011d28:  85a6              mv                      a1,s1
0x80011d2a:  854a              mv                      a0,s2
0x80011d2c:  ab5fa0ef          jal                     ra,-21836               # 0x8000c7e0

----------------
IN: 
Priv: 3; Virt: 0
0x8000c7e0:  7139              addi                    sp,sp,-64
0x8000c7e2:  f822              sd                      s0,48(sp)
0x8000c7e4:  f426              sd                      s1,40(sp)
0x8000c7e6:  0080              addi                    s0,sp,64
0x8000c7e8:  f04a              sd                      s2,32(sp)
0x8000c7ea:  ec4e              sd                      s3,24(sp)
0x8000c7ec:  fc06              sd                      ra,56(sp)
0x8000c7ee:  4785              addi                    a5,zero,1
0x8000c7f0:  84aa              mv                      s1,a0
0x8000c7f2:  fcf42623          sw                      a5,-52(s0)
0x8000c7f6:  fcc40913          addi                    s2,s0,-52
0x8000c7fa:  4985              addi                    s3,zero,1
0x8000c7fc:  a039              j                       14                      # 0x8000c80a

----------------
IN: 
Priv: 3; Virt: 0
0x8000c80a:  864a              mv                      a2,s2
0x8000c80c:  8526              mv                      a0,s1
0x8000c80e:  edfff0ef          jal                     ra,-290                 # 0x8000c6ec

----------------
IN: 
Priv: 3; Virt: 0
0x8000c812:  85aa              mv                      a1,a0
0x8000c814:  fe0555e3          bgez                    a0,-22                  # 0x8000c7fe

----------------
IN: 
Priv: 3; Virt: 0
0x8000c7fe:  fcc42783          lw                      a5,-52(s0)
0x8000c802:  00f05b63          blez                    a5,22                   # 0x8000c818

----------------
IN: 
Priv: 3; Virt: 0
0x8000c806:  01378a63          beq                     a5,s3,20                # 0x8000c81a

----------------
IN: 
Priv: 3; Virt: 0
0x8000c81a:  70e2              ld                      ra,56(sp)
0x8000c81c:  7442              ld                      s0,48(sp)
0x8000c81e:  74a2              ld                      s1,40(sp)
0x8000c820:  7902              ld                      s2,32(sp)
0x8000c822:  69e2              ld                      s3,24(sp)
0x8000c824:  6121              addi                    sp,sp,64
0x8000c826:  8082              ret                     

----------------
IN: 
Priv: 3; Virt: 0
0x80011d30:  84aa              mv                      s1,a0
0x80011d32:  fa0550e3          bgez                    a0,-96                  # 0x80011cd2

----------------
IN: 
Priv: 3; Virt: 0
0x80011cd2:  85a6              mv                      a1,s1
0x80011cd4:  864e              mv                      a2,s3
0x80011cd6:  854a              mv                      a0,s2
0x80011cd8:  c0bfe0ef          jal                     ra,-5110                # 0x800108e2

----------------
IN: 
Priv: 3; Virt: 0
0x800109a0:  5a75              addi                    s4,zero,-3
0x800109a2:  b7ed              j                       -22                     # 0x8001098c

----------------
IN: 
Priv: 3; Virt: 0
0x8001098c:  60a6              ld                      ra,72(sp)
0x8001098e:  6406              ld                      s0,64(sp)
0x80010990:  74e2              ld                      s1,56(sp)
0x80010992:  7942              ld                      s2,48(sp)
0x80010994:  79a2              ld                      s3,40(sp)
0x80010996:  6ae2              ld                      s5,24(sp)
0x80010998:  8552              mv                      a0,s4
0x8001099a:  7a02              ld                      s4,32(sp)
0x8001099c:  6161              addi                    sp,sp,80
0x8001099e:  8082              ret                     

----------------
IN: 
Priv: 3; Virt: 0
0x8000c760:  fac42483          lw                      s1,-84(s0)
0x8000c764:  a801              j                       16                      # 0x8000c774

----------------
IN: 
Priv: 3; Virt: 0
0x8000c818:  557d              addi                    a0,zero,-1
0x8000c81a:  70e2              ld                      ra,56(sp)
0x8000c81c:  7442              ld                      s0,48(sp)
0x8000c81e:  74a2              ld                      s1,40(sp)
0x8000c820:  7902              ld                      s2,32(sp)
0x8000c822:  69e2              ld                      s3,24(sp)
0x8000c824:  6121              addi                    sp,sp,64
0x8000c826:  8082              ret                     

----------------
IN: 
Priv: 3; Virt: 0
0x80011d36:  70a6              ld                      ra,104(sp)
0x80011d38:  7406              ld                      s0,96(sp)
0x80011d3a:  64e6              ld                      s1,88(sp)
0x80011d3c:  6946              ld                      s2,80(sp)
0x80011d3e:  69a6              ld                      s3,72(sp)
0x80011d40:  6a06              ld                      s4,64(sp)
0x80011d42:  7ae2              ld                      s5,56(sp)
0x80011d44:  7b42              ld                      s6,48(sp)
0x80011d46:  7ba2              ld                      s7,40(sp)
0x80011d48:  7c02              ld                      s8,32(sp)
0x80011d4a:  6ce2              ld                      s9,24(sp)
0x80011d4c:  6165              addi                    sp,sp,112
0x80011d4e:  8082              ret                     

----------------
IN: 
Priv: 3; Virt: 0
0x80003b02:  8526              mv                      a0,s1
0x80003b04:  71a0e0ef          jal                     ra,59162                # 0x8001221e

----------------
IN: 
Priv: 3; Virt: 0
0x8001221e:  1101              addi                    sp,sp,-32
0x80012220:  ec06              sd                      ra,24(sp)
0x80012222:  e822              sd                      s0,16(sp)
0x80012224:  e426              sd                      s1,8(sp)
0x80012226:  1000              addi                    s0,sp,32
0x80012228:  00005597          auipc                   a1,5                    # 0x80017228
0x8001222c:  af058593          addi                    a1,a1,-1296
0x80012230:  84aa              mv                      s1,a0
0x80012232:  8ffff0ef          jal                     ra,-1794                # 0x80011b30

----------------
IN: 
Priv: 3; Virt: 0
0x80011b30:  7159              addi                    sp,sp,-112
0x80011b32:  f0a2              sd                      s0,96(sp)
0x80011b34:  eca6              sd                      s1,88(sp)
0x80011b36:  1880              addi                    s0,sp,112
0x80011b38:  e8ca              sd                      s2,80(sp)
0x80011b3a:  e4ce              sd                      s3,72(sp)
0x80011b3c:  e0d2              sd                      s4,64(sp)
0x80011b3e:  fc56              sd                      s5,56(sp)
0x80011b40:  f85a              sd                      s6,48(sp)
0x80011b42:  f45e              sd                      s7,40(sp)
0x80011b44:  f062              sd                      s8,32(sp)
0x80011b46:  f486              sd                      ra,104(sp)
0x80011b48:  ec66              sd                      s9,24(sp)
0x80011b4a:  84aa              mv                      s1,a0
0x80011b4c:  892e              mv                      s2,a1
0x80011b4e:  4c01              mv                      s8,zero
0x80011b50:  00007a97          auipc                   s5,7                    # 0x80018b50
0x80011b54:  7a8aba83          ld                      s5,1960(s5)
0x80011b58:  f9840a13          addi                    s4,s0,-104
0x80011b5c:  f9040993          addi                    s3,s0,-112
0x80011b60:  00005b17          auipc                   s6,5                    # 0x80016b60
0x80011b64:  300b0b13          addi                    s6,s6,768
0x80011b68:  00005b97          auipc                   s7,5                    # 0x80016b68
0x80011b6c:  308b8b93          addi                    s7,s7,776
0x80011b70:  85e2              mv                      a1,s8
0x80011b72:  864a              mv                      a2,s2
0x80011b74:  8526              mv                      a0,s1
0x80011b76:  826fc0ef          jal                     ra,-16346               # 0x8000db9c

----------------
IN: 
Priv: 3; Virt: 0
0x80011b7a:  8c2a              mv                      s8,a0
0x80011b7c:  08054c63          bltz                    a0,152                  # 0x80011c14

----------------
IN: 
Priv: 3; Virt: 0
0x80011c14:  70a6              ld                      ra,104(sp)
0x80011c16:  7406              ld                      s0,96(sp)
0x80011c18:  64e6              ld                      s1,88(sp)
0x80011c1a:  6946              ld                      s2,80(sp)
0x80011c1c:  69a6              ld                      s3,72(sp)
0x80011c1e:  6a06              ld                      s4,64(sp)
0x80011c20:  7ae2              ld                      s5,56(sp)
0x80011c22:  7b42              ld                      s6,48(sp)
0x80011c24:  7ba2              ld                      s7,40(sp)
0x80011c26:  7c02              ld                      s8,32(sp)
0x80011c28:  6ce2              ld                      s9,24(sp)
0x80011c2a:  6165              addi                    sp,sp,112
0x80011c2c:  8082              ret                     

----------------
IN: 
Priv: 3; Virt: 0
0x80012236:  00005597          auipc                   a1,5                    # 0x80017236
0x8001223a:  b0a58593          addi                    a1,a1,-1270
0x8001223e:  8526              mv                      a0,s1
0x80012240:  8f1ff0ef          jal                     ra,-1808                # 0x80011b30

----------------
IN: 
Priv: 3; Virt: 0
0x80012244:  8526              mv                      a0,s1
0x80012246:  b43ff0ef          jal                     ra,-1214                # 0x80011d88

----------------
IN: 
Priv: 3; Virt: 0
0x80011d88:  7179              addi                    sp,sp,-48
0x80011d8a:  f022              sd                      s0,32(sp)
0x80011d8c:  ec26              sd                      s1,24(sp)
0x80011d8e:  f406              sd                      ra,40(sp)
0x80011d90:  1800              addi                    s0,sp,48
0x80011d92:  4581              mv                      a1,zero
0x80011d94:  00005617          auipc                   a2,5                    # 0x80016d94
0x80011d98:  fe460613          addi                    a2,a2,-28
0x80011d9c:  84aa              mv                      s1,a0
0x80011d9e:  dfffb0ef          jal                     ra,-16898               # 0x8000db9c

----------------
IN: 
Priv: 3; Virt: 0
0x80011da2:  85aa              mv                      a1,a0
0x80011da4:  08054063          bltz                    a0,128                  # 0x80011e24

----------------
IN: 
Priv: 3; Virt: 0
0x80011e24:  4581              mv                      a1,zero
0x80011e26:  00005617          auipc                   a2,5                    # 0x80016e26
0x80011e2a:  f4260613          addi                    a2,a2,-190
0x80011e2e:  8526              mv                      a0,s1
0x80011e30:  d6dfb0ef          jal                     ra,-17044               # 0x8000db9c

----------------
IN: 
Priv: 3; Virt: 0
0x80011e34:  85aa              mv                      a1,a0
0x80011e36:  f60559e3          bgez                    a0,-142                 # 0x80011da8

----------------
IN: 
Priv: 3; Virt: 0
0x80011da8:  fdc40693          addi                    a3,s0,-36
0x80011dac:  00005617          auipc                   a2,5                    # 0x80016dac
0x80011db0:  f7c60613          addi                    a2,a2,-132
0x80011db4:  8526              mv                      a0,s1
0x80011db6:  cecfb0ef          jal                     ra,-19220               # 0x8000d2a2

----------------
IN: 
Priv: 3; Virt: 0
0x80011dba:  c125              beqz                    a0,96                   # 0x80011e1a

----------------
IN: 
Priv: 3; Virt: 0
0x80011dbc:  fdc42783          lw                      a5,-36(s0)
0x80011dc0:  4705              addi                    a4,zero,1
0x80011dc2:  8789              srai                    a5,a5,2
0x80011dc4:  fcf42e23          sw                      a5,-36(s0)
0x80011dc8:  04f75963          ble                     a5,a4,82                # 0x80011e1a

----------------
IN: 
Priv: 3; Virt: 0
0x80011dcc:  0511              addi                    a0,a0,4
0x80011dce:  4601              mv                      a2,zero
0x80011dd0:  482d              addi                    a6,zero,11
0x80011dd2:  58fd              addi                    a7,zero,-1
0x80011dd4:  411c              lw                      a5,0(a0)
0x80011dd6:  2605              addiw                   a2,a2,1
0x80011dd8:  0087d693          srli                    a3,a5,8
0x80011ddc:  0187971b          slliw                   a4,a5,24
0x80011de0:  0187d59b          srliw                   a1,a5,24
0x80011de4:  0ff6f693          andi                    a3,a3,255
0x80011de8:  83c1              srli                    a5,a5,16
0x80011dea:  8f4d              or                      a4,a4,a1
0x80011dec:  0106969b          slliw                   a3,a3,16
0x80011df0:  0ff7f793          andi                    a5,a5,255
0x80011df4:  8f55              or                      a4,a4,a3
0x80011df6:  0087979b          slliw                   a5,a5,8
0x80011dfa:  8fd9              or                      a5,a5,a4
0x80011dfc:  2781              sext.w                  a5,a5
0x80011dfe:  01079463          bne                     a5,a6,8                 # 0x80011e06

----------------
IN: 
Priv: 3; Virt: 0
0x80011e02:  01152023          sw                      a7,0(a0)
0x80011e06:  fdc42703          lw                      a4,-36(s0)
0x80011e0a:  0521              addi                    a0,a0,8
0x80011e0c:  01f7579b          srliw                   a5,a4,31
0x80011e10:  9fb9              addw                    a5,a5,a4
0x80011e12:  4017d79b          sraiw                   a5,a5,1
0x80011e16:  faf64fe3          bgt                     a5,a2,-66               # 0x80011dd4

----------------
IN: 
Priv: 3; Virt: 0
0x80011dd4:  411c              lw                      a5,0(a0)
0x80011dd6:  2605              addiw                   a2,a2,1
0x80011dd8:  0087d693          srli                    a3,a5,8
0x80011ddc:  0187971b          slliw                   a4,a5,24
0x80011de0:  0187d59b          srliw                   a1,a5,24
0x80011de4:  0ff6f693          andi                    a3,a3,255
0x80011de8:  83c1              srli                    a5,a5,16
0x80011dea:  8f4d              or                      a4,a4,a1
0x80011dec:  0106969b          slliw                   a3,a3,16
0x80011df0:  0ff7f793          andi                    a5,a5,255
0x80011df4:  8f55              or                      a4,a4,a3
0x80011df6:  0087979b          slliw                   a5,a5,8
0x80011dfa:  8fd9              or                      a5,a5,a4
0x80011dfc:  2781              sext.w                  a5,a5
0x80011dfe:  01079463          bne                     a5,a6,8                 # 0x80011e06

----------------
IN: 
Priv: 3; Virt: 0
0x80011e06:  fdc42703          lw                      a4,-36(s0)
0x80011e0a:  0521              addi                    a0,a0,8
0x80011e0c:  01f7579b          srliw                   a5,a4,31
0x80011e10:  9fb9              addw                    a5,a5,a4
0x80011e12:  4017d79b          sraiw                   a5,a5,1
0x80011e16:  faf64fe3          bgt                     a5,a2,-66               # 0x80011dd4

----------------
IN: 
Priv: 3; Virt: 0
0x80011e1a:  70a2              ld                      ra,40(sp)
0x80011e1c:  7402              ld                      s0,32(sp)
0x80011e1e:  64e2              ld                      s1,24(sp)
0x80011e20:  6145              addi                    sp,sp,48
0x80011e22:  8082              ret                     

----------------
IN: 
Priv: 3; Virt: 0
0x8001224a:  8526              mv                      a0,s1
0x8001224c:  bf9ff0ef          jal                     ra,-1032                # 0x80011e44

----------------
IN: 
Priv: 3; Virt: 0
0x80011e44:  7155              addi                    sp,sp,-208
0x80011e46:  e1a2              sd                      s0,192(sp)
0x80011e48:  e162              sd                      s8,128(sp)
0x80011e4a:  e586              sd                      ra,200(sp)
0x80011e4c:  fd26              sd                      s1,184(sp)
0x80011e4e:  f94a              sd                      s2,176(sp)
0x80011e50:  f54e              sd                      s3,168(sp)
0x80011e52:  f152              sd                      s4,160(sp)
0x80011e54:  ed56              sd                      s5,152(sp)
0x80011e56:  e95a              sd                      s6,144(sp)
0x80011e58:  e55e              sd                      s7,136(sp)
0x80011e5a:  fce6              sd                      s9,120(sp)
0x80011e5c:  f8ea              sd                      s10,112(sp)
0x80011e5e:  f4ee              sd                      s11,104(sp)
0x80011e60:  0980              addi                    s0,sp,208
0x80011e62:  8c2a              mv                      s8,a0
0x80011e64:  f14027f3          csrrs                   a5,mhartid,zero

----------------
IN: 
Priv: 3; Virt: 0
0x80011e68:  1782              slli                    a5,a5,32
0x80011e6a:  00007717          auipc                   a4,7                    # 0x80018e6a
0x80011e6e:  48e73703          ld                      a4,1166(a4)
0x80011e72:  83f5              srli                    a5,a5,29
0x80011e74:  97ba              add                     a5,a5,a4
0x80011e76:  0007b903          ld                      s2,0(a5)
0x80011e7a:  340027f3          csrrs                   a5,mscratch,zero

----------------
IN: 
Priv: 3; Virt: 0
0x80011e7e:  4581              mv                      a1,zero
0x80011e80:  f4f43c23          sd                      a5,-168(s0)
0x80011e84:  548010ef          jal                     ra,5448                 # 0x800133cc

----------------
IN: 
Priv: 3; Virt: 0
0x80011e88:  4581              mv                      a1,zero
0x80011e8a:  84aa              mv                      s1,a0
0x80011e8c:  8562              mv                      a0,s8
0x80011e8e:  570010ef          jal                     ra,5488                 # 0x800133fe

----------------
IN: 
Priv: 3; Virt: 0
0x80011e92:  004c4603          lbu                     a2,4(s8)
0x80011e96:  005c4703          lbu                     a4,5(s8)
0x80011e9a:  007c4583          lbu                     a1,7(s8)
0x80011e9e:  006c4783          lbu                     a5,6(s8)
0x80011ea2:  0107171b          slliw                   a4,a4,16
0x80011ea6:  0186161b          slliw                   a2,a2,24
0x80011eaa:  8e59              or                      a2,a2,a4
0x80011eac:  8e4d              or                      a2,a2,a1
0x80011eae:  0087979b          slliw                   a5,a5,8
0x80011eb2:  8e5d              or                      a2,a2,a5
0x80011eb4:  89aa              mv                      s3,a0
0x80011eb6:  4006061b          addiw                   a2,a2,1024
0x80011eba:  85e2              mv                      a1,s8
0x80011ebc:  8562              mv                      a0,s8
0x80011ebe:  5fc020ef          jal                     ra,9724                 # 0x800144ba

----------------
IN: 
Priv: 3; Virt: 0
0x80011ec2:  8daa              mv                      s11,a0
0x80011ec4:  1c054163          bltz                    a0,450                  # 0x80012086

----------------
IN: 
Priv: 3; Virt: 0
0x80011ec8:  00005597          auipc                   a1,5                    # 0x80016ec8
0x80011ecc:  28058593          addi                    a1,a1,640
0x80011ed0:  8562              mv                      a0,s8
0x80011ed2:  e96fb0ef          jal                     ra,-18794               # 0x8000d568

----------------
IN: 
Priv: 3; Virt: 0
0x8000ceee:  54fd              addi                    s1,zero,-1
0x8000cef0:  b7c5              j                       -32                     # 0x8000ced0

----------------
IN: 
Priv: 3; Virt: 0
0x80011ed6:  8daa              mv                      s11,a0
0x80011ed8:  1c054763          bltz                    a0,462                  # 0x800120a6

----------------
IN: 
Priv: 3; Virt: 0
0x800120a6:  00005617          auipc                   a2,5                    # 0x800170a6
0x800120aa:  0ba60613          addi                    a2,a2,186
0x800120ae:  4581              mv                      a1,zero
0x800120b0:  8562              mv                      a0,s8
0x800120b2:  362020ef          jal                     ra,9058                 # 0x80014414

----------------
IN: 
Priv: 3; Virt: 0
0x80014414:  7179              addi                    sp,sp,-48
0x80014416:  f406              sd                      ra,40(sp)
0x80014418:  f022              sd                      s0,32(sp)
0x8001441a:  ec26              sd                      s1,24(sp)
0x8001441c:  e84a              sd                      s2,16(sp)
0x8001441e:  e44e              sd                      s3,8(sp)
0x80014420:  1800              addi                    s0,sp,48
0x80014422:  892a              mv                      s2,a0
0x80014424:  8532              mv                      a0,a2
0x80014426:  84b2              mv                      s1,a2
0x80014428:  89ae              mv                      s3,a1
0x8001442a:  94eee0ef          jal                     ra,-73394               # 0x80002578

----------------
IN: 
Priv: 3; Virt: 0
0x8001442e:  0005069b          sext.w                  a3,a0
0x80014432:  8626              mv                      a2,s1
0x80014434:  85ce              mv                      a1,s3
0x80014436:  854a              mv                      a0,s2
0x80014438:  edfff0ef          jal                     ra,-290                 # 0x80014316

----------------
IN: 
Priv: 3; Virt: 0
0x80014316:  715d              addi                    sp,sp,-80
0x80014318:  e0a2              sd                      s0,64(sp)
0x8001431a:  fc26              sd                      s1,56(sp)
0x8001431c:  f84a              sd                      s2,48(sp)
0x8001431e:  f44e              sd                      s3,40(sp)
0x80014320:  f052              sd                      s4,32(sp)
0x80014322:  e486              sd                      ra,72(sp)
0x80014324:  ec56              sd                      s5,24(sp)
0x80014326:  e85a              sd                      s6,16(sp)
0x80014328:  0880              addi                    s0,sp,80
0x8001432a:  84aa              mv                      s1,a0
0x8001432c:  89ae              mv                      s3,a1
0x8001432e:  8a32              mv                      s4,a2
0x80014330:  8936              mv                      s2,a3
0x80014332:  bc0ff0ef          jal                     ra,-3136                # 0x800136f2

----------------
IN: 
Priv: 3; Virt: 0
0x800136f2:  1101              addi                    sp,sp,-32
0x800136f4:  e822              sd                      s0,16(sp)
0x800136f6:  e426              sd                      s1,8(sp)
0x800136f8:  ec06              sd                      ra,24(sp)
0x800136fa:  e04a              sd                      s2,0(sp)
0x800136fc:  1000              addi                    s0,sp,32
0x800136fe:  84aa              mv                      s1,a0
0x80013700:  9b9f80ef          jal                     ra,-30280               # 0x8000c0b8

----------------
IN: 
Priv: 3; Virt: 0
0x80013704:  06054763          bltz                    a0,110                  # 0x80013772

----------------
IN: 
Priv: 3; Virt: 0
0x80013708:  0154c903          lbu                     s2,21(s1)
0x8001370c:  0144c703          lbu                     a4,20(s1)
0x80013710:  0174c683          lbu                     a3,23(s1)
0x80013714:  0164c783          lbu                     a5,22(s1)
0x80013718:  0109191b          slliw                   s2,s2,16
0x8001371c:  0187171b          slliw                   a4,a4,24
0x80013720:  00e96933          or                      s2,s2,a4
0x80013724:  0087979b          slliw                   a5,a5,8
0x80013728:  00d96933          or                      s2,s2,a3
0x8001372c:  00f96933          or                      s2,s2,a5
0x80013730:  2901              sext.w                  s2,s2
0x80013732:  47c1              addi                    a5,zero,16
0x80013734:  0527f563          bleu                    s2,a5,74                # 0x8001377e

----------------
IN: 
Priv: 3; Virt: 0
0x80013738:  0244c603          lbu                     a2,36(s1)
0x8001373c:  0254c703          lbu                     a4,37(s1)
0x80013740:  0274c683          lbu                     a3,39(s1)
0x80013744:  0264c783          lbu                     a5,38(s1)
0x80013748:  0186161b          slliw                   a2,a2,24
0x8001374c:  0107171b          slliw                   a4,a4,16
0x80013750:  8e59              or                      a2,a2,a4
0x80013752:  8e55              or                      a2,a2,a3
0x80013754:  0087979b          slliw                   a5,a5,8
0x80013758:  8e5d              or                      a2,a2,a5
0x8001375a:  2601              sext.w                  a2,a2
0x8001375c:  45c1              addi                    a1,zero,16
0x8001375e:  8526              mv                      a0,s1
0x80013760:  e97ff0ef          jal                     ra,-362                 # 0x800135f6

----------------
IN: 
Priv: 3; Virt: 0
0x80013764:  ed19              bnez                    a0,30                   # 0x80013782

----------------
IN: 
Priv: 3; Virt: 0
0x80013766:  47c5              addi                    a5,zero,17
0x80013768:  00f90563          beq                     s2,a5,10                # 0x80013772

----------------
IN: 
Priv: 3; Virt: 0
0x80013772:  60e2              ld                      ra,24(sp)
0x80013774:  6442              ld                      s0,16(sp)
0x80013776:  64a2              ld                      s1,8(sp)
0x80013778:  6902              ld                      s2,0(sp)
0x8001377a:  6105              addi                    sp,sp,32
0x8001377c:  8082              ret                     

----------------
IN: 
Priv: 3; Virt: 0
0x80014336:  c919              beqz                    a0,22                   # 0x8001434c

----------------
IN: 
Priv: 3; Virt: 0
0x8001434c:  86ca              mv                      a3,s2
0x8001434e:  8652              mv                      a2,s4
0x80014350:  85ce              mv                      a1,s3
0x80014352:  8526              mv                      a0,s1
0x80014354:  af7f80ef          jal                     ra,-29962               # 0x8000ce4a

----------------
IN: 
Priv: 3; Virt: 0
0x80014358:  0a055a63          bgez                    a0,180                  # 0x8001440c

----------------
IN: 
Priv: 3; Virt: 0
0x8001435c:  57fd              addi                    a5,zero,-1
0x8001435e:  fcf51de3          bne                     a0,a5,-38               # 0x80014338

----------------
IN: 
Priv: 3; Virt: 0
0x80014362:  fbc40a93          addi                    s5,s0,-68
0x80014366:  8656              mv                      a2,s5
0x80014368:  85ce              mv                      a1,s3
0x8001436a:  8526              mv                      a0,s1
0x8001436c:  9e0f80ef          jal                     ra,-32288               # 0x8000c54c

----------------
IN: 
Priv: 3; Virt: 0
0x80014370:  2501              sext.w                  a0,a0
0x80014372:  4785              addi                    a5,zero,1
0x80014374:  08f51e63          bne                     a0,a5,156               # 0x80014410

----------------
IN: 
Priv: 3; Virt: 0
0x80014378:  4b05              addi                    s6,zero,1
0x8001437a:  fbc42983          lw                      s3,-68(s0)
0x8001437e:  8656              mv                      a2,s5
0x80014380:  8526              mv                      a0,s1
0x80014382:  85ce              mv                      a1,s3
0x80014384:  9c8f80ef          jal                     ra,-32312               # 0x8000c54c

----------------
IN: 
Priv: 3; Virt: 0
0x80014388:  3575              addiw                   a0,a0,-3
0x8001438a:  feab78e3          bleu                    a0,s6,-16               # 0x8001437a

----------------
IN: 
Priv: 3; Virt: 0
0x8001437a:  fbc42983          lw                      s3,-68(s0)
0x8001437e:  8656              mv                      a2,s5
0x80014380:  8526              mv                      a0,s1
0x80014382:  85ce              mv                      a1,s3
0x80014384:  9c8f80ef          jal                     ra,-32312               # 0x8000c54c

----------------
IN: 
Priv: 3; Virt: 0
0x8001438e:  0084ca83          lbu                     s5,8(s1)
0x80014392:  0094c703          lbu                     a4,9(s1)
0x80014396:  00b4c683          lbu                     a3,11(s1)
0x8001439a:  00a4c783          lbu                     a5,10(s1)
0x8001439e:  018a9a9b          slliw                   s5,s5,24
0x800143a2:  0107171b          slliw                   a4,a4,16
0x800143a6:  00eaeab3          or                      s5,s5,a4
0x800143aa:  00daeab3          or                      s5,s5,a3
0x800143ae:  0087979b          slliw                   a5,a5,8
0x800143b2:  00faeab3          or                      s5,s5,a5
0x800143b6:  1a82              slli                    s5,s5,32
0x800143b8:  020ada93          srli                    s5,s5,32
0x800143bc:  00490b1b          addiw                   s6,s2,4
0x800143c0:  9ace              add                     s5,s5,s3
0x800143c2:  ffcb7b13          andi                    s6,s6,-4
0x800143c6:  9aa6              add                     s5,s5,s1
0x800143c8:  2b21              addiw                   s6,s6,8
0x800143ca:  86da              mv                      a3,s6
0x800143cc:  4601              mv                      a2,zero
0x800143ce:  85d6              mv                      a1,s5
0x800143d0:  8526              mv                      a0,s1
0x800143d2:  d74ff0ef          jal                     ra,-2700                # 0x80013946

----------------
IN: 
Priv: 3; Virt: 0
0x80013946:  7179              addi                    sp,sp,-48
0x80013948:  f022              sd                      s0,32(sp)
0x8001394a:  ec26              sd                      s1,24(sp)
0x8001394c:  e84a              sd                      s2,16(sp)
0x8001394e:  e44e              sd                      s3,8(sp)
0x80013950:  f406              sd                      ra,40(sp)
0x80013952:  1800              addi                    s0,sp,48
0x80013954:  84aa              mv                      s1,a0
0x80013956:  89b2              mv                      s3,a2
0x80013958:  8936              mv                      s2,a3
0x8001395a:  e2dff0ef          jal                     ra,-468                 # 0x80013786

----------------
IN: 
Priv: 3; Virt: 0
0x80013786:  00c54703          lbu                     a4,12(a0)
0x8001378a:  00d54e83          lbu                     t4,13(a0)
0x8001378e:  02054803          lbu                     a6,32(a0)
0x80013792:  02154883          lbu                     a7,33(a0)
0x80013796:  02354783          lbu                     a5,35(a0)
0x8001379a:  00f54f03          lbu                     t5,15(a0)
0x8001379e:  00e54e03          lbu                     t3,14(a0)
0x800137a2:  02254303          lbu                     t1,34(a0)
0x800137a6:  0187171b          slliw                   a4,a4,24
0x800137aa:  010e9e9b          slliw                   t4,t4,16
0x800137ae:  0188181b          slliw                   a6,a6,24
0x800137b2:  0108989b          slliw                   a7,a7,16
0x800137b6:  01d76733          or                      a4,a4,t4
0x800137ba:  01186833          or                      a6,a6,a7
0x800137be:  00f86833          or                      a6,a6,a5
0x800137c2:  01e76733          or                      a4,a4,t5
0x800137c6:  0083179b          slliw                   a5,t1,8
0x800137ca:  008e1e1b          slliw                   t3,t3,8
0x800137ce:  01c76733          or                      a4,a4,t3
0x800137d2:  00f86833          or                      a6,a6,a5
0x800137d6:  010707bb          addw                    a5,a4,a6
0x800137da:  40a58733          sub                     a4,a1,a0
0x800137de:  08064363          bltz                    a2,134                  # 0x80013864

----------------
IN: 
Priv: 3; Virt: 0
0x800137e2:  88ae              mv                      a7,a1
0x800137e4:  00e605b3          add                     a1,a2,a4
0x800137e8:  06e5ee63          bgtu                    a4,a1,124               # 0x80013864

----------------
IN: 
Priv: 3; Virt: 0
0x800137ec:  02079e13          slli                    t3,a5,32
0x800137f0:  020e5e13          srli                    t3,t3,32
0x800137f4:  06be6863          bgtu                    a1,t3,112               # 0x80013864

----------------
IN: 
Priv: 3; Virt: 0
0x800137f8:  06a8e663          bgtu                    a0,a7,108               # 0x80013864

----------------
IN: 
Priv: 3; Virt: 0
0x800137fc:  00d7873b          addw                    a4,a5,a3
0x80013800:  0006859b          sext.w                  a1,a3
0x80013804:  00060e9b          sext.w                  t4,a2
0x80013808:  04c76e63          bgtu                    a2,a4,92                # 0x80013864

----------------
IN: 
Priv: 3; Virt: 0
0x8001380c:  00454703          lbu                     a4,4(a0)
0x80013810:  00554303          lbu                     t1,5(a0)
0x80013814:  00754f03          lbu                     t5,7(a0)
0x80013818:  00654803          lbu                     a6,6(a0)
0x8001381c:  0187171b          slliw                   a4,a4,24
0x80013820:  0103131b          slliw                   t1,t1,16
0x80013824:  00676733          or                      a4,a4,t1
0x80013828:  01e76733          or                      a4,a4,t5
0x8001382c:  0088181b          slliw                   a6,a6,8
0x80013830:  41d585bb          subw                    a1,a1,t4
0x80013834:  01076733          or                      a4,a4,a6
0x80013838:  9fad              addw                    a5,a5,a1
0x8001383a:  2701              sext.w                  a4,a4
0x8001383c:  02f76663          bgtu                    a5,a4,44                # 0x80013868

----------------
IN: 
Priv: 3; Virt: 0
0x80013840:  1141              addi                    sp,sp,-16
0x80013842:  e022              sd                      s0,0(sp)
0x80013844:  e406              sd                      ra,8(sp)
0x80013846:  0800              addi                    s0,sp,16
0x80013848:  00c885b3          add                     a1,a7,a2
0x8001384c:  01c50633          add                     a2,a0,t3
0x80013850:  8e0d              sub                     a2,a2,a1
0x80013852:  00d88533          add                     a0,a7,a3
0x80013856:  e6fee0ef          jal                     ra,-70034               # 0x800026c4

----------------
IN: 
Priv: 3; Virt: 0
0x800026ce:  02b57063          bleu                    a1,a0,32                # 0x800026ee

----------------
IN: 
Priv: 3; Virt: 0
0x800026ee:  fff60713          addi                    a4,a2,-1
0x800026f2:  00e507b3          add                     a5,a0,a4
0x800026f6:  95ba              add                     a1,a1,a4
0x800026f8:  da65              beqz                    a2,-16                  # 0x800026e8

----------------
IN: 
Priv: 3; Virt: 0
0x800026fa:  fff50693          addi                    a3,a0,-1
0x800026fe:  0005c703          lbu                     a4,0(a1)
0x80002702:  17fd              addi                    a5,a5,-1
0x80002704:  15fd              addi                    a1,a1,-1
0x80002706:  00e780a3          sb                      a4,1(a5)
0x8000270a:  fef69ae3          bne                     a3,a5,-12               # 0x800026fe

----------------
IN: 
Priv: 3; Virt: 0
0x800026fe:  0005c703          lbu                     a4,0(a1)
0x80002702:  17fd              addi                    a5,a5,-1
0x80002704:  15fd              addi                    a1,a1,-1
0x80002706:  00e780a3          sb                      a4,1(a5)
0x8000270a:  fef69ae3          bne                     a3,a5,-12               # 0x800026fe

----------------
IN: 
Priv: 3; Virt: 0
0x8000270e:  6422              ld                      s0,8(sp)
0x80002710:  0141              addi                    sp,sp,16
0x80002712:  8082              ret                     

----------------
IN: 
Priv: 3; Virt: 0
0x8001385a:  60a2              ld                      ra,8(sp)
0x8001385c:  6402              ld                      s0,0(sp)
0x8001385e:  4501              mv                      a0,zero
0x80013860:  0141              addi                    sp,sp,16
0x80013862:  8082              ret                     

----------------
IN: 
Priv: 3; Virt: 0
0x8001395e:  e545              bnez                    a0,168                  # 0x80013a06

----------------
IN: 
Priv: 3; Virt: 0
0x80013960:  0244c703          lbu                     a4,36(s1)
0x80013964:  0254c803          lbu                     a6,37(s1)
0x80013968:  00c4c783          lbu                     a5,12(s1)
0x8001396c:  00d4c583          lbu                     a1,13(s1)
0x80013970:  0274c303          lbu                     t1,39(s1)
0x80013974:  00f4c883          lbu                     a7,15(s1)
0x80013978:  0264c603          lbu                     a2,38(s1)
0x8001397c:  00e4c683          lbu                     a3,14(s1)
0x80013980:  0108181b          slliw                   a6,a6,16
0x80013984:  0105959b          slliw                   a1,a1,16
0x80013988:  0187171b          slliw                   a4,a4,24
0x8001398c:  0187979b          slliw                   a5,a5,24
0x80013990:  01076733          or                      a4,a4,a6
0x80013994:  8fcd              or                      a5,a5,a1
0x80013996:  0117e7b3          or                      a5,a5,a7
0x8001399a:  00676733          or                      a4,a4,t1
0x8001399e:  0086161b          slliw                   a2,a2,8
0x800139a2:  0086969b          slliw                   a3,a3,8
0x800139a6:  8edd              or                      a3,a3,a5
0x800139a8:  4139093b          subw                    s2,s2,s3
0x800139ac:  8f51              or                      a4,a4,a2
0x800139ae:  0127063b          addw                    a2,a4,s2
0x800139b2:  0126873b          addw                    a4,a3,s2
0x800139b6:  00865313          srli                    t1,a2,8
0x800139ba:  00875893          srli                    a7,a4,8
0x800139be:  0186181b          slliw                   a6,a2,24
0x800139c2:  0187159b          slliw                   a1,a4,24
0x800139c6:  0186579b          srliw                   a5,a2,24
0x800139ca:  0187569b          srliw                   a3,a4,24
0x800139ce:  0ff37313          andi                    t1,t1,255
0x800139d2:  8241              srli                    a2,a2,16
0x800139d4:  0ff8f893          andi                    a7,a7,255
0x800139d8:  8341              srli                    a4,a4,16
0x800139da:  00f867b3          or                      a5,a6,a5
0x800139de:  8ecd              or                      a3,a3,a1
0x800139e0:  0103181b          slliw                   a6,t1,16
0x800139e4:  0ff67613          andi                    a2,a2,255
0x800139e8:  0108959b          slliw                   a1,a7,16
0x800139ec:  0ff77713          andi                    a4,a4,255
0x800139f0:  0107e7b3          or                      a5,a5,a6
0x800139f4:  0086161b          slliw                   a2,a2,8
0x800139f8:  8ecd              or                      a3,a3,a1
0x800139fa:  0087171b          slliw                   a4,a4,8
0x800139fe:  8e5d              or                      a2,a2,a5
0x80013a00:  8f55              or                      a4,a4,a3
0x80013a02:  d0d0              sw                      a2,36(s1)
0x80013a04:  c4d8              sw                      a4,12(s1)
0x80013a06:  70a2              ld                      ra,40(sp)
0x80013a08:  7402              ld                      s0,32(sp)
0x80013a0a:  64e2              ld                      s1,24(sp)
0x80013a0c:  6942              ld                      s2,16(sp)
0x80013a0e:  69a2              ld                      s3,8(sp)
0x80013a10:  6145              addi                    sp,sp,48
0x80013a12:  8082              ret                     

----------------
IN: 
Priv: 3; Virt: 0
0x800143d6:  f12d              bnez                    a0,-158                 # 0x80014338

----------------
IN: 
Priv: 3; Virt: 0
0x800143d8:  0019061b          addiw                   a2,s2,1
0x800143dc:  010007b7          lui                     a5,4096
0x800143e0:  004a8493          addi                    s1,s5,4
0x800143e4:  060d              addi                    a2,a2,3
0x800143e6:  00faa023          sw                      a5,0(s5)
0x800143ea:  9a71              andi                    a2,a2,-4
0x800143ec:  4581              mv                      a1,zero
0x800143ee:  8526              mv                      a0,s1
0x800143f0:  a90ee0ef          jal                     ra,-73072               # 0x80002680

----------------
IN: 
Priv: 3; Virt: 0
0x800143f4:  864a              mv                      a2,s2
0x800143f6:  85d2              mv                      a1,s4
0x800143f8:  8526              mv                      a0,s1
0x800143fa:  aa8ee0ef          jal                     ra,-73048               # 0x800026a2

----------------
IN: 
Priv: 3; Virt: 0
0x800143fe:  9ada              add                     s5,s5,s6
0x80014400:  020007b7          lui                     a5,8192
0x80014404:  fefaae23          sw                      a5,-4(s5)
0x80014408:  854e              mv                      a0,s3
0x8001440a:  b73d              j                       -210                    # 0x80014338

----------------
IN: 
Priv: 3; Virt: 0
0x80014338:  60a6              ld                      ra,72(sp)
0x8001433a:  6406              ld                      s0,64(sp)
0x8001433c:  74e2              ld                      s1,56(sp)
0x8001433e:  7942              ld                      s2,48(sp)
0x80014340:  79a2              ld                      s3,40(sp)
0x80014342:  7a02              ld                      s4,32(sp)
0x80014344:  6ae2              ld                      s5,24(sp)
0x80014346:  6b42              ld                      s6,16(sp)
0x80014348:  6161              addi                    sp,sp,80
0x8001434a:  8082              ret                     

----------------
IN: 
Priv: 3; Virt: 0
0x8001443c:  70a2              ld                      ra,40(sp)
0x8001443e:  7402              ld                      s0,32(sp)
0x80014440:  64e2              ld                      s1,24(sp)
0x80014442:  6942              ld                      s2,16(sp)
0x80014444:  69a2              ld                      s3,8(sp)
0x80014446:  6145              addi                    sp,sp,48
0x80014448:  8082              ret                     

----------------
IN: 
Priv: 3; Virt: 0
0x800120b6:  8daa              mv                      s11,a0
0x800120b8:  fc0547e3          bltz                    a0,-50                  # 0x80012086

----------------
IN: 
Priv: 3; Virt: 0
0x800120bc:  85aa              mv                      a1,a0
0x800120be:  4701              mv                      a4,zero
0x800120c0:  4681              mv                      a3,zero
0x800120c2:  00005617          auipc                   a2,5                    # 0x800170c2
0x800120c6:  ef660613          addi                    a2,a2,-266
0x800120ca:  8562              mv                      a0,s8
0x800120cc:  0b0020ef          jal                     ra,8368                 # 0x8001417c

----------------
IN: 
Priv: 3; Virt: 0
0x8001417c:  7139              addi                    sp,sp,-64
0x8001417e:  f822              sd                      s0,48(sp)
0x80014180:  f426              sd                      s1,40(sp)
0x80014182:  f04a              sd                      s2,32(sp)
0x80014184:  ec4e              sd                      s3,24(sp)
0x80014186:  0080              addi                    s0,sp,64
0x80014188:  fc06              sd                      ra,56(sp)
0x8001418a:  893a              mv                      s2,a4
0x8001418c:  89b6              mv                      s3,a3
0x8001418e:  fc840713          addi                    a4,s0,-56
0x80014192:  86ca              mv                      a3,s2
0x80014194:  f17ff0ef          jal                     ra,-234                 # 0x800140aa

----------------
IN: 
Priv: 3; Virt: 0
0x800140aa:  715d              addi                    sp,sp,-80
0x800140ac:  e0a2              sd                      s0,64(sp)
0x800140ae:  fc26              sd                      s1,56(sp)
0x800140b0:  f84a              sd                      s2,48(sp)
0x800140b2:  f44e              sd                      s3,40(sp)
0x800140b4:  f052              sd                      s4,32(sp)
0x800140b6:  ec56              sd                      s5,24(sp)
0x800140b8:  e85a              sd                      s6,16(sp)
0x800140ba:  e486              sd                      ra,72(sp)
0x800140bc:  0880              addi                    s0,sp,80
0x800140be:  892a              mv                      s2,a0
0x800140c0:  8a2e              mv                      s4,a1
0x800140c2:  8ab2              mv                      s5,a2
0x800140c4:  89b6              mv                      s3,a3
0x800140c6:  8b3a              mv                      s6,a4
0x800140c8:  e2aff0ef          jal                     ra,-2518                # 0x800136f2

----------------
IN: 
Priv: 3; Virt: 0
0x800140cc:  84aa              mv                      s1,a0
0x800140ce:  cd01              beqz                    a0,24                   # 0x800140e6

----------------
IN: 
Priv: 3; Virt: 0
0x800140e6:  fb440693          addi                    a3,s0,-76
0x800140ea:  8656              mv                      a2,s5
0x800140ec:  85d2              mv                      a1,s4
0x800140ee:  854a              mv                      a0,s2
0x800140f0:  800f90ef          jal                     ra,-28672               # 0x8000d0f0

----------------
IN: 
Priv: 3; Virt: 0
0x8000d0f0:  7179              addi                    sp,sp,-48
0x8000d0f2:  f406              sd                      ra,40(sp)
0x8000d0f4:  f022              sd                      s0,32(sp)
0x8000d0f6:  ec26              sd                      s1,24(sp)
0x8000d0f8:  e84a              sd                      s2,16(sp)
0x8000d0fa:  e44e              sd                      s3,8(sp)
0x8000d0fc:  e052              sd                      s4,0(sp)
0x8000d0fe:  1800              addi                    s0,sp,48
0x8000d100:  892a              mv                      s2,a0
0x8000d102:  8532              mv                      a0,a2
0x8000d104:  8a36              mv                      s4,a3
0x8000d106:  84b2              mv                      s1,a2
0x8000d108:  89ae              mv                      s3,a1
0x8000d10a:  c6ef50ef          jal                     ra,-43922               # 0x80002578

----------------
IN: 
Priv: 3; Virt: 0
0x8000d10e:  8752              mv                      a4,s4
0x8000d110:  0005069b          sext.w                  a3,a0
0x8000d114:  8626              mv                      a2,s1
0x8000d116:  85ce              mv                      a1,s3
0x8000d118:  854a              mv                      a0,s2
0x8000d11a:  f85ff0ef          jal                     ra,-124                 # 0x8000d09e

----------------
IN: 
Priv: 3; Virt: 0
0x8000d09e:  01454783          lbu                     a5,20(a0)
0x8000d0a2:  01554883          lbu                     a7,21(a0)
0x8000d0a6:  01754303          lbu                     t1,23(a0)
0x8000d0aa:  01654803          lbu                     a6,22(a0)
0x8000d0ae:  0108989b          slliw                   a7,a7,16
0x8000d0b2:  0187979b          slliw                   a5,a5,24
0x8000d0b6:  0117e7b3          or                      a5,a5,a7
0x8000d0ba:  0067e7b3          or                      a5,a5,t1
0x8000d0be:  0088181b          slliw                   a6,a6,8
0x8000d0c2:  0107e7b3          or                      a5,a5,a6
0x8000d0c6:  2781              sext.w                  a5,a5
0x8000d0c8:  48bd              addi                    a7,zero,15
0x8000d0ca:  00f8fd63          bleu                    a5,a7,26                # 0x8000d0e4

----------------
IN: 
Priv: 3; Virt: 0
0x8000d0ce:  1141              addi                    sp,sp,-16
0x8000d0d0:  e022              sd                      s0,0(sp)
0x8000d0d2:  e406              sd                      ra,8(sp)
0x8000d0d4:  0800              addi                    s0,sp,16
0x8000d0d6:  4781              mv                      a5,zero
0x8000d0d8:  eb5ff0ef          jal                     ra,-332                 # 0x8000cf8c

----------------
IN: 
Priv: 3; Virt: 0
0x8000d0dc:  60a2              ld                      ra,8(sp)
0x8000d0de:  6402              ld                      s0,0(sp)
0x8000d0e0:  0141              addi                    sp,sp,16
0x8000d0e2:  8082              ret                     

----------------
IN: 
Priv: 3; Virt: 0
0x8000d11e:  70a2              ld                      ra,40(sp)
0x8000d120:  7402              ld                      s0,32(sp)
0x8000d122:  64e2              ld                      s1,24(sp)
0x8000d124:  6942              ld                      s2,16(sp)
0x8000d126:  69a2              ld                      s3,8(sp)
0x8000d128:  6a02              ld                      s4,0(sp)
0x8000d12a:  6145              addi                    sp,sp,48
0x8000d12c:  8082              ret                     

----------------
IN: 
Priv: 3; Virt: 0
0x800140f4:  faa43c23          sd                      a0,-72(s0)
0x800140f8:  cd29              beqz                    a0,90                   # 0x80014152

----------------
IN: 
Priv: 3; Virt: 0
0x80014152:  fb442503          lw                      a0,-76(s0)
0x80014156:  57fd              addi                    a5,zero,-1
0x80014158:  00f51a63          bne                     a0,a5,20                # 0x8001416c

----------------
IN: 
Priv: 3; Virt: 0
0x8001415c:  fb840713          addi                    a4,s0,-72
0x80014160:  86ce              mv                      a3,s3
0x80014162:  8656              mv                      a2,s5
0x80014164:  85d2              mv                      a1,s4
0x80014166:  854a              mv                      a0,s2
0x80014168:  a63ff0ef          jal                     ra,-1438                # 0x80013bca

----------------
IN: 
Priv: 3; Virt: 0
0x80013bca:  7119              addi                    sp,sp,-128
0x80013bcc:  f8a2              sd                      s0,112(sp)
0x80013bce:  f4a6              sd                      s1,104(sp)
0x80013bd0:  ecce              sd                      s3,88(sp)
0x80013bd2:  e8d2              sd                      s4,80(sp)
0x80013bd4:  e4d6              sd                      s5,72(sp)
0x80013bd6:  e0da              sd                      s6,64(sp)
0x80013bd8:  fc86              sd                      ra,120(sp)
0x80013bda:  f0ca              sd                      s2,96(sp)
0x80013bdc:  fc5e              sd                      s7,56(sp)
0x80013bde:  f862              sd                      s8,48(sp)
0x80013be0:  f466              sd                      s9,40(sp)
0x80013be2:  f06a              sd                      s10,32(sp)
0x80013be4:  ec6e              sd                      s11,24(sp)
0x80013be6:  0100              addi                    s0,sp,128
0x80013be8:  84aa              mv                      s1,a0
0x80013bea:  8a32              mv                      s4,a2
0x80013bec:  89b6              mv                      s3,a3
0x80013bee:  8aba              mv                      s5,a4
0x80013bf0:  a91f80ef          jal                     ra,-30064               # 0x8000c680

----------------
IN: 
Priv: 3; Virt: 0
0x80013bf4:  8b2a              mv                      s6,a0
0x80013bf6:  12054463          bltz                    a0,296                  # 0x80013d1e

----------------
IN: 
Priv: 3; Virt: 0
0x80013bfa:  00c4c903          lbu                     s2,12(s1)
0x80013bfe:  00d4c703          lbu                     a4,13(s1)
0x80013c02:  00f4c683          lbu                     a3,15(s1)
0x80013c06:  00e4c783          lbu                     a5,14(s1)
0x80013c0a:  0107171b          slliw                   a4,a4,16
0x80013c0e:  0189191b          slliw                   s2,s2,24
0x80013c12:  00e96933          or                      s2,s2,a4
0x80013c16:  00d96933          or                      s2,s2,a3
0x80013c1a:  0087979b          slliw                   a5,a5,8
0x80013c1e:  8552              mv                      a0,s4
0x80013c20:  00f96933          or                      s2,s2,a5
0x80013c24:  955ee0ef          jal                     ra,-71340               # 0x80002578

----------------
IN: 
Priv: 3; Virt: 0
0x80013c28:  0204c583          lbu                     a1,32(s1)
0x80013c2c:  0214c703          lbu                     a4,33(s1)
0x80013c30:  0234c683          lbu                     a3,35(s1)
0x80013c34:  0224c783          lbu                     a5,34(s1)
0x80013c38:  0185959b          slliw                   a1,a1,24
0x80013c3c:  0107171b          slliw                   a4,a4,16
0x80013c40:  1902              slli                    s2,s2,32
0x80013c42:  8dd9              or                      a1,a1,a4
0x80013c44:  02095913          srli                    s2,s2,32
0x80013c48:  8dd5              or                      a1,a1,a3
0x80013c4a:  0087979b          slliw                   a5,a5,8
0x80013c4e:  9926              add                     s2,s2,s1
0x80013c50:  8ddd              or                      a1,a1,a5
0x80013c52:  8baa              mv                      s7,a0
0x80013c54:  8652              mv                      a2,s4
0x80013c56:  2581              sext.w                  a1,a1
0x80013c58:  854a              mv                      a0,s2
0x80013c5a:  bcff80ef          jal                     ra,-29746               # 0x8000c828

----------------
IN: 
Priv: 3; Virt: 0
0x8000c828:  7179              addi                    sp,sp,-48
0x8000c82a:  f022              sd                      s0,32(sp)
0x8000c82c:  ec26              sd                      s1,24(sp)
0x8000c82e:  e84a              sd                      s2,16(sp)
0x8000c830:  e44e              sd                      s3,8(sp)
0x8000c832:  e052              sd                      s4,0(sp)
0x8000c834:  f406              sd                      ra,40(sp)
0x8000c836:  1800              addi                    s0,sp,48
0x8000c838:  84aa              mv                      s1,a0
0x8000c83a:  8532              mv                      a0,a2
0x8000c83c:  892e              mv                      s2,a1
0x8000c83e:  8a32              mv                      s4,a2
0x8000c840:  d39f50ef          jal                     ra,-41672               # 0x80002578

----------------
IN: 
Priv: 3; Virt: 0
0x8000c844:  0015099b          addiw                   s3,a0,1
0x8000c848:  41390933          sub                     s2,s2,s3
0x8000c84c:  9926              add                     s2,s2,s1
0x8000c84e:  00997663          bleu                    s1,s2,12                # 0x8000c85a

----------------
IN: 
Priv: 3; Virt: 0
0x8000c85a:  8526              mv                      a0,s1
0x8000c85c:  864e              mv                      a2,s3
0x8000c85e:  85d2              mv                      a1,s4
0x8000c860:  eb5f50ef          jal                     ra,-41292               # 0x80002714

----------------
IN: 
Priv: 3; Virt: 0
0x8000c864:  f965              bnez                    a0,-16                  # 0x8000c854

----------------
IN: 
Priv: 3; Virt: 0
0x8000c854:  0485              addi                    s1,s1,1
0x8000c856:  02996163          bgtu                    s1,s2,34                # 0x8000c878

----------------
IN: 
Priv: 3; Virt: 0
0x8000c866:  70a2              ld                      ra,40(sp)
0x8000c868:  7402              ld                      s0,32(sp)
0x8000c86a:  6942              ld                      s2,16(sp)
0x8000c86c:  69a2              ld                      s3,8(sp)
0x8000c86e:  6a02              ld                      s4,0(sp)
0x8000c870:  8526              mv                      a0,s1
0x8000c872:  64e2              ld                      s1,24(sp)
0x8000c874:  6145              addi                    sp,sp,48
0x8000c876:  8082              ret                     

----------------
IN: 
Priv: 3; Virt: 0
0x80013c5e:  c175              beqz                    a0,228                  # 0x80013d42

----------------
IN: 
Priv: 3; Virt: 0
0x80013c60:  41250bbb          subw                    s7,a0,s2
0x80013c64:  4c81              mv                      s9,zero
0x80013c66:  0c0bcc63          bltz                    s7,216                  # 0x80013d3e

----------------
IN: 
Priv: 3; Virt: 0
0x80013c6a:  0084c583          lbu                     a1,8(s1)
0x80013c6e:  0094c703          lbu                     a4,9(s1)
0x80013c72:  00b4c683          lbu                     a3,11(s1)
0x80013c76:  00a4c783          lbu                     a5,10(s1)
0x80013c7a:  0107171b          slliw                   a4,a4,16
0x80013c7e:  0185959b          slliw                   a1,a1,24
0x80013c82:  8dd9              or                      a1,a1,a4
0x80013c84:  8dd5              or                      a1,a1,a3
0x80013c86:  0087979b          slliw                   a5,a5,8
0x80013c8a:  8ddd              or                      a1,a1,a5
0x80013c8c:  1582              slli                    a1,a1,32
0x80013c8e:  9181              srli                    a1,a1,32
0x80013c90:  95da              add                     a1,a1,s6
0x80013c92:  0039869b          addiw                   a3,s3,3
0x80013c96:  95a6              add                     a1,a1,s1
0x80013c98:  9af1              andi                    a3,a3,-4
0x80013c9a:  00bab023          sd                      a1,0(s5)
0x80013c9e:  26b1              addiw                   a3,a3,12
0x80013ca0:  4601              mv                      a2,zero
0x80013ca2:  8526              mv                      a0,s1
0x80013ca4:  ca3ff0ef          jal                     ra,-862                 # 0x80013946

----------------
IN: 
Priv: 3; Virt: 0
0x80013ca8:  8b2a              mv                      s6,a0
0x80013caa:  2981              sext.w                  s3,s3
0x80013cac:  16051b63          bnez                    a0,374                  # 0x80013e22

----------------
IN: 
Priv: 3; Virt: 0
0x80013cb0:  000ab703          ld                      a4,0(s5)
0x80013cb4:  000b879b          sext.w                  a5,s7
0x80013cb8:  0087d693          srli                    a3,a5,8
0x80013cbc:  03000637          lui                     a2,12288
0x80013cc0:  c310              sw                      a2,0(a4)
0x80013cc2:  0ff6f693          andi                    a3,a3,255
0x80013cc6:  018b971b          slliw                   a4,s7,24
0x80013cca:  83c1              srli                    a5,a5,16
0x80013ccc:  018bdb9b          srliw                   s7,s7,24
0x80013cd0:  000ab603          ld                      a2,0(s5)
0x80013cd4:  01776bb3          or                      s7,a4,s7
0x80013cd8:  0ff7f793          andi                    a5,a5,255
0x80013cdc:  0106971b          slliw                   a4,a3,16
0x80013ce0:  00ebebb3          or                      s7,s7,a4
0x80013ce4:  0087979b          slliw                   a5,a5,8
0x80013ce8:  00fbe7b3          or                      a5,s7,a5
0x80013cec:  0089d713          srli                    a4,s3,8
0x80013cf0:  c61c              sw                      a5,8(a2)
0x80013cf2:  0ff77713          andi                    a4,a4,255
0x80013cf6:  0189979b          slliw                   a5,s3,24
0x80013cfa:  0189d61b          srliw                   a2,s3,24
0x80013cfe:  0109d993          srli                    s3,s3,16
0x80013d02:  000ab683          ld                      a3,0(s5)
0x80013d06:  8fd1              or                      a5,a5,a2
0x80013d08:  0107171b          slliw                   a4,a4,16
0x80013d0c:  0ff9f993          andi                    s3,s3,255
0x80013d10:  8fd9              or                      a5,a5,a4
0x80013d12:  0089999b          slliw                   s3,s3,8
0x80013d16:  0137e9b3          or                      s3,a5,s3
0x80013d1a:  0136a223          sw                      s3,4(a3)
0x80013d1e:  70e6              ld                      ra,120(sp)
0x80013d20:  7446              ld                      s0,112(sp)
0x80013d22:  74a6              ld                      s1,104(sp)
0x80013d24:  7906              ld                      s2,96(sp)
0x80013d26:  69e6              ld                      s3,88(sp)
0x80013d28:  6a46              ld                      s4,80(sp)
0x80013d2a:  6aa6              ld                      s5,72(sp)
0x80013d2c:  7be2              ld                      s7,56(sp)
0x80013d2e:  7c42              ld                      s8,48(sp)
0x80013d30:  7ca2              ld                      s9,40(sp)
0x80013d32:  7d02              ld                      s10,32(sp)
0x80013d34:  6de2              ld                      s11,24(sp)
0x80013d36:  855a              mv                      a0,s6
0x80013d38:  6b06              ld                      s6,64(sp)
0x80013d3a:  6109              addi                    sp,sp,128
0x80013d3c:  8082              ret                     

----------------
IN: 
Priv: 3; Virt: 0
0x8001416c:  dd69              beqz                    a0,-38                  # 0x80014146

----------------
IN: 
Priv: 3; Virt: 0
0x80014146:  fb843783          ld                      a5,-72(s0)
0x8001414a:  07b1              addi                    a5,a5,12
0x8001414c:  00fb3023          sd                      a5,0(s6)
0x80014150:  b741              j                       -128                    # 0x800140d0

----------------
IN: 
Priv: 3; Virt: 0
0x800140d0:  60a6              ld                      ra,72(sp)
0x800140d2:  6406              ld                      s0,64(sp)
0x800140d4:  7942              ld                      s2,48(sp)
0x800140d6:  79a2              ld                      s3,40(sp)
0x800140d8:  7a02              ld                      s4,32(sp)
0x800140da:  6ae2              ld                      s5,24(sp)
0x800140dc:  6b42              ld                      s6,16(sp)
0x800140de:  8526              mv                      a0,s1
0x800140e0:  74e2              ld                      s1,56(sp)
0x800140e2:  6161              addi                    sp,sp,80
0x800140e4:  8082              ret                     

----------------
IN: 
Priv: 3; Virt: 0
0x80014198:  84aa              mv                      s1,a0
0x8001419a:  e119              bnez                    a0,6                    # 0x800141a0

----------------
IN: 
Priv: 3; Virt: 0
0x8001419c:  00091a63          bnez                    s2,20                   # 0x800141b0

----------------
IN: 
Priv: 3; Virt: 0
0x800141a0:  70e2              ld                      ra,56(sp)
0x800141a2:  7442              ld                      s0,48(sp)
0x800141a4:  7902              ld                      s2,32(sp)
0x800141a6:  69e2              ld                      s3,24(sp)
0x800141a8:  8526              mv                      a0,s1
0x800141aa:  74a2              ld                      s1,40(sp)
0x800141ac:  6121              addi                    sp,sp,64
0x800141ae:  8082              ret                     

----------------
IN: 
Priv: 3; Virt: 0
0x800120d0:  08054863          bltz                    a0,144                  # 0x80012160

----------------
IN: 
Priv: 3; Virt: 0
0x800120d4:  0009879b          sext.w                  a5,s3
0x800120d8:  0087d693          srli                    a3,a5,8
0x800120dc:  0ff6f613          andi                    a2,a3,255
0x800120e0:  0189971b          slliw                   a4,s3,24
0x800120e4:  0189d69b          srliw                   a3,s3,24
0x800120e8:  83c1              srli                    a5,a5,16
0x800120ea:  8f55              or                      a4,a4,a3
0x800120ec:  0ff7f793          andi                    a5,a5,255
0x800120f0:  0106169b          slliw                   a3,a2,16
0x800120f4:  8f55              or                      a4,a4,a3
0x800120f6:  0087979b          slliw                   a5,a5,8
0x800120fa:  f7040993          addi                    s3,s0,-144
0x800120fe:  8fd9              or                      a5,a5,a4
0x80012100:  86ce              mv                      a3,s3
0x80012102:  4711              addi                    a4,zero,4
0x80012104:  00005617          auipc                   a2,5                    # 0x80017104
0x80012108:  06c60613          addi                    a2,a2,108
0x8001210c:  85ee              mv                      a1,s11
0x8001210e:  8562              mv                      a0,s8
0x80012110:  f6f42823          sw                      a5,-144(s0)
0x80012114:  068020ef          jal                     ra,8296                 # 0x8001417c

----------------
IN: 
Priv: 3; Virt: 0
0x800141b0:  fc843503          ld                      a0,-56(s0)
0x800141b4:  864a              mv                      a2,s2
0x800141b6:  85ce              mv                      a1,s3
0x800141b8:  ceaee0ef          jal                     ra,-72470               # 0x800026a2

----------------
IN: 
Priv: 3; Virt: 0
0x800141bc:  70e2              ld                      ra,56(sp)
0x800141be:  7442              ld                      s0,48(sp)
0x800141c0:  7902              ld                      s2,32(sp)
0x800141c2:  69e2              ld                      s3,24(sp)
0x800141c4:  8526              mv                      a0,s1
0x800141c6:  74a2              ld                      s1,40(sp)
0x800141c8:  6121              addi                    sp,sp,64
0x800141ca:  8082              ret                     

----------------
IN: 
Priv: 3; Virt: 0
0x80012118:  04054463          bltz                    a0,72                   # 0x80012160

----------------
IN: 
Priv: 3; Virt: 0
0x8001211c:  0004879b          sext.w                  a5,s1
0x80012120:  0087d713          srli                    a4,a5,8
0x80012124:  0ff77613          andi                    a2,a4,255
0x80012128:  83c1              srli                    a5,a5,16
0x8001212a:  0184971b          slliw                   a4,s1,24
0x8001212e:  0184d49b          srliw                   s1,s1,24
0x80012132:  8cd9              or                      s1,s1,a4
0x80012134:  0ff7f793          andi                    a5,a5,255
0x80012138:  0106171b          slliw                   a4,a2,16
0x8001213c:  8f45              or                      a4,a4,s1
0x8001213e:  0087979b          slliw                   a5,a5,8
0x80012142:  8fd9              or                      a5,a5,a4
0x80012144:  86ce              mv                      a3,s3
0x80012146:  4711              addi                    a4,zero,4
0x80012148:  00005617          auipc                   a2,5                    # 0x80017148
0x8001214c:  03860613          addi                    a2,a2,56
0x80012150:  85ee              mv                      a1,s11
0x80012152:  8562              mv                      a0,s8
0x80012154:  f6f42823          sw                      a5,-144(s0)
0x80012158:  024020ef          jal                     ra,8228                 # 0x8001417c

----------------
IN: 
Priv: 3; Virt: 0
0x8001215c:  d80550e3          bgez                    a0,-640                 # 0x80011edc

----------------
IN: 
Priv: 3; Virt: 0
0x80011edc:  06093983          ld                      s3,96(s2)
0x80011ee0:  4b01              mv                      s6,zero
0x80011ee2:  0009ba83          ld                      s5,0(s3)
0x80011ee6:  180a8f63          beqz                    s5,414                  # 0x80012084

----------------
IN: 
Priv: 3; Virt: 0
0x80011eea:  4a05              addi                    s4,zero,1
0x80011eec:  01fa1493          slli                    s1,s4,31
0x80011ef0:  f6440793          addi                    a5,s0,-156
0x80011ef4:  049d              addi                    s1,s1,7
0x80011ef6:  f2f43c23          sd                      a5,-200(s0)
0x80011efa:  f6040d13          addi                    s10,s0,-160
0x80011efe:  f7040c93          addi                    s9,s0,-144
0x80011f02:  a031              j                       12                      # 0x80011f0e

----------------
IN: 
Priv: 3; Virt: 0
0x80011f0e:  0109b783          ld                      a5,16(s3)
0x80011f12:  8fe5              and                     a5,a5,s1
0x80011f14:  fbe5              bnez                    a5,-16                  # 0x80011f04

----------------
IN: 
Priv: 3; Virt: 0
0x80011f04:  0189ba83          ld                      s5,24(s3)
0x80011f08:  09e1              addi                    s3,s3,24
0x80011f0a:  160a8d63          beqz                    s5,378                  # 0x80012084

----------------
IN: 
Priv: 3; Virt: 0
0x80011f16:  0089b783          ld                      a5,8(s3)
0x80011f1a:  f5843503          ld                      a0,-168(s0)
0x80011f1e:  f4f43423          sd                      a5,-184(s0)
0x80011f22:  a20f50ef          jal                     ra,-44512               # 0x80007142

----------------
IN: 
Priv: 3; Virt: 0
0x80007142:  1141              addi                    sp,sp,-16
0x80007144:  e422              sd                      s0,8(sp)
0x80007146:  0800              addi                    s0,sp,16
0x80007148:  6422              ld                      s0,8(sp)
0x8000714a:  00022797          auipc                   a5,34                   # 0x8002914a
0x8000714e:  22e7b783          ld                      a5,558(a5)
0x80007152:  953e              add                     a0,a0,a5
0x80007154:  4908              lw                      a0,16(a0)
0x80007156:  0141              addi                    sp,sp,16
0x80007158:  8082              ret                     

----------------
IN: 
Priv: 3; Virt: 0
0x80011f26:  8baa              mv                      s7,a0
0x80011f28:  000b879b          sext.w                  a5,s7
0x80011f2c:  4581              mv                      a1,zero
0x80011f2e:  8562              mv                      a0,s8
0x80011f30:  f4f43023          sd                      a5,-192(s0)
0x80011f34:  498010ef          jal                     ra,5272                 # 0x800133cc

----------------
IN: 
Priv: 3; Virt: 0
0x80011f38:  892a              mv                      s2,a0
0x80011f3a:  4581              mv                      a1,zero
0x80011f3c:  8562              mv                      a0,s8
0x80011f3e:  4c0010ef          jal                     ra,5312                 # 0x800133fe

----------------
IN: 
Priv: 3; Virt: 0
0x80011f42:  f4843783          ld                      a5,-184(s0)
0x80011f46:  f4a43823          sd                      a0,-176(s0)
0x80011f4a:  4207d693          srai                    a3,a5,32
0x80011f4e:  f4d43423          sd                      a3,-184(s0)
0x80011f52:  0207d713          srli                    a4,a5,32
0x80011f56:  00078b9b          sext.w                  s7,a5
0x80011f5a:  012a5463          ble                     s2,s4,8                 # 0x80011f62

----------------
IN: 
Priv: 3; Virt: 0
0x80011f5e:  20071363          bnez                    a4,518                  # 0x80012164

----------------
IN: 
Priv: 3; Virt: 0
0x80011f62:  875e              mv                      a4,s7
0x80011f64:  86da              mv                      a3,s6
0x80011f66:  00005617          auipc                   a2,5                    # 0x80016f66
0x80011f6a:  24260613          addi                    a2,a2,578
0x80011f6e:  02000593          addi                    a1,zero,32
0x80011f72:  8566              mv                      a0,s9
0x80011f74:  f97f30ef          jal                     ra,-49258               # 0x80005f0a

----------------
IN: 
Priv: 3; Virt: 0
0x80005f0a:  711d              addi                    sp,sp,-96
0x80005f0c:  f022              sd                      s0,32(sp)
0x80005f0e:  f406              sd                      ra,40(sp)
0x80005f10:  1800              addi                    s0,sp,48
0x80005f12:  fca43c23          sd                      a0,-40(s0)
0x80005f16:  e414              sd                      a3,8(s0)
0x80005f18:  e818              sd                      a4,16(s0)
0x80005f1a:  ec1c              sd                      a5,24(s0)
0x80005f1c:  03043023          sd                      a6,32(s0)
0x80005f20:  03143423          sd                      a7,40(s0)
0x80005f24:  fcb42a23          sw                      a1,-44(s0)
0x80005f28:  cd19              beqz                    a0,30                   # 0x80005f46

----------------
IN: 
Priv: 3; Virt: 0
0x80005f2a:  00840693          addi                    a3,s0,8
0x80005f2e:  fd440593          addi                    a1,s0,-44
0x80005f32:  fd840513          addi                    a0,s0,-40
0x80005f36:  fed43423          sd                      a3,-24(s0)
0x80005f3a:  aafff0ef          jal                     ra,-1362                # 0x800059e8

----------------
IN: 
Priv: 3; Virt: 0
0x80005784:  c585              beqz                    a1,40                   # 0x800057ac

----------------
IN: 
Priv: 3; Virt: 0
0x80005786:  419c              lw                      a5,0(a1)
0x80005788:  4705              addi                    a4,zero,1
0x8000578a:  00f77c63          bleu                    a5,a4,24                # 0x800057a2

----------------
IN: 
Priv: 3; Virt: 0
0x8000578e:  611c              ld                      a5,0(a0)
0x80005790:  00178713          addi                    a4,a5,1
0x80005794:  e118              sd                      a4,0(a0)
0x80005796:  00c78023          sb                      a2,0(a5)
0x8000579a:  611c              ld                      a5,0(a0)
0x8000579c:  00078023          sb                      zero,0(a5)
0x800057a0:  419c              lw                      a5,0(a1)
0x800057a2:  c781              beqz                    a5,8                    # 0x800057aa

----------------
IN: 
Priv: 3; Virt: 0
0x800057a4:  37fd              addiw                   a5,a5,-1
0x800057a6:  c19c              sw                      a5,0(a1)
0x800057a8:  8082              ret                     

----------------
IN: 
Priv: 3; Virt: 0
0x800058f8:  03000793          addi                    a5,zero,48
0x800058fc:  fcf40f23          sb                      a5,-34(s0)
0x80005900:  4901              mv                      s2,zero
0x80005902:  fde40493          addi                    s1,s0,-34
0x80005906:  e339              bnez                    a4,70                   # 0x8000594c

----------------
IN: 
Priv: 3; Virt: 0
0x80005aa2:  06900713          addi                    a4,zero,105
0x80005aa6:  0ae60c63          beq                     a2,a4,184               # 0x80005b5e

----------------
IN: 
Priv: 3; Virt: 0
0x80005aaa:  07800713          addi                    a4,zero,120
0x80005aae:  14e60463          beq                     a2,a4,328               # 0x80005bf6

----------------
IN: 
Priv: 3; Virt: 0
0x80005bf6:  0009e603          lwu                     a2,0(s3)
0x80005bfa:  06100893          addi                    a7,zero,97
0x80005bfe:  4701              mv                      a4,zero
0x80005c00:  46c1              addi                    a3,zero,16
0x80005c02:  b7a5              j                       -152                    # 0x80005b6a

----------------
IN: 
Priv: 3; Virt: 0
0x80005b6a:  85e6              mv                      a1,s9
0x80005b6c:  8552              mv                      a0,s4
0x80005b6e:  d5fff0ef          jal                     ra,-674                 # 0x800058cc

----------------
IN: 
Priv: 3; Virt: 0
0x8000592c:  03c37633          remu                    a2,t1,t3
0x80005930:  8e9a              mv                      t4,t1
0x80005932:  14fd              addi                    s1,s1,-1
0x80005934:  03c35333          divu                    t1,t1,t3
0x80005938:  00c7f363          bleu                    a2,a5,6                 # 0x8000593e

----------------
IN: 
Priv: 3; Virt: 0
0x8000585e:  85ce              mv                      a1,s3
0x80005860:  854a              mv                      a0,s2
0x80005862:  009a8b3b          addw                    s6,s5,s1
0x80005866:  f1dff0ef          jal                     ra,-228                 # 0x80005782

----------------
IN: 
Priv: 3; Virt: 0
0x80005f3e:  70a2              ld                      ra,40(sp)
0x80005f40:  7402              ld                      s0,32(sp)
0x80005f42:  6125              addi                    sp,sp,96
0x80005f44:  8082              ret                     

----------------
IN: 
Priv: 3; Virt: 0
0x80011f78:  85ee              mv                      a1,s11
0x80011f7a:  8666              mv                      a2,s9
0x80011f7c:  8562              mv                      a0,s8
0x80011f7e:  496020ef          jal                     ra,9366                 # 0x80014414

----------------
IN: 
Priv: 3; Virt: 0
0x80011f82:  85aa              mv                      a1,a0
0x80011f84:  0e054a63          bltz                    a0,244                  # 0x80012078

----------------
IN: 
Priv: 3; Virt: 0
0x80011f88:  f4043783          ld                      a5,-192(s0)
0x80011f8c:  1e078963          beqz                    a5,498                  # 0x8001217e

----------------
IN: 
Priv: 3; Virt: 0
0x80011f90:  866a              mv                      a2,s10
0x80011f92:  032a5b63          ble                     s2,s4,54                # 0x80011fc8

----------------
IN: 
Priv: 3; Virt: 0
0x80011f96:  f4843783          ld                      a5,-184(s0)
0x80011f9a:  0087d613          srli                    a2,a5,8
0x80011f9e:  0187969b          slliw                   a3,a5,24
0x80011fa2:  0187d51b          srliw                   a0,a5,24
0x80011fa6:  0ff67613          andi                    a2,a2,255
0x80011faa:  0107d713          srli                    a4,a5,16
0x80011fae:  0106161b          slliw                   a2,a2,16
0x80011fb2:  8ec9              or                      a3,a3,a0
0x80011fb4:  0ff77713          andi                    a4,a4,255
0x80011fb8:  8ed1              or                      a3,a3,a2
0x80011fba:  0087171b          slliw                   a4,a4,8
0x80011fbe:  f3843603          ld                      a2,-200(s0)
0x80011fc2:  8f55              or                      a4,a4,a3
0x80011fc4:  f6e42023          sw                      a4,-160(s0)
0x80011fc8:  008bd693          srli                    a3,s7,8
0x80011fcc:  018b971b          slliw                   a4,s7,24
0x80011fd0:  018bd51b          srliw                   a0,s7,24
0x80011fd4:  0ff6f693          andi                    a3,a3,255
0x80011fd8:  010bd793          srli                    a5,s7,16
0x80011fdc:  8f49              or                      a4,a4,a0
0x80011fde:  0106969b          slliw                   a3,a3,16
0x80011fe2:  0ff7f793          andi                    a5,a5,255
0x80011fe6:  8f55              or                      a4,a4,a3
0x80011fe8:  0087979b          slliw                   a5,a5,8
0x80011fec:  8fd9              or                      a5,a5,a4
0x80011fee:  c21c              sw                      a5,0(a2)
0x80011ff0:  f5043783          ld                      a5,-176(s0)
0x80011ff4:  015a1333          sll                     t1,s4,s5
0x80011ff8:  00460e93          addi                    t4,a2,4
0x80011ffc:  02fa5963          ble                     a5,s4,50                # 0x8001202e

----------------
IN: 
Priv: 3; Virt: 0
0x80012000:  42035713          srai                    a4,t1,32
0x80012004:  00875693          srli                    a3,a4,8
0x80012008:  0187179b          slliw                   a5,a4,24
0x8001200c:  0187551b          srliw                   a0,a4,24
0x80012010:  0ff6f693          andi                    a3,a3,255
0x80012014:  8341              srli                    a4,a4,16
0x80012016:  8fc9              or                      a5,a5,a0
0x80012018:  0106969b          slliw                   a3,a3,16
0x8001201c:  0ff77713          andi                    a4,a4,255
0x80012020:  8fd5              or                      a5,a5,a3
0x80012022:  0087171b          slliw                   a4,a4,8
0x80012026:  8f5d              or                      a4,a4,a5
0x80012028:  00860e93          addi                    t4,a2,8
0x8001202c:  c258              sw                      a4,4(a2)
0x8001202e:  0003079b          sext.w                  a5,t1
0x80012032:  0087d713          srli                    a4,a5,8
0x80012036:  0183169b          slliw                   a3,t1,24
0x8001203a:  0ff77713          andi                    a4,a4,255
0x8001203e:  0183531b          srliw                   t1,t1,24
0x80012042:  0107171b          slliw                   a4,a4,16
0x80012046:  0066e6b3          or                      a3,a3,t1
0x8001204a:  8ed9              or                      a3,a3,a4
0x8001204c:  83c1              srli                    a5,a5,16
0x8001204e:  f5043703          ld                      a4,-176(s0)
0x80012052:  0ff7f793          andi                    a5,a5,255
0x80012056:  0087979b          slliw                   a5,a5,8
0x8001205a:  8fd5              or                      a5,a5,a3
0x8001205c:  00e9073b          addw                    a4,s2,a4
0x80012060:  0027171b          slliw                   a4,a4,2
0x80012064:  86ea              mv                      a3,s10
0x80012066:  00005617          auipc                   a2,5                    # 0x80017066
0x8001206a:  c2260613          addi                    a2,a2,-990
0x8001206e:  8562              mv                      a0,s8
0x80012070:  00fea023          sw                      a5,0(t4)
0x80012074:  108020ef          jal                     ra,8456                 # 0x8001417c

----------------
IN: 
Priv: 3; Virt: 0
0x80012078:  2b05              addiw                   s6,s6,1
0x8001207a:  0189ba83          ld                      s5,24(s3)
0x8001207e:  09e1              addi                    s3,s3,24
0x80012080:  e80a97e3          bnez                    s5,-370                 # 0x80011f0e

----------------
IN: 
Priv: 3; Virt: 0
0x80012084:  4d81              mv                      s11,zero
0x80012086:  60ae              ld                      ra,200(sp)
0x80012088:  640e              ld                      s0,192(sp)
0x8001208a:  74ea              ld                      s1,184(sp)
0x8001208c:  794a              ld                      s2,176(sp)
0x8001208e:  79aa              ld                      s3,168(sp)
0x80012090:  7a0a              ld                      s4,160(sp)
0x80012092:  6aea              ld                      s5,152(sp)
0x80012094:  6b4a              ld                      s6,144(sp)
0x80012096:  6baa              ld                      s7,136(sp)
0x80012098:  6c0a              ld                      s8,128(sp)
0x8001209a:  7ce6              ld                      s9,120(sp)
0x8001209c:  7d46              ld                      s10,112(sp)
0x8001209e:  856e              mv                      a0,s11
0x800120a0:  7da6              ld                      s11,104(sp)
0x800120a2:  6169              addi                    sp,sp,208
0x800120a4:  8082              ret                     

----------------
IN: 
Priv: 3; Virt: 0
0x80012250:  8526              mv                      a0,s1
0x80012252:  c3bfd0ef          jal                     ra,-9158                # 0x8000fe8c

----------------
IN: 
Priv: 3; Virt: 0
0x8000fe8c:  7179              addi                    sp,sp,-48
0x8000fe8e:  f022              sd                      s0,32(sp)
0x8000fe90:  f406              sd                      ra,40(sp)
0x8000fe92:  ec26              sd                      s1,24(sp)
0x8000fe94:  e84a              sd                      s2,16(sp)
0x8000fe96:  e44e              sd                      s3,8(sp)
0x8000fe98:  1800              addi                    s0,sp,48
0x8000fe9a:  340029f3          csrrs                   s3,mscratch,zero

----------------
IN: 
Priv: 3; Virt: 0
0x8000fe9e:  c549              beqz                    a0,138                  # 0x8000ff28

----------------
IN: 
Priv: 3; Virt: 0
0x8000fea0:  00007617          auipc                   a2,7                    # 0x80016ea0
0x8000fea4:  0a860613          addi                    a2,a2,168
0x8000fea8:  55fd              addi                    a1,zero,-1
0x8000feaa:  84aa              mv                      s1,a0
0x8000feac:  cf1fd0ef          jal                     ra,-8976                # 0x8000db9c

----------------
IN: 
Priv: 3; Virt: 0
0x8000feb0:  892a              mv                      s2,a0
0x8000feb2:  06054963          bltz                    a0,114                  # 0x8000ff24

----------------
IN: 
Priv: 3; Virt: 0
0x8000ff24:  59fd              addi                    s3,zero,-1
0x8000ff26:  b7f9              j                       -50                     # 0x8000fef4

----------------
IN: 
Priv: 3; Virt: 0
0x8000fef4:  70a2              ld                      ra,40(sp)
0x8000fef6:  7402              ld                      s0,32(sp)
0x8000fef8:  64e2              ld                      s1,24(sp)
0x8000fefa:  6942              ld                      s2,16(sp)
0x8000fefc:  854e              mv                      a0,s3
0x8000fefe:  69a2              ld                      s3,8(sp)
0x8000ff00:  6145              addi                    sp,sp,48
0x8000ff02:  8082              ret                     

----------------
IN: 
Priv: 3; Virt: 0
0x80012256:  60e2              ld                      ra,24(sp)
0x80012258:  6442              ld                      s0,16(sp)
0x8001225a:  64a2              ld                      s1,8(sp)
0x8001225c:  6105              addi                    sp,sp,32
0x8001225e:  8082              ret                     

----------------
IN: 
Priv: 3; Virt: 0
0x80003b08:  8526              mv                      a0,s1
0x80003b0a:  0c80c0ef          jal                     ra,49352                # 0x8000fbd2

----------------
IN: 
Priv: 3; Virt: 0
0x8000fbd2:  711d              addi                    sp,sp,-96
0x8000fbd4:  e8a2              sd                      s0,80(sp)
0x8000fbd6:  e4a6              sd                      s1,72(sp)
0x8000fbd8:  ec86              sd                      ra,88(sp)
0x8000fbda:  e0ca              sd                      s2,64(sp)
0x8000fbdc:  fc4e              sd                      s3,56(sp)
0x8000fbde:  f852              sd                      s4,48(sp)
0x8000fbe0:  f456              sd                      s5,40(sp)
0x8000fbe2:  1080              addi                    s0,sp,96
0x8000fbe4:  84aa              mv                      s1,a0
0x8000fbe6:  f14027f3          csrrs                   a5,mhartid,zero

----------------
IN: 
Priv: 3; Virt: 0
0x8000fbea:  1782              slli                    a5,a5,32
0x8000fbec:  83f5              srli                    a5,a5,29
0x8000fbee:  00009717          auipc                   a4,9                    # 0x80018bee
0x8000fbf2:  70a73703          ld                      a4,1802(a4)
0x8000fbf6:  97ba              add                     a5,a5,a4
0x8000fbf8:  00006597          auipc                   a1,6                    # 0x80015bf8
0x8000fbfc:  d7858593          addi                    a1,a1,-648
0x8000fc00:  0007ba03          ld                      s4,0(a5)
0x8000fc04:  965fd0ef          jal                     ra,-9884                # 0x8000d568

----------------
IN: 
Priv: 3; Virt: 0
0x8000fc08:  08054863          bltz                    a0,144                  # 0x8000fc98

----------------
IN: 
Priv: 3; Virt: 0
0x8000fc0c:  85aa              mv                      a1,a0
0x8000fc0e:  8526              mv                      a0,s1
0x8000fc10:  ba3fc0ef          jal                     ra,-13406               # 0x8000c7b2

----------------
IN: 
Priv: 3; Virt: 0
0x8000fc14:  faa42623          sw                      a0,-84(s0)
0x8000fc18:  85aa              mv                      a1,a0
0x8000fc1a:  04054563          bltz                    a0,74                   # 0x8000fc64

----------------
IN: 
Priv: 3; Virt: 0
0x8000fc1e:  fa440913          addi                    s2,s0,-92
0x8000fc22:  00007997          auipc                   s3,7                    # 0x80016c22
0x8000fc26:  31698993          addi                    s3,s3,790
0x8000fc2a:  864a              mv                      a2,s2
0x8000fc2c:  8526              mv                      a0,s1
0x8000fc2e:  4b5000ef          jal                     ra,3252                 # 0x800108e2

----------------
IN: 
Priv: 3; Virt: 0
0x8000fc32:  87aa              mv                      a5,a0
0x8000fc34:  8526              mv                      a0,s1
0x8000fc36:  ef89              bnez                    a5,26                   # 0x8000fc50

----------------
IN: 
Priv: 3; Virt: 0
0x8000fc38:  fac42583          lw                      a1,-84(s0)
0x8000fc3c:  435000ef          jal                     ra,3124                 # 0x80010870

----------------
IN: 
Priv: 3; Virt: 0
0x8000fc40:  87aa              mv                      a5,a0
0x8000fc42:  864e              mv                      a2,s3
0x8000fc44:  8526              mv                      a0,s1
0x8000fc46:  c789              beqz                    a5,10                   # 0x8000fc50

----------------
IN: 
Priv: 3; Virt: 0
0x8000fc48:  fac42583          lw                      a1,-84(s0)
0x8000fc4c:  4d1040ef          jal                     ra,19664                # 0x8001491c

----------------
IN: 
Priv: 3; Virt: 0
0x8001491c:  1101              addi                    sp,sp,-32
0x8001491e:  e822              sd                      s0,16(sp)
0x80014920:  ec06              sd                      ra,24(sp)
0x80014922:  1000              addi                    s0,sp,32
0x80014924:  fec40693          addi                    a3,s0,-20
0x80014928:  fc8f80ef          jal                     ra,-30776               # 0x8000d0f0

----------------
IN: 
Priv: 3; Virt: 0
0x8001492c:  c115              beqz                    a0,36                   # 0x80014950

----------------
IN: 
Priv: 3; Virt: 0
0x80014950:  fec42503          lw                      a0,-20(s0)
0x80014954:  60e2              ld                      ra,24(sp)
0x80014956:  6442              ld                      s0,16(sp)
0x80014958:  6105              addi                    sp,sp,32
0x8001495a:  8082              ret                     

----------------
IN: 
Priv: 3; Virt: 0
0x8000fc50:  fac42583          lw                      a1,-84(s0)
0x8000fc54:  8526              mv                      a0,s1
0x8000fc56:  b8bfc0ef          jal                     ra,-13430               # 0x8000c7e0

----------------
IN: 
Priv: 3; Virt: 0
0x8000fc5a:  faa42623          sw                      a0,-84(s0)
0x8000fc5e:  85aa              mv                      a1,a0
0x8000fc60:  fc0555e3          bgez                    a0,-54                  # 0x8000fc2a

----------------
IN: 
Priv: 3; Virt: 0
0x8000fc2a:  864a              mv                      a2,s2
0x8000fc2c:  8526              mv                      a0,s1
0x8000fc2e:  4b5000ef          jal                     ra,3252                 # 0x800108e2

----------------
IN: 
Priv: 3; Virt: 0
0x8000fc64:  000a2783          lw                      a5,0(s4)
0x8000fc68:  e3a9              bnez                    a5,66                   # 0x8000fcaa

----------------
IN: 
Priv: 3; Virt: 0
0x8000fc6a:  00007597          auipc                   a1,7                    # 0x80016c6a
0x8000fc6e:  dd658593          addi                    a1,a1,-554
0x8000fc72:  8526              mv                      a0,s1
0x8000fc74:  8f5fd0ef          jal                     ra,-9996                # 0x8000d568

----------------
IN: 
Priv: 3; Virt: 0
0x8000fc78:  85aa              mv                      a1,a0
0x8000fc7a:  00054f63          bltz                    a0,30                   # 0x8000fc98

----------------
IN: 
Priv: 3; Virt: 0
0x8000fc7e:  00007617          auipc                   a2,7                    # 0x80016c7e
0x8000fc82:  1fa60613          addi                    a2,a2,506
0x8000fc86:  8526              mv                      a0,s1
0x8000fc88:  f15fd0ef          jal                     ra,-8428                # 0x8000db9c

----------------
IN: 
Priv: 3; Virt: 0
0x8000fc8c:  85aa              mv                      a1,a0
0x8000fc8e:  00054563          bltz                    a0,10                   # 0x8000fc98

----------------
IN: 
Priv: 3; Virt: 0
0x8000fc98:  60e6              ld                      ra,88(sp)
0x8000fc9a:  6446              ld                      s0,80(sp)
0x8000fc9c:  64a6              ld                      s1,72(sp)
0x8000fc9e:  6906              ld                      s2,64(sp)
0x8000fca0:  79e2              ld                      s3,56(sp)
0x8000fca2:  7a42              ld                      s4,48(sp)
0x8000fca4:  7aa2              ld                      s5,40(sp)
0x8000fca6:  6125              addi                    sp,sp,96
0x8000fca8:  8082              ret                     

----------------
IN: 
Priv: 3; Virt: 0
0x80003b0e:  60e2              ld                      ra,24(sp)
0x80003b10:  6442              ld                      s0,16(sp)
0x80003b12:  64a2              ld                      s1,8(sp)
0x80003b14:  4501              mv                      a0,zero
0x80003b16:  6105              addi                    sp,sp,32
0x80003b18:  8082              ret                     

----------------
IN: 
Priv: 3; Virt: 0
0x80000960:  862a              mv                      a2,a0
0x80000962:  2e051763          bnez                    a0,750                  # 0x80000c50

----------------
IN: 
Priv: 3; Virt: 0
0x80000966:  0504b983          ld                      s3,80(s1)
0x8000096a:  0019f993          andi                    s3,s3,1
0x8000096e:  12099e63          bnez                    s3,316                  # 0x80000aaa

----------------
IN: 
Priv: 3; Virt: 0
0x80000972:  0304bb03          ld                      s6,48(s1)
0x80000976:  320b0c63          beqz                    s6,824                  # 0x80000cae

----------------
IN: 
Priv: 3; Virt: 0
0x8000097a:  008b0593          addi                    a1,s6,8
0x8000097e:  00015517          auipc                   a0,21                   # 0x8001597e
0x80000982:  90250513          addi                    a0,a0,-1790
0x80000986:  42e050ef          jal                     ra,21550                # 0x80005db4

----------------
IN: 
Priv: 3; Virt: 0
0x80005b7e:  0009b603          ld                      a2,0(s3)
0x80005b82:  09a1              addi                    s3,s3,8
0x80005b84:  c241              beqz                    a2,128                  # 0x80005c04

----------------
IN: 
Priv: 3; Virt: 0
0x80005b86:  8742              mv                      a4,a6
0x80005b88:  86be              mv                      a3,a5
0x80005b8a:  85e6              mv                      a1,s9
0x80005b8c:  8552              mv                      a0,s4
0x80005b8e:  c49ff0ef          jal                     ra,-952                 # 0x800057d6

----------------
IN: 
Priv: 3; Virt: 0
0x80005b92:  01750bbb          addw                    s7,a0,s7
0x80005b96:  00148a93          addi                    s5,s1,1
0x80005b9a:  bf5d              j                       -74                     # 0x80005b50

----------------
IN: 
Priv: 3; Virt: 0
0x8000098a:  f3040b93          addi                    s7,s0,-208
0x8000098e:  08000613          addi                    a2,zero,128
0x80000992:  855a              mv                      a0,s6
0x80000994:  85de              mv                      a1,s7
0x80000996:  12f000ef          jal                     ra,2350                 # 0x800012c4

----------------
IN: 
Priv: 3; Virt: 0
0x800012c4:  c955              beqz                    a0,180                  # 0x80001378

----------------
IN: 
Priv: 3; Virt: 0
0x800012c6:  711d              addi                    sp,sp,-96
0x800012c8:  e8a2              sd                      s0,80(sp)
0x800012ca:  e4a6              sd                      s1,72(sp)
0x800012cc:  ec86              sd                      ra,88(sp)
0x800012ce:  e0ca              sd                      s2,64(sp)
0x800012d0:  fc4e              sd                      s3,56(sp)
0x800012d2:  f852              sd                      s4,48(sp)
0x800012d4:  f456              sd                      s5,40(sp)
0x800012d6:  f05a              sd                      s6,32(sp)
0x800012d8:  ec5e              sd                      s7,24(sp)
0x800012da:  e862              sd                      s8,16(sp)
0x800012dc:  e466              sd                      s9,8(sp)
0x800012de:  1080              addi                    s0,sp,96
0x800012e0:  84ae              mv                      s1,a1
0x800012e2:  c199              beqz                    a1,6                    # 0x800012e8

----------------
IN: 
Priv: 3; Virt: 0
0x800012e4:  8932              mv                      s2,a2
0x800012e6:  ee11              bnez                    a2,28                   # 0x80001302

----------------
IN: 
Priv: 3; Virt: 0
0x80001302:  89aa              mv                      s3,a0
0x80001304:  4581              mv                      a1,zero
0x80001306:  8526              mv                      a0,s1
0x80001308:  378010ef          jal                     ra,4984                 # 0x80002680

----------------
IN: 
Priv: 3; Virt: 0
0x8000130c:  0489b783          ld                      a5,72(s3)
0x80001310:  8bca              mv                      s7,s2
0x80001312:  c7a9              beqz                    a5,74                   # 0x8000135c

----------------
IN: 
Priv: 3; Virt: 0
0x80001314:  4a85              addi                    s5,zero,1
0x80001316:  4a01              mv                      s4,zero
0x80001318:  4b05              addi                    s6,zero,1
0x8000131a:  0027f993          andi                    s3,a5,2
0x8000131e:  00014c97          auipc                   s9,20                   # 0x8001531e
0x80001322:  2aac8c93          addi                    s9,s9,682
0x80001326:  00014c17          auipc                   s8,20                   # 0x80015326
0x8000132a:  2aac0c13          addi                    s8,s8,682
0x8000132e:  036a9563          bne                     s5,s6,42                # 0x80001358

----------------
IN: 
Priv: 3; Virt: 0
0x80001332:  414905bb          subw                    a1,s2,s4
0x80001336:  01448533          add                     a0,s1,s4
0x8000133a:  86e6              mv                      a3,s9
0x8000133c:  8662              mv                      a2,s8
0x8000133e:  4a89              addi                    s5,zero,2
0x80001340:  fe0987e3          beqz                    s3,-18                  # 0x8000132e

----------------
IN: 
Priv: 3; Virt: 0
0x80001344:  3c7040ef          jal                     ra,19398                # 0x80005f0a

----------------
IN: 
Priv: 3; Virt: 0
0x80001348:  00054863          bltz                    a0,16                   # 0x80001358

----------------
IN: 
Priv: 3; Virt: 0
0x8000134c:  01450a3b          addw                    s4,a0,s4
0x80001350:  032a5063          ble                     s2,s4,32                # 0x80001370

----------------
IN: 
Priv: 3; Virt: 0
0x80001354:  fd6a8fe3          beq                     s5,s6,-34               # 0x80001332

----------------
IN: 
Priv: 3; Virt: 0
0x80001358:  000a1b63          bnez                    s4,22                   # 0x8000136e

----------------
IN: 
Priv: 3; Virt: 0
0x8000136e:  8bd2              mv                      s7,s4
0x80001370:  94de              add                     s1,s1,s7
0x80001372:  fe048fa3          sb                      zero,-1(s1)
0x80001376:  bf8d              j                       -142                    # 0x800012e8

----------------
IN: 
Priv: 3; Virt: 0
0x800012e8:  60e6              ld                      ra,88(sp)
0x800012ea:  6446              ld                      s0,80(sp)
0x800012ec:  64a6              ld                      s1,72(sp)
0x800012ee:  6906              ld                      s2,64(sp)
0x800012f0:  79e2              ld                      s3,56(sp)
0x800012f2:  7a42              ld                      s4,48(sp)
0x800012f4:  7aa2              ld                      s5,40(sp)
0x800012f6:  7b02              ld                      s6,32(sp)
0x800012f8:  6be2              ld                      s7,24(sp)
0x800012fa:  6c42              ld                      s8,16(sp)
0x800012fc:  6ca2              ld                      s9,8(sp)
0x800012fe:  6125              addi                    sp,sp,96
0x80001300:  8082              ret                     

----------------
IN: 
Priv: 3; Virt: 0
0x8000099a:  85de              mv                      a1,s7
0x8000099c:  00015517          auipc                   a0,21                   # 0x8001599c
0x800009a0:  90450513          addi                    a0,a0,-1788
0x800009a4:  410050ef          jal                     ra,21520                # 0x80005db4

----------------
IN: 
Priv: 3; Virt: 0
0x800009a8:  050b2583          lw                      a1,80(s6)
0x800009ac:  00015517          auipc                   a0,21                   # 0x800159ac
0x800009b0:  91450513          addi                    a0,a0,-1772
0x800009b4:  400050ef          jal                     ra,21504                # 0x80005db4

----------------
IN: 
Priv: 3; Virt: 0
0x80005ab2:  05800713          addi                    a4,zero,88
0x80005ab6:  18e60e63          beq                     a2,a4,412               # 0x80005c52

----------------
IN: 
Priv: 3; Virt: 0
0x80005aba:  07500713          addi                    a4,zero,117
0x80005abe:  18e60f63          beq                     a2,a4,414               # 0x80005c5c

----------------
IN: 
Priv: 3; Virt: 0
0x80005c5c:  0009e603          lwu                     a2,0(s3)
0x80005c60:  06100893          addi                    a7,zero,97
0x80005c64:  4701              mv                      a4,zero
0x80005c66:  46a9              addi                    a3,zero,10
0x80005c68:  b709              j                       -254                    # 0x80005b6a

----------------
IN: 
Priv: 3; Virt: 0
0x800009b8:  702000ef          jal                     ra,1794                 # 0x800010ba

----------------
IN: 
Priv: 3; Virt: 0
0x800010ba:  1141              addi                    sp,sp,-16
0x800010bc:  e422              sd                      s0,8(sp)
0x800010be:  0800              addi                    s0,sp,16
0x800010c0:  6422              ld                      s0,8(sp)
0x800010c2:  0001b517          auipc                   a0,27                   # 0x8001c0c2
0x800010c6:  17653503          ld                      a0,374(a0)
0x800010ca:  0141              addi                    sp,sp,16
0x800010cc:  8082              ret                     

----------------
IN: 
Priv: 3; Virt: 0
0x800009bc:  85aa              mv                      a1,a0
0x800009be:  2e050363          beqz                    a0,742                  # 0x80000ca4

----------------
IN: 
Priv: 3; Virt: 0
0x800009c2:  00015517          auipc                   a0,21                   # 0x800159c2
0x800009c6:  91e50513          addi                    a0,a0,-1762
0x800009ca:  3ea050ef          jal                     ra,21482                # 0x80005db4

----------------
IN: 
Priv: 3; Virt: 0
0x800009ce:  1d2020ef          jal                     ra,8658                 # 0x80002ba0

----------------
IN: 
Priv: 3; Virt: 0
0x80002ba0:  1141              addi                    sp,sp,-16
0x80002ba2:  e422              sd                      s0,8(sp)
0x80002ba4:  0800              addi                    s0,sp,16
0x80002ba6:  6422              ld                      s0,8(sp)
0x80002ba8:  00026517          auipc                   a0,38                   # 0x80028ba8
0x80002bac:  eb853503          ld                      a0,-328(a0)
0x80002bb0:  0141              addi                    sp,sp,16
0x80002bb2:  8082              ret                     

----------------
IN: 
Priv: 3; Virt: 0
0x800009d2:  85aa              mv                      a1,a0
0x800009d4:  2c050363          beqz                    a0,710                  # 0x80000c9a

----------------
IN: 
Priv: 3; Virt: 0
0x800009d8:  02053983          ld                      s3,32(a0)
0x800009dc:  864e              mv                      a2,s3
0x800009de:  00015517          auipc                   a0,21                   # 0x800159de
0x800009e2:  92250513          addi                    a0,a0,-1758
0x800009e6:  3ce050ef          jal                     ra,21454                # 0x80005db4

----------------
IN: 
Priv: 3; Virt: 0
0x80005ac2:  07000713          addi                    a4,zero,112
0x80005ac6:  1ae60263          beq                     a2,a4,420               # 0x80005c6a

----------------
IN: 
Priv: 3; Virt: 0
0x80005aca:  05000713          addi                    a4,zero,80
0x80005ace:  1ae60163          beq                     a2,a4,418               # 0x80005c70

----------------
IN: 
Priv: 3; Virt: 0
0x80005ad2:  06c00713          addi                    a4,zero,108
0x80005ad6:  00148a93          addi                    s5,s1,1
0x80005ada:  0ce60363          beq                     a2,a4,198               # 0x80005ba0

----------------
IN: 
Priv: 3; Virt: 0
0x80005ba0:  0014c703          lbu                     a4,1(s1)
0x80005ba4:  0009b583          ld                      a1,0(s3)
0x80005ba8:  09a1              addi                    s3,s3,8
0x80005baa:  0cc70863          beq                     a4,a2,208               # 0x80005c7a

----------------
IN: 
Priv: 3; Virt: 0
0x80005bae:  07500693          addi                    a3,zero,117
0x80005bb2:  00148a93          addi                    s5,s1,1
0x80005bb6:  10d70763          beq                     a4,a3,270               # 0x80005cc4

----------------
IN: 
Priv: 3; Virt: 0
0x80005cc4:  06100893          addi                    a7,zero,97
0x80005cc8:  f7043823          sd                      a6,-144(s0)
0x80005ccc:  f6f43c23          sd                      a5,-136(s0)
0x80005cd0:  4701              mv                      a4,zero
0x80005cd2:  46a9              addi                    a3,zero,10
0x80005cd4:  bfb9              j                       -162                    # 0x80005c32

----------------
IN: 
Priv: 3; Virt: 0
0x80005c32:  862e              mv                      a2,a1
0x80005c34:  8552              mv                      a0,s4
0x80005c36:  85e6              mv                      a1,s9
0x80005c38:  c95ff0ef          jal                     ra,-876                 # 0x800058cc

----------------
IN: 
Priv: 3; Virt: 0
0x80005c3c:  00248713          addi                    a4,s1,2
0x80005c40:  f7843783          ld                      a5,-136(s0)
0x80005c44:  84d6              mv                      s1,s5
0x80005c46:  f7043803          ld                      a6,-144(s0)
0x80005c4a:  01750bbb          addw                    s7,a0,s7
0x80005c4e:  8aba              mv                      s5,a4
0x80005c50:  b579              j                       -370                    # 0x80005ade

----------------
IN: 
Priv: 3; Virt: 0
0x80005ade:  0004c683          lbu                     a3,0(s1)
0x80005ae2:  06300713          addi                    a4,zero,99
0x80005ae6:  06e69563          bne                     a3,a4,106               # 0x80005b50

----------------
IN: 
Priv: 3; Virt: 0
0x800009ea:  56a050ef          jal                     ra,21866                # 0x80005f54

----------------
IN: 
Priv: 3; Virt: 0
0x80005f54:  1141              addi                    sp,sp,-16
0x80005f56:  e422              sd                      s0,8(sp)
0x80005f58:  0800              addi                    s0,sp,16
0x80005f5a:  6422              ld                      s0,8(sp)
0x80005f5c:  00023517          auipc                   a0,35                   # 0x80028f5c
0x80005f60:  d3c53503          ld                      a0,-708(a0)
0x80005f64:  0141              addi                    sp,sp,16
0x80005f66:  8082              ret                     

----------------
IN: 
Priv: 3; Virt: 0
0x800009ee:  85aa              mv                      a1,a0
0x800009f0:  2a050063          beqz                    a0,672                  # 0x80000c90

----------------
IN: 
Priv: 3; Virt: 0
0x800009f4:  00015517          auipc                   a0,21                   # 0x800159f4
0x800009f8:  93450513          addi                    a0,a0,-1740
0x800009fc:  3b8050ef          jal                     ra,21432                # 0x80005db4

----------------
IN: 
Priv: 3; Virt: 0
0x80000a00:  667080ef          jal                     ra,36454                # 0x80009866

----------------
IN: 
Priv: 3; Virt: 0
0x80009866:  1141              addi                    sp,sp,-16
0x80009868:  e422              sd                      s0,8(sp)
0x8000986a:  0800              addi                    s0,sp,16
0x8000986c:  6422              ld                      s0,8(sp)
0x8000986e:  00020517          auipc                   a0,32                   # 0x8002986e
0x80009872:  b1a53503          ld                      a0,-1254(a0)
0x80009876:  0141              addi                    sp,sp,16
0x80009878:  8082              ret                     

----------------
IN: 
Priv: 3; Virt: 0
0x80000a04:  85aa              mv                      a1,a0
0x80000a06:  28050063          beqz                    a0,640                  # 0x80000c86

----------------
IN: 
Priv: 3; Virt: 0
0x80000c86:  00014597          auipc                   a1,20                   # 0x80014c86
0x80000c8a:  37a58593          addi                    a1,a1,890
0x80000c8e:  bbb5              j                       -644                    # 0x80000a0a

----------------
IN: 
Priv: 3; Virt: 0
0x80000a0a:  00015517          auipc                   a0,21                   # 0x80015a0a
0x80000a0e:  93e50513          addi                    a0,a0,-1730
0x80000a12:  3a2050ef          jal                     ra,21410                # 0x80005db4

----------------
IN: 
Priv: 3; Virt: 0
0x80000a16:  7ca010ef          jal                     ra,6090                 # 0x800021e0

----------------
IN: 
Priv: 3; Virt: 0
0x800021e0:  1141              addi                    sp,sp,-16
0x800021e2:  e422              sd                      s0,8(sp)
0x800021e4:  0800              addi                    s0,sp,16
0x800021e6:  6422              ld                      s0,8(sp)
0x800021e8:  0001a517          auipc                   a0,26                   # 0x8001c1e8
0x800021ec:  06053503          ld                      a0,96(a0)
0x800021f0:  0141              addi                    sp,sp,16
0x800021f2:  8082              ret                     

----------------
IN: 
Priv: 3; Virt: 0
0x80000a1a:  85aa              mv                      a1,a0
0x80000a1c:  26050063          beqz                    a0,608                  # 0x80000c7c

----------------
IN: 
Priv: 3; Virt: 0
0x80000c7c:  00014597          auipc                   a1,20                   # 0x80014c7c
0x80000c80:  38458593          addi                    a1,a1,900
0x80000c84:  bb71              j                       -612                    # 0x80000a20

----------------
IN: 
Priv: 3; Virt: 0
0x80000a20:  00015517          auipc                   a0,21                   # 0x80015a20
0x80000a24:  94850513          addi                    a0,a0,-1720
0x80000a28:  38c050ef          jal                     ra,21388                # 0x80005db4

----------------
IN: 
Priv: 3; Virt: 0
0x80000a2c:  4581              mv                      a1,zero
0x80000a2e:  4505              addi                    a0,zero,1
0x80000a30:  547010ef          jal                     ra,7494                 # 0x80002776

----------------
IN: 
Priv: 3; Virt: 0
0x80002776:  7139              addi                    sp,sp,-64
0x80002778:  f822              sd                      s0,48(sp)
0x8000277a:  f426              sd                      s1,40(sp)
0x8000277c:  e852              sd                      s4,16(sp)
0x8000277e:  fc06              sd                      ra,56(sp)
0x80002780:  f04a              sd                      s2,32(sp)
0x80002782:  ec4e              sd                      s3,24(sp)
0x80002784:  e456              sd                      s5,8(sp)
0x80002786:  e05a              sd                      s6,0(sp)
0x80002788:  0080              addi                    s0,sp,64
0x8000278a:  00016a17          auipc                   s4,22                   # 0x8001878a
0x8000278e:  9aea0a13          addi                    s4,s4,-1618
0x80002792:  000a3483          ld                      s1,0(s4)
0x80002796:  05448063          beq                     s1,s4,64                # 0x800027d6

----------------
IN: 
Priv: 3; Virt: 0
0x800027d6:  4b01              mv                      s6,zero
0x800027d8:  b7e5              j                       -24                     # 0x800027c0

----------------
IN: 
Priv: 3; Virt: 0
0x800027c0:  70e2              ld                      ra,56(sp)
0x800027c2:  7442              ld                      s0,48(sp)
0x800027c4:  74a2              ld                      s1,40(sp)
0x800027c6:  7902              ld                      s2,32(sp)
0x800027c8:  69e2              ld                      s3,24(sp)
0x800027ca:  6a42              ld                      s4,16(sp)
0x800027cc:  6aa2              ld                      s5,8(sp)
0x800027ce:  855a              mv                      a0,s6
0x800027d0:  6b02              ld                      s6,0(sp)
0x800027d2:  6121              addi                    sp,sp,64
0x800027d4:  8082              ret                     

----------------
IN: 
Priv: 3; Virt: 0
0x80000a34:  85aa              mv                      a1,a0
0x80000a36:  22050e63          beqz                    a0,572                  # 0x80000c72

----------------
IN: 
Priv: 3; Virt: 0
0x80000c72:  00014597          auipc                   a1,20                   # 0x80014c72
0x80000c76:  38e58593          addi                    a1,a1,910
0x80000c7a:  b3c1              j                       -576                    # 0x80000a3a

----------------
IN: 
Priv: 3; Virt: 0
0x80000a3a:  00015517          auipc                   a0,21                   # 0x80015a3a
0x80000a3e:  94e50513          addi                    a0,a0,-1714
0x80000a42:  372050ef          jal                     ra,21362                # 0x80005db4

----------------
IN: 
Priv: 3; Virt: 0
0x80000a46:  4581              mv                      a1,zero
0x80000a48:  4501              mv                      a0,zero
0x80000a4a:  52d010ef          jal                     ra,7468                 # 0x80002776

----------------
IN: 
Priv: 3; Virt: 0
0x80000a4e:  85aa              mv                      a1,a0
0x80000a50:  20050c63          beqz                    a0,536                  # 0x80000c68

----------------
IN: 
Priv: 3; Virt: 0
0x80000c68:  00014597          auipc                   a1,20                   # 0x80014c68
0x80000c6c:  39858593          addi                    a1,a1,920
0x80000c70:  b3d5              j                       -540                    # 0x80000a54

----------------
IN: 
Priv: 3; Virt: 0
0x80000a54:  00015517          auipc                   a0,21                   # 0x80015a54
0x80000a58:  95450513          addi                    a0,a0,-1708
0x80000a5c:  358050ef          jal                     ra,21336                # 0x80005db4

----------------
IN: 
Priv: 3; Virt: 0
0x80000a60:  608c              ld                      a1,0(s1)
0x80000a62:  00015517          auipc                   a0,21                   # 0x80015a62
0x80000a66:  96650513          addi                    a0,a0,-1690
0x80000a6a:  34a050ef          jal                     ra,21322                # 0x80005db4

----------------
IN: 
Priv: 3; Virt: 0
0x80005bba:  07800693          addi                    a3,zero,120
0x80005bbe:  06d70263          beq                     a4,a3,100               # 0x80005c22

----------------
IN: 
Priv: 3; Virt: 0
0x80005c22:  06100893          addi                    a7,zero,97
0x80005c26:  f7043823          sd                      a6,-144(s0)
0x80005c2a:  f6f43c23          sd                      a5,-136(s0)
0x80005c2e:  4701              mv                      a4,zero
0x80005c30:  46c1              addi                    a3,zero,16
0x80005c32:  862e              mv                      a2,a1
0x80005c34:  8552              mv                      a0,s4
0x80005c36:  85e6              mv                      a1,s9
0x80005c38:  c95ff0ef          jal                     ra,-876                 # 0x800058cc

----------------
IN: 
Priv: 3; Virt: 0
0x80000a6e:  648c              ld                      a1,8(s1)
0x80000a70:  00015517          auipc                   a0,21                   # 0x80015a70
0x80000a74:  98050513          addi                    a0,a0,-1664
0x80000a78:  81a9              srli                    a1,a1,10
0x80000a7a:  2581              sext.w                  a1,a1
0x80000a7c:  338050ef          jal                     ra,21304                # 0x80005db4

----------------
IN: 
Priv: 3; Virt: 0
0x80000a80:  6e7030ef          jal                     ra,16102                # 0x80004966

----------------
IN: 
Priv: 3; Virt: 0
0x80004966:  1141              addi                    sp,sp,-16
0x80004968:  e422              sd                      s0,8(sp)
0x8000496a:  0800              addi                    s0,sp,16
0x8000496c:  6422              ld                      s0,8(sp)
0x8000496e:  4505              addi                    a0,zero,1
0x80004970:  0141              addi                    sp,sp,16
0x80004972:  8082              ret                     

----------------
IN: 
Priv: 3; Virt: 0
0x80000a84:  89aa              mv                      s3,a0
0x80000a86:  6ef030ef          jal                     ra,16110                # 0x80004974

----------------
IN: 
Priv: 3; Virt: 0
0x80004974:  1141              addi                    sp,sp,-16
0x80004976:  e422              sd                      s0,8(sp)
0x80004978:  0800              addi                    s0,sp,16
0x8000497a:  6422              ld                      s0,8(sp)
0x8000497c:  4501              mv                      a0,zero
0x8000497e:  0141              addi                    sp,sp,16
0x80004980:  8082              ret                     

----------------
IN: 
Priv: 3; Virt: 0
0x80000a8a:  0005061b          sext.w                  a2,a0
0x80000a8e:  0009859b          sext.w                  a1,s3
0x80000a92:  00015517          auipc                   a0,21                   # 0x80015a92
0x80000a96:  98650513          addi                    a0,a0,-1658
0x80000a9a:  31a050ef          jal                     ra,21274                # 0x80005db4

----------------
IN: 
Priv: 3; Virt: 0
0x80000a9e:  00014517          auipc                   a0,20                   # 0x80014a9e
0x80000aa2:  6a250513          addi                    a0,a0,1698
0x80000aa6:  30e050ef          jal                     ra,21262                # 0x80005db4

----------------
IN: 
Priv: 3; Virt: 0
0x80000aaa:  68bc              ld                      a5,80(s1)
0x80000aac:  8b85              andi                    a5,a5,1
0x80000aae:  e799              bnez                    a5,14                   # 0x80000abc

----------------
IN: 
Priv: 3; Virt: 0
0x80000ab0:  00015517          auipc                   a0,21                   # 0x80015ab0
0x80000ab4:  99050513          addi                    a0,a0,-1648
0x80000ab8:  4a3050ef          jal                     ra,23714                # 0x8000675a

----------------
IN: 
Priv: 3; Virt: 0
0x8000675a:  7179              addi                    sp,sp,-48
0x8000675c:  f022              sd                      s0,32(sp)
0x8000675e:  e84a              sd                      s2,16(sp)
0x80006760:  f406              sd                      ra,40(sp)
0x80006762:  ec26              sd                      s1,24(sp)
0x80006764:  e44e              sd                      s3,8(sp)
0x80006766:  1800              addi                    s0,sp,48
0x80006768:  892a              mv                      s2,a0
0x8000676a:  00022517          auipc                   a0,34                   # 0x8002876a
0x8000676e:  55653503          ld                      a0,1366(a0)
0x80006772:  c11d              beqz                    a0,38                   # 0x80006798

----------------
IN: 
Priv: 3; Virt: 0
0x80006774:  00022497          auipc                   s1,34                   # 0x80028774
0x80006778:  55448493          addi                    s1,s1,1364
0x8000677c:  0000f997          auipc                   s3,15                   # 0x8001577c
0x80006780:  9c498993          addi                    s3,s3,-1596
0x80006784:  85ca              mv                      a1,s2
0x80006786:  cefff0ef          jal                     ra,-786                 # 0x80006474

----------------
IN: 
Priv: 3; Virt: 0
0x80006474:  711d              addi                    sp,sp,-96
0x80006476:  ec86              sd                      ra,88(sp)
0x80006478:  e8a2              sd                      s0,80(sp)
0x8000647a:  e4a6              sd                      s1,72(sp)
0x8000647c:  1080              addi                    s0,sp,96
0x8000647e:  e0ca              sd                      s2,64(sp)
0x80006480:  fc4e              sd                      s3,56(sp)
0x80006482:  f852              sd                      s4,48(sp)
0x80006484:  f456              sd                      s5,40(sp)
0x80006486:  f05a              sd                      s6,32(sp)
0x80006488:  ec5e              sd                      s7,24(sp)
0x8000648a:  e862              sd                      s8,16(sp)
0x8000648c:  e466              sd                      s9,8(sp)
0x8000648e:  e06a              sd                      s10,0(sp)
0x80006490:  89ae              mv                      s3,a1
0x80006492:  410c              lw                      a1,0(a0)
0x80006494:  892a              mv                      s2,a0
0x80006496:  01850693          addi                    a3,a0,24
0x8000649a:  864e              mv                      a2,s3
0x8000649c:  00010517          auipc                   a0,16                   # 0x8001649c
0x800064a0:  00c50513          addi                    a0,a0,12
0x800064a4:  911ff0ef          jal                     ra,-1776                # 0x80005db4

----------------
IN: 
Priv: 3; Virt: 0
0x800064a8:  06892683          lw                      a3,104(s2)
0x800064ac:  00092583          lw                      a1,0(s2)
0x800064b0:  864e              mv                      a2,s3
0x800064b2:  00010517          auipc                   a0,16                   # 0x800164b2
0x800064b6:  01650513          addi                    a0,a0,22
0x800064ba:  8fbff0ef          jal                     ra,-1798                # 0x80005db4

----------------
IN: 
Priv: 3; Virt: 0
0x800064be:  00092583          lw                      a1,0(s2)
0x800064c2:  864e              mv                      a2,s3
0x800064c4:  00010517          auipc                   a0,16                   # 0x800164c4
0x800064c8:  02450513          addi                    a0,a0,36
0x800064cc:  8e9ff0ef          jal                     ra,-1816                # 0x80005db4

----------------
IN: 
Priv: 3; Virt: 0
0x800064d0:  05893503          ld                      a0,88(s2)
0x800064d4:  08000593          addi                    a1,zero,128
0x800064d8:  ea7fe0ef          jal                     ra,-4442                # 0x8000537e

----------------
IN: 
Priv: 3; Virt: 0
0x800064dc:  0005049b          sext.w                  s1,a0
0x800064e0:  07f00793          addi                    a5,zero,127
0x800064e4:  0697ed63          bgtu                    s1,a5,122               # 0x8000655e

----------------
IN: 
Priv: 3; Virt: 0
0x800064e8:  0000f597          auipc                   a1,15                   # 0x800154e8
0x800064ec:  b3058593          addi                    a1,a1,-1232
0x800064f0:  00890a13          addi                    s4,s2,8
0x800064f4:  4d05              addi                    s10,zero,1
0x800064f6:  00010b97          auipc                   s7,16                   # 0x800164f6
0x800064fa:  f8ab8b93          addi                    s7,s7,-118
0x800064fe:  8cae              mv                      s9,a1
0x80006500:  00010b17          auipc                   s6,16                   # 0x80016500
0x80006504:  008b0b13          addi                    s6,s6,8
0x80006508:  07f00a93          addi                    s5,zero,127
0x8000650c:  00010c17          auipc                   s8,16                   # 0x8001650c
0x80006510:  f6cc0c13          addi                    s8,s8,-148
0x80006514:  4064d793          srai                    a5,s1,6
0x80006518:  078e              slli                    a5,a5,3
0x8000651a:  97d2              add                     a5,a5,s4
0x8000651c:  639c              ld                      a5,0(a5)
0x8000651e:  8626              mv                      a2,s1
0x80006520:  855a              mv                      a0,s6
0x80006522:  0097d7b3          srl                     a5,a5,s1
0x80006526:  8b85              andi                    a5,a5,1
0x80006528:  86de              mv                      a3,s7
0x8000652a:  e391              bnez                    a5,4                    # 0x8000652e

----------------
IN: 
Priv: 3; Virt: 0
0x8000652e:  887ff0ef          jal                     ra,-1914                # 0x80005db4

----------------
IN: 
Priv: 3; Virt: 0
0x80006532:  0014861b          addiw                   a2,s1,1
0x80006536:  05893503          ld                      a0,88(s2)
0x8000653a:  1602              slli                    a2,a2,32
0x8000653c:  9201              srli                    a2,a2,32
0x8000653e:  08000593          addi                    a1,zero,128
0x80006542:  ff7fe0ef          jal                     ra,-4106                # 0x80005538

----------------
IN: 
Priv: 3; Virt: 0
0x80006546:  0005049b          sext.w                  s1,a0
0x8000654a:  009aea63          bgtu                    s1,s5,20                # 0x8000655e

----------------
IN: 
Priv: 3; Virt: 0
0x8000654e:  85e2              mv                      a1,s8
0x80006550:  000d0463          beqz                    s10,8                   # 0x80006558

----------------
IN: 
Priv: 3; Virt: 0
0x80006554:  2d05              addiw                   s10,s10,1
0x80006556:  bf7d              j                       -66                     # 0x80006514

----------------
IN: 
Priv: 3; Virt: 0
0x80006514:  4064d793          srai                    a5,s1,6
0x80006518:  078e              slli                    a5,a5,3
0x8000651a:  97d2              add                     a5,a5,s4
0x8000651c:  639c              ld                      a5,0(a5)
0x8000651e:  8626              mv                      a2,s1
0x80006520:  855a              mv                      a0,s6
0x80006522:  0097d7b3          srl                     a5,a5,s1
0x80006526:  8b85              andi                    a5,a5,1
0x80006528:  86de              mv                      a3,s7
0x8000652a:  e391              bnez                    a5,4                    # 0x8000652e

----------------
IN: 
Priv: 3; Virt: 0
0x8000655e:  0000f517          auipc                   a0,15                   # 0x8001555e
0x80006562:  be250513          addi                    a0,a0,-1054
0x80006566:  84fff0ef          jal                     ra,-1970                # 0x80005db4

----------------
IN: 
Priv: 3; Virt: 0
0x8000656a:  06093483          ld                      s1,96(s2)
0x8000656e:  4a01              mv                      s4,zero
0x80006570:  6094              ld                      a3,0(s1)
0x80006572:  cac1              beqz                    a3,144                  # 0x80006602

----------------
IN: 
Priv: 3; Virt: 0
0x80006574:  4c85              addi                    s9,zero,1
0x80006576:  03f00b13          addi                    s6,zero,63
0x8000657a:  00010a97          auipc                   s5,16                   # 0x8001657a
0x8000657e:  006a8a93          addi                    s5,s5,6
0x80006582:  00010c17          auipc                   s8,16                   # 0x80016582
0x80006586:  f06c0c13          addi                    s8,s8,-250
0x8000658a:  01fc9b93          slli                    s7,s9,31
0x8000658e:  00010d17          auipc                   s10,16                  # 0x8001658e
0x80006592:  f02d0d13          addi                    s10,s10,-254
0x80006596:  6498              ld                      a4,8(s1)
0x80006598:  57fd              addi                    a5,zero,-1
0x8000659a:  00db6763          bgtu                    a3,s6,14                # 0x800065a8

----------------
IN: 
Priv: 3; Virt: 0
0x8000659e:  00dc96b3          sll                     a3,s9,a3
0x800065a2:  fff70793          addi                    a5,a4,-1
0x800065a6:  97b6              add                     a5,a5,a3
0x800065a8:  00092583          lw                      a1,0(s2)
0x800065ac:  86ce              mv                      a3,s3
0x800065ae:  8652              mv                      a2,s4
0x800065b0:  8556              mv                      a0,s5
0x800065b2:  803ff0ef          jal                     ra,-2046                # 0x80005db4

----------------
IN: 
Priv: 3; Virt: 0
0x80005a58:  0014c603          lbu                     a2,1(s1)
0x80005a5c:  00286813          ori                     a6,a6,2
0x80005a60:  0485              addi                    s1,s1,1
0x80005a62:  ffb60be3          beq                     a2,s11,-10              # 0x80005a58

----------------
IN: 
Priv: 3; Virt: 0
0x80005a72:  4781              mv                      a5,zero
0x80005a74:  0014c603          lbu                     a2,1(s1)
0x80005a78:  0027971b          slliw                   a4,a5,2
0x80005a7c:  9fb9              addw                    a5,a5,a4
0x80005a7e:  0017979b          slliw                   a5,a5,1
0x80005a82:  9fb5              addw                    a5,a5,a3
0x80005a84:  fd06069b          addiw                   a3,a2,-48
0x80005a88:  0ff6f713          andi                    a4,a3,255
0x80005a8c:  0485              addi                    s1,s1,1
0x80005a8e:  feed73e3          bleu                    a4,s10,-26              # 0x80005a74

----------------
IN: 
Priv: 3; Virt: 0
0x800057fc:  c661              beqz                    a2,200                  # 0x800058c4

----------------
IN: 
Priv: 3; Virt: 0
0x800057fe:  4585              addi                    a1,zero,1
0x80005800:  87a6              mv                      a5,s1
0x80005802:  9d85              subw                    a1,a1,s1
0x80005804:  0017c683          lbu                     a3,1(a5)
0x80005808:  00f58abb          addw                    s5,a1,a5
0x8000580c:  0785              addi                    a5,a5,1
0x8000580e:  fafd              bnez                    a3,-10                  # 0x80005804

----------------
IN: 
Priv: 3; Virt: 0
0x80005810:  014acf63          bgt                     s4,s5,30                # 0x8000582e

----------------
IN: 
Priv: 3; Virt: 0
0x8000582e:  415a0abb          subw                    s5,s4,s5
0x80005832:  00277793          andi                    a5,a4,2
0x80005836:  03000b93          addi                    s7,zero,48
0x8000583a:  cba5              beqz                    a5,112                  # 0x800058aa

----------------
IN: 
Priv: 3; Virt: 0
0x8000583c:  8b05              andi                    a4,a4,1
0x8000583e:  8a56              mv                      s4,s5
0x80005840:  ef2d              bnez                    a4,122                  # 0x800058ba

----------------
IN: 
Priv: 3; Virt: 0
0x80005842:  3a7d              addiw                   s4,s4,-1
0x80005844:  865e              mv                      a2,s7
0x80005846:  85ce              mv                      a1,s3
0x80005848:  854a              mv                      a0,s2
0x8000584a:  f39ff0ef          jal                     ra,-200                 # 0x80005782

----------------
IN: 
Priv: 3; Virt: 0
0x8000584e:  fe0a1ae3          bnez                    s4,-12                  # 0x80005842

----------------
IN: 
Priv: 3; Virt: 0
0x80005852:  0004c603          lbu                     a2,0(s1)
0x80005856:  ca15              beqz                    a2,52                   # 0x8000588a

----------------
IN: 
Priv: 3; Virt: 0
0x80005a74:  0014c603          lbu                     a2,1(s1)
0x80005a78:  0027971b          slliw                   a4,a5,2
0x80005a7c:  9fb9              addw                    a5,a5,a4
0x80005a7e:  0017979b          slliw                   a5,a5,1
0x80005a82:  9fb5              addw                    a5,a5,a3
0x80005a84:  fd06069b          addiw                   a3,a2,-48
0x80005a88:  0ff6f713          andi                    a4,a3,255
0x80005a8c:  0485              addi                    s1,s1,1
0x80005a8e:  feed73e3          bleu                    a4,s10,-26              # 0x80005a74

----------------
IN: 
Priv: 3; Virt: 0
0x80005804:  0017c683          lbu                     a3,1(a5)
0x80005808:  00f58abb          addw                    s5,a1,a5
0x8000580c:  0785              addi                    a5,a5,1
0x8000580e:  fafd              bnez                    a3,-10                  # 0x80005804

----------------
IN: 
Priv: 3; Virt: 0
0x8000593c:  967a              add                     a2,a2,t5
0x8000593e:  0306061b          addiw                   a2,a2,48
0x80005942:  00c48023          sb                      a2,0(s1)
0x80005946:  ffcef3e3          bleu                    t3,t4,-26               # 0x8000592c

----------------
IN: 
Priv: 3; Virt: 0
0x800065b6:  689c              ld                      a5,16(s1)
0x800065b8:  0087f713          andi                    a4,a5,8
0x800065bc:  12071863          bnez                    a4,304                  # 0x800066ec

----------------
IN: 
Priv: 3; Virt: 0
0x800065c0:  0177f733          and                     a4,a5,s7
0x800065c4:  cf79              beqz                    a4,222                  # 0x800066a2

----------------
IN: 
Priv: 3; Virt: 0
0x800065c6:  02800593          addi                    a1,zero,40
0x800065ca:  00010517          auipc                   a0,16                   # 0x800165ca
0x800065ce:  fee50513          addi                    a0,a0,-18
0x800065d2:  fe2ff0ef          jal                     ra,-2078                # 0x80005db4

----------------
IN: 
Priv: 3; Virt: 0
0x80005aea:  0009a883          lw                      a7,0(s3)
0x80005aee:  86be              mv                      a3,a5
0x80005af0:  8742              mv                      a4,a6
0x80005af2:  8662              mv                      a2,s8
0x80005af4:  85e6              mv                      a1,s9
0x80005af6:  8552              mv                      a0,s4
0x80005af8:  f9140423          sb                      a7,-120(s0)
0x80005afc:  f80404a3          sb                      zero,-119(s0)
0x80005b00:  cd7ff0ef          jal                     ra,-810                 # 0x800057d6

----------------
IN: 
Priv: 3; Virt: 0
0x80005b04:  0014c783          lbu                     a5,1(s1)
0x80005b08:  09a1              addi                    s3,s3,8
0x80005b0a:  00ab8bbb          addw                    s7,s7,a0
0x80005b0e:  ff91              bnez                    a5,-228                 # 0x80005a2a

----------------
IN: 
Priv: 3; Virt: 0
0x800065d6:  689c              ld                      a5,16(s1)
0x800065d8:  0017f713          andi                    a4,a5,1
0x800065dc:  12071b63          bnez                    a4,310                  # 0x80006712

----------------
IN: 
Priv: 3; Virt: 0
0x800065e0:  0027f713          andi                    a4,a5,2
0x800065e4:  ef71              bnez                    a4,220                  # 0x800066c0

----------------
IN: 
Priv: 3; Virt: 0
0x800065e6:  8b91              andi                    a5,a5,4
0x800065e8:  0e079863          bnez                    a5,240                  # 0x800066d8

----------------
IN: 
Priv: 3; Virt: 0
0x800065ec:  85e2              mv                      a1,s8
0x800065ee:  00010517          auipc                   a0,16                   # 0x800165ee
0x800065f2:  04250513          addi                    a0,a0,66
0x800065f6:  04e1              addi                    s1,s1,24
0x800065f8:  fbcff0ef          jal                     ra,-2116                # 0x80005db4

----------------
IN: 
Priv: 3; Virt: 0
0x800065fc:  6094              ld                      a3,0(s1)
0x800065fe:  2a05              addiw                   s4,s4,1
0x80006600:  fad9              bnez                    a3,-106                 # 0x80006596

----------------
IN: 
Priv: 3; Virt: 0
0x80006596:  6498              ld                      a4,8(s1)
0x80006598:  57fd              addi                    a5,zero,-1
0x8000659a:  00db6763          bgtu                    a3,s6,14                # 0x800065a8

----------------
IN: 
Priv: 3; Virt: 0
0x800066a2:  0017f713          andi                    a4,a5,1
0x800066a6:  02800593          addi                    a1,zero,40
0x800066aa:  c73d              beqz                    a4,110                  # 0x80006718

----------------
IN: 
Priv: 3; Virt: 0
0x80006718:  0027f713          andi                    a4,a5,2
0x8000671c:  c701              beqz                    a4,8                    # 0x80006724

----------------
IN: 
Priv: 3; Virt: 0
0x80006724:  8b91              andi                    a5,a5,4
0x80006726:  02800593          addi                    a1,zero,40
0x8000672a:  fbcd              bnez                    a5,-78                  # 0x800066dc

----------------
IN: 
Priv: 3; Virt: 0
0x8000672c:  85ea              mv                      a1,s10
0x8000672e:  b5c1              j                       -320                    # 0x800065ee

----------------
IN: 
Priv: 3; Virt: 0
0x800065ee:  00010517          auipc                   a0,16                   # 0x800165ee
0x800065f2:  04250513          addi                    a0,a0,66
0x800065f6:  04e1              addi                    s1,s1,24
0x800065f8:  fbcff0ef          jal                     ra,-2116                # 0x80005db4

----------------
IN: 
Priv: 3; Virt: 0
0x800065a8:  00092583          lw                      a1,0(s2)
0x800065ac:  86ce              mv                      a3,s3
0x800065ae:  8652              mv                      a2,s4
0x800065b0:  8556              mv                      a0,s5
0x800065b2:  803ff0ef          jal                     ra,-2046                # 0x80005db4

----------------
IN: 
Priv: 3; Virt: 0
0x80005814:  00277793          andi                    a5,a4,2
0x80005818:  00078a1b          sext.w                  s4,a5
0x8000581c:  ebd1              bnez                    a5,148                  # 0x800058b0

----------------
IN: 
Priv: 3; Virt: 0
0x800058b0:  03000b93          addi                    s7,zero,48
0x800058b4:  4a81              mv                      s5,zero
0x800058b6:  4a01              mv                      s4,zero
0x800058b8:  b745              j                       -96                     # 0x80005858

----------------
IN: 
Priv: 3; Virt: 0
0x800066ac:  00010517          auipc                   a0,16                   # 0x800166ac
0x800066b0:  f1450513          addi                    a0,a0,-236
0x800066b4:  f00ff0ef          jal                     ra,-2304                # 0x80005db4

----------------
IN: 
Priv: 3; Virt: 0
0x800066b8:  689c              ld                      a5,16(s1)
0x800066ba:  0027f713          andi                    a4,a5,2
0x800066be:  cb11              beqz                    a4,20                   # 0x800066d2

----------------
IN: 
Priv: 3; Virt: 0
0x800066c0:  02c00593          addi                    a1,zero,44
0x800066c4:  00010517          auipc                   a0,16                   # 0x800166c4
0x800066c8:  f0450513          addi                    a0,a0,-252
0x800066cc:  ee8ff0ef          jal                     ra,-2328                # 0x80005db4

----------------
IN: 
Priv: 3; Virt: 0
0x800066d0:  689c              ld                      a5,16(s1)
0x800066d2:  8b91              andi                    a5,a5,4
0x800066d4:  f0078ce3          beqz                    a5,-232                 # 0x800065ec

----------------
IN: 
Priv: 3; Virt: 0
0x800066d8:  02c00593          addi                    a1,zero,44
0x800066dc:  00010517          auipc                   a0,16                   # 0x800166dc
0x800066e0:  ef450513          addi                    a0,a0,-268
0x800066e4:  ed0ff0ef          jal                     ra,-2352                # 0x80005db4

----------------
IN: 
Priv: 3; Virt: 0
0x800066e8:  85e2              mv                      a1,s8
0x800066ea:  b711              j                       -252                    # 0x800065ee

----------------
IN: 
Priv: 3; Virt: 0
0x80006602:  07893683          ld                      a3,120(s2)
0x80006606:  00092583          lw                      a1,0(s2)
0x8000660a:  864e              mv                      a2,s3
0x8000660c:  00010517          auipc                   a0,16                   # 0x8001660c
0x80006610:  f0450513          addi                    a0,a0,-252
0x80006614:  fa0ff0ef          jal                     ra,-2144                # 0x80005db4

----------------
IN: 
Priv: 3; Virt: 0
0x80006618:  07093683          ld                      a3,112(s2)
0x8000661c:  00092583          lw                      a1,0(s2)
0x80006620:  864e              mv                      a2,s3
0x80006622:  00010517          auipc                   a0,16                   # 0x80016622
0x80006626:  f1650513          addi                    a0,a0,-234
0x8000662a:  f8aff0ef          jal                     ra,-2166                # 0x80005db4

----------------
IN: 
Priv: 3; Virt: 0
0x8000662e:  00092583          lw                      a1,0(s2)
0x80006632:  864e              mv                      a2,s3
0x80006634:  00010517          auipc                   a0,16                   # 0x80016634
0x80006638:  f2c50513          addi                    a0,a0,-212
0x8000663c:  f78ff0ef          jal                     ra,-2184                # 0x80005db4

----------------
IN: 
Priv: 3; Virt: 0
0x80006640:  08093783          ld                      a5,128(s2)
0x80006644:  4705              addi                    a4,zero,1
0x80006646:  10e78363          beq                     a5,a4,262               # 0x8000674c

----------------
IN: 
Priv: 3; Virt: 0
0x8000674c:  00010517          auipc                   a0,16                   # 0x8001674c
0x80006750:  e9450513          addi                    a0,a0,-364
0x80006754:  e60ff0ef          jal                     ra,-2464                # 0x80005db4

----------------
IN: 
Priv: 3; Virt: 0
0x80006758:  b719              j                       -250                    # 0x8000665e

----------------
IN: 
Priv: 3; Virt: 0
0x8000665e:  08892783          lw                      a5,136(s2)
0x80006662:  00092583          lw                      a1,0(s2)
0x80006666:  00010697          auipc                   a3,16                   # 0x80016666
0x8000666a:  e3268693          addi                    a3,a3,-462
0x8000666e:  e789              bnez                    a5,10                   # 0x80006678

----------------
IN: 
Priv: 3; Virt: 0
0x80006678:  864e              mv                      a2,s3
0x8000667a:  00010517          auipc                   a0,16                   # 0x8001667a
0x8000667e:  f8650513          addi                    a0,a0,-122
0x80006682:  f32ff0ef          jal                     ra,-2254                # 0x80005db4

----------------
IN: 
Priv: 3; Virt: 0
0x80006686:  60e6              ld                      ra,88(sp)
0x80006688:  6446              ld                      s0,80(sp)
0x8000668a:  64a6              ld                      s1,72(sp)
0x8000668c:  6906              ld                      s2,64(sp)
0x8000668e:  79e2              ld                      s3,56(sp)
0x80006690:  7a42              ld                      s4,48(sp)
0x80006692:  7aa2              ld                      s5,40(sp)
0x80006694:  7b02              ld                      s6,32(sp)
0x80006696:  6be2              ld                      s7,24(sp)
0x80006698:  6c42              ld                      s8,16(sp)
0x8000669a:  6ca2              ld                      s9,8(sp)
0x8000669c:  6d02              ld                      s10,0(sp)
0x8000669e:  6125              addi                    sp,sp,96
0x800066a0:  8082              ret                     

----------------
IN: 
Priv: 3; Virt: 0
0x8000678a:  854e              mv                      a0,s3
0x8000678c:  04a1              addi                    s1,s1,8
0x8000678e:  e26ff0ef          jal                     ra,-2522                # 0x80005db4

----------------
IN: 
Priv: 3; Virt: 0
0x80006792:  ff84b503          ld                      a0,-8(s1)
0x80006796:  f57d              bnez                    a0,-18                  # 0x80006784

----------------
IN: 
Priv: 3; Virt: 0
0x80006798:  70a2              ld                      ra,40(sp)
0x8000679a:  7402              ld                      s0,32(sp)
0x8000679c:  64e2              ld                      s1,24(sp)
0x8000679e:  6942              ld                      s2,16(sp)
0x800067a0:  69a2              ld                      s3,8(sp)
0x800067a2:  6145              addi                    sp,sp,48
0x800067a4:  8082              ret                     

----------------
IN: 
Priv: 3; Virt: 0
0x80000abc:  f14027f3          csrrs                   a5,mhartid,zero

----------------
IN: 
Priv: 3; Virt: 0
0x80000ac0:  68b8              ld                      a4,80(s1)
0x80000ac2:  8b05              andi                    a4,a4,1
0x80000ac4:  0e071e63          bnez                    a4,252                  # 0x80000bc0

----------------
IN: 
Priv: 3; Virt: 0
0x80000ac8:  1782              slli                    a5,a5,32
0x80000aca:  00019717          auipc                   a4,25                   # 0x80019aca
0x80000ace:  82e73703          ld                      a4,-2002(a4)
0x80000ad2:  83f5              srli                    a5,a5,29
0x80000ad4:  97ba              add                     a5,a5,a4
0x80000ad6:  0007b983          ld                      s3,0(a5)
0x80000ada:  182030ef          jal                     ra,12674                # 0x80003c5c

----------------
IN: 
Priv: 3; Virt: 0
0x80003c5c:  301027f3          csrrs                   a5,misa,zero

----------------
IN: 
Priv: 3; Virt: 0
0x80003c60:  cf91              beqz                    a5,28                   # 0x80003c7c

----------------
IN: 
Priv: 3; Virt: 0
0x80003c62:  301022f3          csrrs                   t0,misa,zero

----------------
IN: 
Priv: 3; Virt: 0
0x80003c66:  0002a313          slti                    t1,t0,0
0x80003c6a:  0306              slli                    t1,t1,1
0x80003c6c:  0286              slli                    t0,t0,1
0x80003c6e:  0002a293          slti                    t0,t0,0
0x80003c72:  00628533          add                     a0,t0,t1
0x80003c76:  c11d              beqz                    a0,38                   # 0x80003c9c

----------------
IN: 
Priv: 3; Virt: 0
0x80003c78:  2501              sext.w                  a0,a0
0x80003c7a:  8082              ret                     

----------------
IN: 
Priv: 3; Virt: 0
0x80000ade:  8b2a              mv                      s6,a0
0x80000ae0:  12a05663          blez                    a0,300                  # 0x80000c0c

----------------
IN: 
Priv: 3; Virt: 0
0x80000ae4:  85ca              mv                      a1,s2
0x80000ae6:  00015517          auipc                   a0,21                   # 0x80015ae6
0x80000aea:  98250513          addi                    a0,a0,-1662
0x80000aee:  2c6050ef          jal                     ra,21190                # 0x80005db4

----------------
IN: 
Priv: 3; Virt: 0
0x80000af2:  01898593          addi                    a1,s3,24
0x80000af6:  00015517          auipc                   a0,21                   # 0x80015af6
0x80000afa:  99250513          addi                    a0,a0,-1646
0x80000afe:  f3040993          addi                    s3,s0,-208
0x80000b02:  2b2050ef          jal                     ra,21170                # 0x80005db4

----------------
IN: 
Priv: 3; Virt: 0
0x80000b06:  08000613          addi                    a2,zero,128
0x80000b0a:  8526              mv                      a0,s1
0x80000b0c:  85ce              mv                      a1,s3
0x80000b0e:  7ca060ef          jal                     ra,26570                # 0x800072d8

----------------
IN: 
Priv: 3; Virt: 0
0x800072d8:  1141              addi                    sp,sp,-16
0x800072da:  e022              sd                      s0,0(sp)
0x800072dc:  e406              sd                      ra,8(sp)
0x800072de:  0800              addi                    s0,sp,16
0x800072e0:  00022797          auipc                   a5,34                   # 0x800292e0
0x800072e4:  0987b783          ld                      a5,152(a5)
0x800072e8:  953e              add                     a0,a0,a5
0x800072ea:  415c              lw                      a5,4(a0)
0x800072ec:  4709              addi                    a4,zero,2
0x800072ee:  852e              mv                      a0,a1
0x800072f0:  0000f697          auipc                   a3,15                   # 0x800162f0
0x800072f4:  55868693          addi                    a3,a3,1368
0x800072f8:  85b2              mv                      a1,a2
0x800072fa:  02e78463          beq                     a5,a4,40                # 0x80007322

----------------
IN: 
Priv: 3; Virt: 0
0x800072fe:  470d              addi                    a4,zero,3
0x80007300:  0000f697          auipc                   a3,15                   # 0x80016300
0x80007304:  54068693          addi                    a3,a3,1344
0x80007308:  00e78d63          beq                     a5,a4,26                # 0x80007322

----------------
IN: 
Priv: 3; Virt: 0
0x80007322:  0000f617          auipc                   a2,15                   # 0x80016322
0x80007326:  53660613          addi                    a2,a2,1334
0x8000732a:  be1fe0ef          jal                     ra,-5152                # 0x80005f0a

----------------
IN: 
Priv: 3; Virt: 0
0x8000732e:  60a2              ld                      ra,8(sp)
0x80007330:  6402              ld                      s0,0(sp)
0x80007332:  0141              addi                    sp,sp,16
0x80007334:  8082              ret                     

----------------
IN: 
Priv: 3; Virt: 0
0x80000b12:  85ce              mv                      a1,s3
0x80000b14:  00015517          auipc                   a0,21                   # 0x80015b14
0x80000b18:  99450513          addi                    a0,a0,-1644
0x80000b1c:  298050ef          jal                     ra,21144                # 0x80005db4

----------------
IN: 
Priv: 3; Virt: 0
0x80000b20:  08000613          addi                    a2,zero,128
0x80000b24:  855a              mv                      a0,s6
0x80000b26:  85ce              mv                      a1,s3
0x80000b28:  178030ef          jal                     ra,12664                # 0x80003ca0

----------------
IN: 
Priv: 3; Virt: 0
0x80003ca0:  711d              addi                    sp,sp,-96
0x80003ca2:  e8a2              sd                      s0,80(sp)
0x80003ca4:  ec86              sd                      ra,88(sp)
0x80003ca6:  1080              addi                    s0,sp,96
0x80003ca8:  e4a6              sd                      s1,72(sp)
0x80003caa:  e0ca              sd                      s2,64(sp)
0x80003cac:  fc4e              sd                      s3,56(sp)
0x80003cae:  f852              sd                      s4,48(sp)
0x80003cb0:  f456              sd                      s5,40(sp)
0x80003cb2:  f05a              sd                      s6,32(sp)
0x80003cb4:  00012797          auipc                   a5,18                   # 0x80015cb4
0x80003cb8:  cec78793          addi                    a5,a5,-788
0x80003cbc:  0007b803          ld                      a6,0(a5)
0x80003cc0:  6794              ld                      a3,8(a5)
0x80003cc2:  6b98              ld                      a4,16(a5)
0x80003cc4:  0187c783          lbu                     a5,24(a5)
0x80003cc8:  fb043023          sd                      a6,-96(s0)
0x80003ccc:  fad43423          sd                      a3,-88(s0)
0x80003cd0:  fae43823          sd                      a4,-80(s0)
0x80003cd4:  faf40c23          sb                      a5,-72(s0)
0x80003cd8:  cdbd              beqz                    a1,126                  # 0x80003d56

----------------
IN: 
Priv: 3; Virt: 0
0x80003cda:  4791              addi                    a5,zero,4
0x80003cdc:  8aae              mv                      s5,a1
0x80003cde:  8a32              mv                      s4,a2
0x80003ce0:  08c7f563          bleu                    a2,a5,138               # 0x80003d6a

----------------
IN: 
Priv: 3; Virt: 0
0x80003ce4:  07200793          addi                    a5,zero,114
0x80003ce8:  00f58023          sb                      a5,0(a1)
0x80003cec:  07600793          addi                    a5,zero,118
0x80003cf0:  00f580a3          sb                      a5,1(a1)
0x80003cf4:  4789              addi                    a5,zero,2
0x80003cf6:  08f50e63          beq                     a0,a5,156               # 0x80003d92

----------------
IN: 
Priv: 3; Virt: 0
0x80003d92:  03600793          addi                    a5,zero,54
0x80003d96:  00f58123          sb                      a5,2(a1)
0x80003d9a:  03400793          addi                    a5,zero,52
0x80003d9e:  00f581a3          sb                      a5,3(a1)
0x80003da2:  4911              addi                    s2,zero,4
0x80003da4:  b7e1              j                       -56                     # 0x80003d6c

----------------
IN: 
Priv: 3; Virt: 0
0x80003d6c:  fa040493          addi                    s1,s0,-96
0x80003d70:  fb940b13          addi                    s6,s0,-71
0x80003d74:  b77d              j                       -82                     # 0x80003d22

----------------
IN: 
Priv: 3; Virt: 0
0x80003d22:  03497a63          bleu                    s4,s2,52                # 0x80003d56

----------------
IN: 
Priv: 3; Virt: 0
0x80003d26:  0004c983          lbu                     s3,0(s1)
0x80003d2a:  854e              mv                      a0,s3
0x80003d2c:  ed5ff0ef          jal                     ra,-300                 # 0x80003c00

----------------
IN: 
Priv: 3; Virt: 0
0x80003c14:  f9f5051b          addiw                   a0,a0,-97
0x80003c18:  0ff57713          andi                    a4,a0,255
0x80003c1c:  02e6e863          bgtu                    a4,a3,48                # 0x80003c4c

----------------
IN: 
Priv: 3; Virt: 0
0x80003c20:  4705              addi                    a4,zero,1
0x80003c22:  00a7153b          sllw                    a0,a4,a0
0x80003c26:  8d7d              and                     a0,a0,a5
0x80003c28:  2501              sext.w                  a0,a0
0x80003c2a:  8082              ret                     

----------------
IN: 
Priv: 3; Virt: 0
0x80003d30:  c901              beqz                    a0,16                   # 0x80003d40

----------------
IN: 
Priv: 3; Virt: 0
0x80003d32:  02091793          slli                    a5,s2,32
0x80003d36:  9381              srli                    a5,a5,32
0x80003d38:  97d6              add                     a5,a5,s5
0x80003d3a:  01378023          sb                      s3,0(a5)
0x80003d3e:  2905              addiw                   s2,s2,1
0x80003d40:  0485              addi                    s1,s1,1
0x80003d42:  fe9b10e3          bne                     s6,s1,-32               # 0x80003d22

----------------
IN: 
Priv: 3; Virt: 0
0x80003d40:  0485              addi                    s1,s1,1
0x80003d42:  fe9b10e3          bne                     s6,s1,-32               # 0x80003d22

----------------
IN: 
Priv: 3; Virt: 0
0x80003c4c:  4501              mv                      a0,zero
0x80003c4e:  8082              ret                     

----------------
IN: 
Priv: 3; Virt: 0
0x80003d46:  01497863          bleu                    s4,s2,16                # 0x80003d56

----------------
IN: 
Priv: 3; Virt: 0
0x80003d4a:  1902              slli                    s2,s2,32
0x80003d4c:  02095913          srli                    s2,s2,32
0x80003d50:  9956              add                     s2,s2,s5
0x80003d52:  00090023          sb                      zero,0(s2)
0x80003d56:  60e6              ld                      ra,88(sp)
0x80003d58:  6446              ld                      s0,80(sp)
0x80003d5a:  64a6              ld                      s1,72(sp)
0x80003d5c:  6906              ld                      s2,64(sp)
0x80003d5e:  79e2              ld                      s3,56(sp)
0x80003d60:  7a42              ld                      s4,48(sp)
0x80003d62:  7aa2              ld                      s5,40(sp)
0x80003d64:  7b02              ld                      s6,32(sp)
0x80003d66:  6125              addi                    sp,sp,96
0x80003d68:  8082              ret                     

----------------
IN: 
Priv: 3; Virt: 0
0x80000b2c:  85ce              mv                      a1,s3
0x80000b2e:  00015517          auipc                   a0,21                   # 0x80015b2e
0x80000b32:  99a50513          addi                    a0,a0,-1638
0x80000b36:  27e050ef          jal                     ra,21118                # 0x80005db4

----------------
IN: 
Priv: 3; Virt: 0
0x80000b3a:  08000613          addi                    a2,zero,128
0x80000b3e:  8526              mv                      a0,s1
0x80000b40:  85ce              mv                      a1,s3
0x80000b42:  045060ef          jal                     ra,26692                # 0x80007386

----------------
IN: 
Priv: 3; Virt: 0
0x80007386:  10058563          beqz                    a1,266                  # 0x80007490

----------------
IN: 
Priv: 3; Virt: 0
0x8000738a:  7119              addi                    sp,sp,-128
0x8000738c:  f8a2              sd                      s0,112(sp)
0x8000738e:  ec6e              sd                      s11,24(sp)
0x80007390:  fc86              sd                      ra,120(sp)
0x80007392:  f4a6              sd                      s1,104(sp)
0x80007394:  f0ca              sd                      s2,96(sp)
0x80007396:  ecce              sd                      s3,88(sp)
0x80007398:  e8d2              sd                      s4,80(sp)
0x8000739a:  e4d6              sd                      s5,72(sp)
0x8000739c:  e0da              sd                      s6,64(sp)
0x8000739e:  fc5e              sd                      s7,56(sp)
0x800073a0:  f862              sd                      s8,48(sp)
0x800073a2:  f466              sd                      s9,40(sp)
0x800073a4:  f06a              sd                      s10,32(sp)
0x800073a6:  0100              addi                    s0,sp,128
0x800073a8:  8db2              mv                      s11,a2
0x800073aa:  0cc05063          blez                    a2,192                  # 0x8000746a

----------------
IN: 
Priv: 3; Virt: 0
0x800073ae:  8d2e              mv                      s10,a1
0x800073b0:  00022497          auipc                   s1,34                   # 0x800293b0
0x800073b4:  fc84b483          ld                      s1,-56(s1)
0x800073b8:  94aa              add                     s1,s1,a0
0x800073ba:  4581              mv                      a1,zero
0x800073bc:  856a              mv                      a0,s10
0x800073be:  ac2fb0ef          jal                     ra,-19774               # 0x80002680

----------------
IN: 
Priv: 3; Virt: 0
0x800073c2:  649c              ld                      a5,8(s1)
0x800073c4:  cbd9              beqz                    a5,150                  # 0x8000745a

----------------
IN: 
Priv: 3; Virt: 0
0x800073c6:  4c81              mv                      s9,zero
0x800073c8:  0197d7b3          srl                     a5,a5,s9
0x800073cc:  8b85              andi                    a5,a5,1
0x800073ce:  4c01              mv                      s8,zero
0x800073d0:  4b0d              addi                    s6,zero,3
0x800073d2:  0000eb97          auipc                   s7,14                   # 0x800153d2
0x800073d6:  1feb8b93          addi                    s7,s7,510
0x800073da:  4a91              addi                    s5,zero,4
0x800073dc:  0000fa17          auipc                   s4,15                   # 0x800163dc
0x800073e0:  4a4a0a13          addi                    s4,s4,1188
0x800073e4:  0000f997          auipc                   s3,15                   # 0x800163e4
0x800073e8:  49498993          addi                    s3,s3,1172
0x800073ec:  0000f917          auipc                   s2,15                   # 0x800163ec
0x800073f0:  48490913          addi                    s2,s2,1156
0x800073f4:  c3a1              beqz                    a5,64                   # 0x80007434

----------------
IN: 
Priv: 3; Virt: 0
0x80007434:  2c85              addiw                   s9,s9,1
0x80007436:  4795              addi                    a5,zero,5
0x80007438:  00fc8f63          beq                     s9,a5,30                # 0x80007456

----------------
IN: 
Priv: 3; Virt: 0
0x8000743c:  649c              ld                      a5,8(s1)
0x8000743e:  0197d7b3          srl                     a5,a5,s9
0x80007442:  8b85              andi                    a5,a5,1
0x80007444:  dbe5              beqz                    a5,-16                  # 0x80007434

----------------
IN: 
Priv: 3; Virt: 0
0x80007446:  4585              addi                    a1,zero,1
0x80007448:  fb6c9ae3          bne                     s9,s6,-76               # 0x800073fc

----------------
IN: 
Priv: 3; Virt: 0
0x800073fc:  86d2              mv                      a3,s4
0x800073fe:  015c8963          beq                     s9,s5,18                # 0x80007410

----------------
IN: 
Priv: 3; Virt: 0
0x80007402:  4789              addi                    a5,zero,2
0x80007404:  86ce              mv                      a3,s3
0x80007406:  00bc8563          beq                     s9,a1,10                # 0x80007410

----------------
IN: 
Priv: 3; Virt: 0
0x80007410:  418d85bb          subw                    a1,s11,s8
0x80007414:  865e              mv                      a2,s7
0x80007416:  018d0533          add                     a0,s10,s8
0x8000741a:  f8d43423          sd                      a3,-120(s0)
0x8000741e:  aedfe0ef          jal                     ra,-5396                # 0x80005f0a

----------------
IN: 
Priv: 3; Virt: 0
0x80007422:  f8843683          ld                      a3,-120(s0)
0x80007426:  8536              mv                      a0,a3
0x80007428:  950fb0ef          jal                     ra,-20144               # 0x80002578

----------------
IN: 
Priv: 3; Virt: 0
0x8000742c:  001c071b          addiw                   a4,s8,1
0x80007430:  00a70c3b          addw                    s8,a4,a0
0x80007434:  2c85              addiw                   s9,s9,1
0x80007436:  4795              addi                    a5,zero,5
0x80007438:  00fc8f63          beq                     s9,a5,30                # 0x80007456

----------------
IN: 
Priv: 3; Virt: 0
0x80007456:  020c1963          bnez                    s8,50                   # 0x80007488

----------------
IN: 
Priv: 3; Virt: 0
0x80007488:  9d62              add                     s10,s10,s8
0x8000748a:  fe0d0fa3          sb                      zero,-1(s10)
0x8000748e:  bff1              j                       -36                     # 0x8000746a

----------------
IN: 
Priv: 3; Virt: 0
0x8000746a:  70e6              ld                      ra,120(sp)
0x8000746c:  7446              ld                      s0,112(sp)
0x8000746e:  74a6              ld                      s1,104(sp)
0x80007470:  7906              ld                      s2,96(sp)
0x80007472:  69e6              ld                      s3,88(sp)
0x80007474:  6a46              ld                      s4,80(sp)
0x80007476:  6aa6              ld                      s5,72(sp)
0x80007478:  6b06              ld                      s6,64(sp)
0x8000747a:  7be2              ld                      s7,56(sp)
0x8000747c:  7c42              ld                      s8,48(sp)
0x8000747e:  7ca2              ld                      s9,40(sp)
0x80007480:  7d02              ld                      s10,32(sp)
0x80007482:  6de2              ld                      s11,24(sp)
0x80007484:  6109              addi                    sp,sp,128
0x80007486:  8082              ret                     

----------------
IN: 
Priv: 3; Virt: 0
0x80000b46:  85ce              mv                      a1,s3
0x80000b48:  00015517          auipc                   a0,21                   # 0x80015b48
0x80000b4c:  9a050513          addi                    a0,a0,-1632
0x80000b50:  264050ef          jal                     ra,21092                # 0x80005db4

----------------
IN: 
Priv: 3; Virt: 0
0x80000b54:  8526              mv                      a0,s1
0x80000b56:  5ec060ef          jal                     ra,26092                # 0x80007142

----------------
IN: 
Priv: 3; Virt: 0
0x80000b5a:  0005059b          sext.w                  a1,a0
0x80000b5e:  00015517          auipc                   a0,21                   # 0x80015b5e
0x80000b62:  9aa50513          addi                    a0,a0,-1622
0x80000b66:  24e050ef          jal                     ra,21070                # 0x80005db4

----------------
IN: 
Priv: 3; Virt: 0
0x80000b6a:  8526              mv                      a0,s1
0x80000b6c:  5ee060ef          jal                     ra,26094                # 0x8000715a

----------------
IN: 
Priv: 3; Virt: 0
0x8000715a:  1141              addi                    sp,sp,-16
0x8000715c:  e422              sd                      s0,8(sp)
0x8000715e:  0800              addi                    s0,sp,16
0x80007160:  6422              ld                      s0,8(sp)
0x80007162:  00022797          auipc                   a5,34                   # 0x80029162
0x80007166:  2167b783          ld                      a5,534(a5)
0x8000716a:  953e              add                     a0,a0,a5
0x8000716c:  6d08              ld                      a0,24(a0)
0x8000716e:  0141              addi                    sp,sp,16
0x80007170:  8082              ret                     

----------------
IN: 
Priv: 3; Virt: 0
0x80000b70:  85aa              mv                      a1,a0
0x80000b72:  00015517          auipc                   a0,21                   # 0x80015b72
0x80000b76:  9b650513          addi                    a0,a0,-1610
0x80000b7a:  23a050ef          jal                     ra,21050                # 0x80005db4

----------------
IN: 
Priv: 3; Virt: 0
0x80000b7e:  8526              mv                      a0,s1
0x80000b80:  5f2060ef          jal                     ra,26098                # 0x80007172

----------------
IN: 
Priv: 3; Virt: 0
0x80007172:  1141              addi                    sp,sp,-16
0x80007174:  e422              sd                      s0,8(sp)
0x80007176:  0800              addi                    s0,sp,16
0x80007178:  6422              ld                      s0,8(sp)
0x8000717a:  00022797          auipc                   a5,34                   # 0x8002917a
0x8000717e:  1fe7b783          ld                      a5,510(a5)
0x80007182:  953e              add                     a0,a0,a5
0x80007184:  4948              lw                      a0,20(a0)
0x80007186:  0141              addi                    sp,sp,16
0x80007188:  8082              ret                     

----------------
IN: 
Priv: 3; Virt: 0
0x80000b84:  0005059b          sext.w                  a1,a0
0x80000b88:  00015517          auipc                   a0,21                   # 0x80015b88
0x80000b8c:  9c850513          addi                    a0,a0,-1592
0x80000b90:  224050ef          jal                     ra,21028                # 0x80005db4

----------------
IN: 
Priv: 3; Virt: 0
0x80000b94:  8526              mv                      a0,s1
0x80000b96:  594060ef          jal                     ra,26004                # 0x8000712a

----------------
IN: 
Priv: 3; Virt: 0
0x80000b9a:  0005059b          sext.w                  a1,a0
0x80000b9e:  00015517          auipc                   a0,21                   # 0x80015b9e
0x80000ba2:  9d250513          addi                    a0,a0,-1582
0x80000ba6:  20e050ef          jal                     ra,21006                # 0x80005db4

----------------
IN: 
Priv: 3; Virt: 0
0x80000baa:  00015617          auipc                   a2,21                   # 0x80015baa
0x80000bae:  9e660613          addi                    a2,a2,-1562
0x80000bb2:  00015597          auipc                   a1,21                   # 0x80015bb2
0x80000bb6:  9ee58593          addi                    a1,a1,-1554
0x80000bba:  8526              mv                      a0,s1
0x80000bbc:  520060ef          jal                     ra,25888                # 0x800070dc

----------------
IN: 
Priv: 3; Virt: 0
0x800070dc:  1101              addi                    sp,sp,-32
0x800070de:  e822              sd                      s0,16(sp)
0x800070e0:  e426              sd                      s1,8(sp)
0x800070e2:  e04a              sd                      s2,0(sp)
0x800070e4:  ec06              sd                      ra,24(sp)
0x800070e6:  1000              addi                    s0,sp,32
0x800070e8:  05300513          addi                    a0,zero,83
0x800070ec:  84ae              mv                      s1,a1
0x800070ee:  8932              mv                      s2,a2
0x800070f0:  b11fc0ef          jal                     ra,-13552               # 0x80003c00

----------------
IN: 
Priv: 3; Virt: 0
0x800070f4:  c50d              beqz                    a0,42                   # 0x8000711e

----------------
IN: 
Priv: 3; Virt: 0
0x800070f6:  303026f3          csrrs                   a3,mideleg,zero

----------------
IN: 
Priv: 3; Virt: 0
0x800070fa:  0000f517          auipc                   a0,15                   # 0x800160fa
0x800070fe:  6a650513          addi                    a0,a0,1702
0x80007102:  864a              mv                      a2,s2
0x80007104:  85a6              mv                      a1,s1
0x80007106:  caffe0ef          jal                     ra,-4946                # 0x80005db4

----------------
IN: 
Priv: 3; Virt: 0
0x8000710a:  302026f3          csrrs                   a3,medeleg,zero

----------------
IN: 
Priv: 3; Virt: 0
0x8000710e:  0000f517          auipc                   a0,15                   # 0x8001610e
0x80007112:  6aa50513          addi                    a0,a0,1706
0x80007116:  864a              mv                      a2,s2
0x80007118:  85a6              mv                      a1,s1
0x8000711a:  c9bfe0ef          jal                     ra,-4966                # 0x80005db4

----------------
IN: 
Priv: 3; Virt: 0
0x8000711e:  60e2              ld                      ra,24(sp)
0x80007120:  6442              ld                      s0,16(sp)
0x80007122:  64a2              ld                      s1,8(sp)
0x80007124:  6902              ld                      s2,0(sp)
0x80007126:  6105              addi                    sp,sp,32
0x80007128:  8082              ret                     

----------------
IN: 
Priv: 3; Virt: 0
0x80000bc0:  0310000f          fence                   rw,w
0x80000bc4:  4785              addi                    a5,zero,1
0x80000bc6:  0001b517          auipc                   a0,27                   # 0x8001bbc6
0x80000bca:  45250513          addi                    a0,a0,1106
0x80000bce:  00fab823          sd                      a5,16(s5)
0x80000bd2:  4981              mv                      s3,zero
0x80000bd4:  54d030ef          jal                     ra,15692                # 0x80004920

----------------
IN: 
Priv: 3; Virt: 0
0x80000bd8:  00018c17          auipc                   s8,24                   # 0x80018bd8
0x80000bdc:  7a8c3c03          ld                      s8,1960(s8)
0x80000be0:  07f00b93          addi                    s7,zero,127
0x80000be4:  0001bb17          auipc                   s6,27                   # 0x8001bbe4
0x80000be8:  43cb0b13          addi                    s6,s6,1084
0x80000bec:  01390463          beq                     s2,s3,8                 # 0x80000bf4

----------------
IN: 
Priv: 3; Virt: 0
0x80000bf4:  000c2783          lw                      a5,0(s8)
0x80000bf8:  2985              addiw                   s3,s3,1
0x80000bfa:  ff37f9e3          bleu                    s3,a5,-14               # 0x80000bec

----------------
IN: 
Priv: 3; Virt: 0
0x80000bec:  01390463          beq                     s2,s3,8                 # 0x80000bf4

----------------
IN: 
Priv: 3; Virt: 0
0x80000bf0:  033bf763          bleu                    s3,s7,46                # 0x80000c1e

----------------
IN: 
Priv: 3; Virt: 0
0x80000c1e:  4069d793          srai                    a5,s3,6
0x80000c22:  078e              slli                    a5,a5,3
0x80000c24:  97da              add                     a5,a5,s6
0x80000c26:  639c              ld                      a5,0(a5)
0x80000c28:  0137d7b3          srl                     a5,a5,s3
0x80000c2c:  8b85              andi                    a5,a5,1
0x80000c2e:  d3f9              beqz                    a5,-58                  # 0x80000bf4

----------------
IN: 
Priv: 3; Virt: 0
0x80000bfe:  0001b517          auipc                   a0,27                   # 0x8001bbfe
0x80000c02:  41a50513          addi                    a0,a0,1050
0x80000c06:  547030ef          jal                     ra,15686                # 0x8000494c

----------------
IN: 
Priv: 3; Virt: 0
0x80000c0a:  b189              j                       -958                    # 0x8000084c

----------------
IN: 
Priv: 3; Virt: 0
0x8000084c:  008ab783          ld                      a5,8(s5)
0x80000850:  85ca              mv                      a1,s2
0x80000852:  8526              mv                      a0,s1
0x80000854:  97a6              add                     a5,a5,s1
0x80000856:  6398              ld                      a4,0(a5)
0x80000858:  0705              addi                    a4,a4,1
0x8000085a:  e398              sd                      a4,0(a5)
0x8000085c:  7dd080ef          jal                     ra,36828                # 0x80009838

----------------
IN: 
Priv: 3; Virt: 0
0x80009838:  1141              addi                    sp,sp,-16
0x8000983a:  e022              sd                      s0,0(sp)
0x8000983c:  e406              sd                      ra,8(sp)
0x8000983e:  0800              addi                    s0,sp,16
0x80009840:  00020797          auipc                   a5,32                   # 0x80029840
0x80009844:  b407b783          ld                      a5,-1216(a5)
0x80009848:  953e              add                     a0,a0,a5
0x8000984a:  4601              mv                      a2,zero
0x8000984c:  4589              addi                    a1,zero,2
0x8000984e:  f0ffa0ef          jal                     ra,-20722               # 0x8000475c

----------------
IN: 
Priv: 3; Virt: 0
0x8000475c:  1141              addi                    sp,sp,-16
0x8000475e:  e422              sd                      s0,8(sp)
0x80004760:  0800              addi                    s0,sp,16
0x80004762:  87aa              mv                      a5,a0
0x80004764:  0f50000f          fence                   iorw,ow
0x80004768:  1407b52f          lr.d.aq                 a0,(a5)
0x8000476c:  00b51563          bne                     a0,a1,10                # 0x80004776

----------------
IN: 
Priv: 3; Virt: 0
0x80004770:  1cc7b72f          sc.d.aq                 a4,a2,(a5)
0x80004774:  fb75              bnez                    a4,-12                  # 0x80004768

----------------
IN: 
Priv: 3; Virt: 0
0x80004776:  6422              ld                      s0,8(sp)
0x80004778:  0141              addi                    sp,sp,16
0x8000477a:  8082              ret                     

----------------
IN: 
Priv: 3; Virt: 0
0x80009852:  2501              sext.w                  a0,a0
0x80009854:  4789              addi                    a5,zero,2
0x80009856:  00f51663          bne                     a0,a5,12                # 0x80009862

----------------
IN: 
Priv: 3; Virt: 0
0x8000985a:  60a2              ld                      ra,8(sp)
0x8000985c:  6402              ld                      s0,0(sp)
0x8000985e:  0141              addi                    sp,sp,16
0x80009860:  8082              ret                     

----------------
IN: 
Priv: 3; Virt: 0
0x80000860:  7094              ld                      a3,32(s1)
0x80000862:  6c90              ld                      a2,24(s1)
0x80000864:  688c              ld                      a1,16(s1)
0x80000866:  020a1513          slli                    a0,s4,32
0x8000086a:  4701              mv                      a4,zero
0x8000086c:  9101              srli                    a0,a0,32
0x8000086e:  583080ef          jal                     ra,36226                # 0x800095f0

----------------
IN: 
Priv: 3; Virt: 0
0x800095f0:  7139              addi                    sp,sp,-64
0x800095f2:  f822              sd                      s0,48(sp)
0x800095f4:  f426              sd                      s1,40(sp)
0x800095f6:  ec4e              sd                      s3,24(sp)
0x800095f8:  e852              sd                      s4,16(sp)
0x800095fa:  e456              sd                      s5,8(sp)
0x800095fc:  e05a              sd                      s6,0(sp)
0x800095fe:  fc06              sd                      ra,56(sp)
0x80009600:  f04a              sd                      s2,32(sp)
0x80009602:  0080              addi                    s0,sp,64
0x80009604:  4785              addi                    a5,zero,1
0x80009606:  84b6              mv                      s1,a3
0x80009608:  8b2a              mv                      s6,a0
0x8000960a:  8aae              mv                      s5,a1
0x8000960c:  8a32              mv                      s4,a2
0x8000960e:  89ba              mv                      s3,a4
0x80009610:  02f68563          beq                     a3,a5,42                # 0x8000963a

----------------
IN: 
Priv: 3; Virt: 0
0x8000963a:  05300513          addi                    a0,zero,83
0x8000963e:  dc2fa0ef          jal                     ra,-23102               # 0x80003c00

----------------
IN: 
Priv: 3; Virt: 0
0x80009642:  e511              bnez                    a0,12                   # 0x8000964e

----------------
IN: 
Priv: 3; Virt: 0
0x8000964e:  30002973          csrrs                   s2,mstatus,zero

----------------
IN: 
Priv: 3; Virt: 0
0x80009652:  77f9              lui                     a5,-2
0x80009654:  7ff78793          addi                    a5,a5,2047
0x80009658:  00f97933          and                     s2,s2,a5
0x8000965c:  04800513          addi                    a0,zero,72
0x80009660:  00b49793          slli                    a5,s1,11
0x80009664:  00f96933          or                      s2,s2,a5
0x80009668:  d98fa0ef          jal                     ra,-23144               # 0x80003c00

----------------
IN: 
Priv: 3; Virt: 0
0x8000966c:  ed19              bnez                    a0,30                   # 0x8000968a

----------------
IN: 
Priv: 3; Virt: 0
0x8000968a:  57fd              addi                    a5,zero,-1
0x8000968c:  179e              slli                    a5,a5,39
0x8000968e:  f7f78793          addi                    a5,a5,-129
0x80009692:  00f97933          and                     s2,s2,a5
0x80009696:  199e              slli                    s3,s3,39
0x80009698:  0129e933          or                      s2,s3,s2
0x8000969c:  bfd9              j                       -42                     # 0x80009672

----------------
IN: 
Priv: 3; Virt: 0
0x80009672:  30091073          csrrw                   zero,mstatus,s2

----------------
IN: 
Priv: 3; Virt: 0
0x80009676:  341a1073          csrrw                   zero,mepc,s4

----------------
IN: 
Priv: 3; Virt: 0
0x8000967a:  4785              addi                    a5,zero,1
0x8000967c:  02f48d63          beq                     s1,a5,58                # 0x800096b6

----------------
IN: 
Priv: 3; Virt: 0
0x800096b6:  105a1073          csrrw                   zero,stvec,s4

----------------
IN: 
Priv: 3; Virt: 0
0x800096ba:  14005073          csrrwi                  zero,sscratch,0

----------------
IN: 
Priv: 3; Virt: 0
0x800096be:  10405073          csrrwi                  zero,sie,0

----------------
IN: 
Priv: 3; Virt: 0
0x800096c2:  18005073          csrrwi                  zero,satp,0

----------------
IN: 
Priv: 3; Virt: 0
0x800096c6:  bf75              j                       -68                     # 0x80009682

----------------
IN: 
Priv: 3; Virt: 0
0x80009682:  855a              mv                      a0,s6
0x80009684:  85d6              mv                      a1,s5
0x80009686:  30200073          mret                    

----------------
IN: 
Priv: 1; Virt: 0
0x00000000:  00000297          auipc                   t0,0                    # 0x0
0x00000004:  02828613          addi                    a2,t0,40
0x00000008:  f1402573          csrrs                   a0,mhartid,zero

----------------
IN: 
Priv: 3; Virt: 0
0x80000408:  34021273          csrrw                   tp,mscratch,tp

----------------
IN: 
Priv: 3; Virt: 0
0x8000040c:  04523423          sd                      t0,72(tp)
0x80000410:  300022f3          csrrs                   t0,mstatus,zero

----------------
IN: 
Priv: 3; Virt: 0
0x80000414:  00b2d293          srli                    t0,t0,11
0x80000418:  0032f293          andi                    t0,t0,3
0x8000041c:  0032a293          slti                    t0,t0,3
0x80000420:  12fd              addi                    t0,t0,-1
0x80000422:  00414133          xor                     sp,sp,tp
0x80000426:  0022f2b3          and                     t0,t0,sp
0x8000042a:  00414133          xor                     sp,sp,tp
0x8000042e:  005242b3          xor                     t0,tp,t0
0x80000432:  ee22bc23          sd                      sp,-264(t0)
0x80000436:  ee828113          addi                    sp,t0,-280
0x8000043a:  04823283          ld                      t0,72(tp)
0x8000043e:  f416              sd                      t0,40(sp)
0x80000440:  34021273          csrrw                   tp,mscratch,tp

----------------
IN: 
Priv: 3; Virt: 0
0x80000444:  341022f3          csrrs                   t0,mepc,zero

----------------
IN: 
Priv: 3; Virt: 0
0x80000448:  e216              sd                      t0,256(sp)
0x8000044a:  300022f3          csrrs                   t0,mstatus,zero

----------------
IN: 
Priv: 3; Virt: 0
0x8000044e:  e616              sd                      t0,264(sp)
0x80000450:  ea02              sd                      zero,272(sp)
0x80000452:  e002              sd                      zero,0(sp)
0x80000454:  e406              sd                      ra,8(sp)
0x80000456:  ec0e              sd                      gp,24(sp)
0x80000458:  f012              sd                      tp,32(sp)
0x8000045a:  f81a              sd                      t1,48(sp)
0x8000045c:  fc1e              sd                      t2,56(sp)
0x8000045e:  e0a2              sd                      s0,64(sp)
0x80000460:  e4a6              sd                      s1,72(sp)
0x80000462:  e8aa              sd                      a0,80(sp)
0x80000464:  ecae              sd                      a1,88(sp)
0x80000466:  f0b2              sd                      a2,96(sp)
0x80000468:  f4b6              sd                      a3,104(sp)
0x8000046a:  f8ba              sd                      a4,112(sp)
0x8000046c:  fcbe              sd                      a5,120(sp)
0x8000046e:  e142              sd                      a6,128(sp)
0x80000470:  e546              sd                      a7,136(sp)
0x80000472:  e94a              sd                      s2,144(sp)
0x80000474:  ed4e              sd                      s3,152(sp)
0x80000476:  f152              sd                      s4,160(sp)
0x80000478:  f556              sd                      s5,168(sp)
0x8000047a:  f95a              sd                      s6,176(sp)
0x8000047c:  fd5e              sd                      s7,184(sp)
0x8000047e:  e1e2              sd                      s8,192(sp)
0x80000480:  e5e6              sd                      s9,200(sp)
0x80000482:  e9ea              sd                      s10,208(sp)
0x80000484:  edee              sd                      s11,216(sp)
0x80000486:  f1f2              sd                      t3,224(sp)
0x80000488:  f5f6              sd                      t4,232(sp)
0x8000048a:  f9fa              sd                      t5,240(sp)
0x8000048c:  fdfe              sd                      t6,248(sp)
0x8000048e:  00010533          add                     a0,sp,zero
0x80000492:  0e6030ef          jal                     ra,12518                # 0x80003578

----------------
IN: 
Priv: 3; Virt: 0
0x80003578:  7119              addi                    sp,sp,-128
0x8000357a:  f8a2              sd                      s0,112(sp)
0x8000357c:  f4a6              sd                      s1,104(sp)
0x8000357e:  fc86              sd                      ra,120(sp)
0x80003580:  f0ca              sd                      s2,96(sp)
0x80003582:  ecce              sd                      s3,88(sp)
0x80003584:  e8d2              sd                      s4,80(sp)
0x80003586:  e4d6              sd                      s5,72(sp)
0x80003588:  e0da              sd                      s6,64(sp)
0x8000358a:  fc5e              sd                      s7,56(sp)
0x8000358c:  f862              sd                      s8,48(sp)
0x8000358e:  0100              addi                    s0,sp,128
0x80003590:  84aa              mv                      s1,a0
0x80003592:  34202973          csrrs                   s2,mcause,zero

----------------
IN: 
Priv: 3; Virt: 0
0x80003596:  34302af3          csrrs                   s5,mtval,zero

----------------
IN: 
Priv: 3; Virt: 0
0x8000359a:  04800513          addi                    a0,zero,72
0x8000359e:  662000ef          jal                     ra,1634                 # 0x80003c00

----------------
IN: 
Priv: 3; Virt: 0
0x800035a2:  c505              beqz                    a0,40                   # 0x800035ca

----------------
IN: 
Priv: 3; Virt: 0
0x800035a4:  34b029f3          csrrs                   s3,0x34b,zero

----------------
IN: 
Priv: 3; Virt: 0
0x800035a8:  34a02a73          csrrs                   s4,0x34a,zero

----------------
IN: 
Priv: 3; Virt: 0
0x800035ac:  02094363          bltz                    s2,38                   # 0x800035d2

----------------
IN: 
Priv: 3; Virt: 0
0x800035b0:  47ad              addi                    a5,zero,11
0x800035b2:  0727e663          bgtu                    s2,a5,108               # 0x8000361e

----------------
IN: 
Priv: 3; Virt: 0
0x800035b6:  00012697          auipc                   a3,18                   # 0x800155b6
0x800035ba:  36a68693          addi                    a3,a3,874
0x800035be:  00291713          slli                    a4,s2,2
0x800035c2:  9736              add                     a4,a4,a3
0x800035c4:  431c              lw                      a5,0(a4)
0x800035c6:  97b6              add                     a5,a5,a3
0x800035c8:  8782              jr                      a5

----------------
IN: 
Priv: 3; Virt: 0
0x80003680:  85a6              mv                      a1,s1
0x80003682:  8556              mv                      a0,s5
0x80003684:  071060ef          jal                     ra,26736                # 0x80009ef4

----------------
IN: 
Priv: 3; Virt: 0
0x80009ef4:  7175              addi                    sp,sp,-144
0x80009ef6:  e122              sd                      s0,128(sp)
0x80009ef8:  fca6              sd                      s1,120(sp)
0x80009efa:  f8ca              sd                      s2,112(sp)
0x80009efc:  f4ce              sd                      s3,104(sp)
0x80009efe:  e506              sd                      ra,136(sp)
0x80009f00:  f0d2              sd                      s4,96(sp)
0x80009f02:  0900              addi                    s0,sp,144
0x80009f04:  84aa              mv                      s1,a0
0x80009f06:  4511              addi                    a0,zero,4
0x80009f08:  892e              mv                      s2,a1
0x80009f0a:  990f80ef          jal                     ra,-32368               # 0x8000209a

----------------
IN: 
Priv: 3; Virt: 0
0x8000209a:  1141              addi                    sp,sp,-16
0x8000209c:  e422              sd                      s0,8(sp)
0x8000209e:  0800              addi                    s0,sp,16
0x800020a0:  f14026f3          csrrs                   a3,mhartid,zero

----------------
IN: 
Priv: 3; Virt: 0
0x800020a4:  02069813          slli                    a6,a3,32
0x800020a8:  02085813          srli                    a6,a6,32
0x800020ac:  0001a597          auipc                   a1,26                   # 0x8001c0ac
0x800020b0:  19458593          addi                    a1,a1,404
0x800020b4:  00381793          slli                    a5,a6,3
0x800020b8:  97ae              add                     a5,a5,a1
0x800020ba:  6f90              ld                      a2,24(a5)
0x800020bc:  e609              bnez                    a2,10                   # 0x800020c6

----------------
IN: 
Priv: 3; Virt: 0
0x800020be:  4501              mv                      a0,zero
0x800020c0:  6422              ld                      s0,8(sp)
0x800020c2:  0141              addi                    sp,sp,16
0x800020c4:  8082              ret                     

----------------
IN: 
Priv: 3; Virt: 0
0x80009f0e:  498d              addi                    s3,zero,3
0x80009f10:  0034f793          andi                    a5,s1,3
0x80009f14:  03379763          bne                     a5,s3,46                # 0x80009f42

----------------
IN: 
Priv: 3; Virt: 0
0x80009f18:  00149793          slli                    a5,s1,1
0x80009f1c:  0f87f713          andi                    a4,a5,248
0x80009f20:  0000e797          auipc                   a5,14                   # 0x80017f20
0x80009f24:  61878793          addi                    a5,a5,1560
0x80009f28:  97ba              add                     a5,a5,a4
0x80009f2a:  639c              ld                      a5,0(a5)
0x80009f2c:  85ca              mv                      a1,s2
0x80009f2e:  8526              mv                      a0,s1
0x80009f30:  9782              jalr                    ra,a5,0

----------------
IN: 
Priv: 3; Virt: 0
0x80009d68:  7175              addi                    sp,sp,-144
0x80009d6a:  e122              sd                      s0,128(sp)
0x80009d6c:  f4ce              sd                      s3,104(sp)
0x80009d6e:  e4de              sd                      s7,72(sp)
0x80009d70:  e506              sd                      ra,136(sp)
0x80009d72:  fca6              sd                      s1,120(sp)
0x80009d74:  f8ca              sd                      s2,112(sp)
0x80009d76:  f0d2              sd                      s4,96(sp)
0x80009d78:  ecd6              sd                      s5,88(sp)
0x80009d7a:  e8da              sd                      s6,80(sp)
0x80009d7c:  0900              addi                    s0,sp,144
0x80009d7e:  1085b783          ld                      a5,264(a1)
0x80009d82:  00c55993          srli                    s3,a0,12
0x80009d86:  0f89f713          andi                    a4,s3,248
0x80009d8a:  83ad              srli                    a5,a5,11
0x80009d8c:  972e              add                     a4,a4,a1
0x80009d8e:  8b8d              andi                    a5,a5,3
0x80009d90:  468d              addi                    a3,zero,3
0x80009d92:  00073b03          ld                      s6,0(a4)
0x80009d96:  01455b9b          srliw                   s7,a0,20
0x80009d9a:  0ed78063          beq                     a5,a3,224               # 0x80009e7a

----------------
IN: 
Priv: 3; Virt: 0
0x80009d9e:  84aa              mv                      s1,a0
0x80009da0:  00f55a93          srli                    s5,a0,15
0x80009da4:  f7840613          addi                    a2,s0,-136
0x80009da8:  855e              mv                      a0,s7
0x80009daa:  892e              mv                      s2,a1
0x80009dac:  133080ef          jal                     ra,35122                # 0x800126de

----------------
IN: 
Priv: 3; Virt: 0
0x800126de:  7179              addi                    sp,sp,-48
0x800126e0:  f022              sd                      s0,32(sp)
0x800126e2:  e84a              sd                      s2,16(sp)
0x800126e4:  f406              sd                      ra,40(sp)
0x800126e6:  ec26              sd                      s1,24(sp)
0x800126e8:  e44e              sd                      s3,8(sp)
0x800126ea:  1800              addi                    s0,sp,48
0x800126ec:  86aa              mv                      a3,a0
0x800126ee:  8932              mv                      s2,a2
0x800126f0:  34002573          csrrs                   a0,mscratch,zero

----------------
IN: 
Priv: 3; Virt: 0
0x800126f4:  1085b483          ld                      s1,264(a1)
0x800126f8:  60500793          addi                    a5,zero,1541
0x800126fc:  00b4d593          srli                    a1,s1,11
0x80012700:  909d              srli                    s1,s1,39
0x80012702:  0035f993          andi                    s3,a1,3
0x80012706:  8885              andi                    s1,s1,1
0x80012708:  4ef68063          beq                     a3,a5,1248              # 0x80012be8

----------------
IN: 
Priv: 3; Virt: 0
0x8001270c:  77fd              lui                     a5,-1
0x8001270e:  4007879b          addiw                   a5,a5,1024
0x80012712:  9fb5              addw                    a5,a5,a3
0x80012714:  0007861b          sext.w                  a2,a5
0x80012718:  477d              addi                    a4,zero,31
0x8001271a:  4ac76863          bgtu                    a2,a4,1200              # 0x80012bca

----------------
IN: 
Priv: 3; Virt: 0
0x80012bca:  f1402673          csrrs                   a2,mhartid,zero

----------------
IN: 
Priv: 3; Virt: 0
0x80012bce:  00004597          auipc                   a1,4                    # 0x80016bce
0x80012bd2:  69a58593          addi                    a1,a1,1690
0x80012bd6:  2601              sext.w                  a2,a2
0x80012bd8:  00004517          auipc                   a0,4                    # 0x80016bd8
0x80012bdc:  5e850513          addi                    a0,a0,1512
0x80012be0:  a2af30ef          jal                     ra,-52694               # 0x80005e0a

----------------
IN: 
Priv: 3; Virt: 0
0x80005e0a:  7159              addi                    sp,sp,-112
0x80005e0c:  f022              sd                      s0,32(sp)
0x80005e0e:  f406              sd                      ra,40(sp)
0x80005e10:  1800              addi                    s0,sp,48
0x80005e12:  ec26              sd                      s1,24(sp)
0x80005e14:  e40c              sd                      a1,8(s0)
0x80005e16:  e810              sd                      a2,16(s0)
0x80005e18:  ec14              sd                      a3,24(s0)
0x80005e1a:  f018              sd                      a4,32(s0)
0x80005e1c:  f41c              sd                      a5,40(s0)
0x80005e1e:  03043823          sd                      a6,48(s0)
0x80005e22:  03143c23          sd                      a7,56(s0)
0x80005e26:  340027f3          csrrs                   a5,mscratch,zero

----------------
IN: 
Priv: 3; Virt: 0
0x80005e2a:  6bbc              ld                      a5,80(a5)
0x80005e2c:  00840713          addi                    a4,s0,8
0x80005e30:  fce43c23          sd                      a4,-40(s0)
0x80005e34:  8b89              andi                    a5,a5,2
0x80005e36:  4481              mv                      s1,zero
0x80005e38:  e799              bnez                    a5,14                   # 0x80005e46

----------------
IN: 
Priv: 3; Virt: 0
0x80005e3a:  70a2              ld                      ra,40(sp)
0x80005e3c:  7402              ld                      s0,32(sp)
0x80005e3e:  8526              mv                      a0,s1
0x80005e40:  64e2              ld                      s1,24(sp)
0x80005e42:  6165              addi                    sp,sp,112
0x80005e44:  8082              ret                     

----------------
IN: 
Priv: 3; Virt: 0
0x80012be4:  54f9              addi                    s1,zero,-2
0x80012be6:  be8d              j                       -1166                   # 0x80012758

----------------
IN: 
Priv: 3; Virt: 0
0x80012758:  70a2              ld                      ra,40(sp)
0x8001275a:  7402              ld                      s0,32(sp)
0x8001275c:  6942              ld                      s2,16(sp)
0x8001275e:  69a2              ld                      s3,8(sp)
0x80012760:  8526              mv                      a0,s1
0x80012762:  64e2              ld                      s1,24(sp)
0x80012764:  6145              addi                    sp,sp,48
0x80012766:  8082              ret                     

----------------
IN: 
Priv: 3; Virt: 0
0x80009db0:  8a2a              mv                      s4,a0
0x80009db2:  ed31              bnez                    a0,92                   # 0x80009e0e

----------------
IN: 
Priv: 3; Virt: 0
0x80009e0e:  10093783          ld                      a5,256(s2)
0x80009e12:  f8040593          addi                    a1,s0,-128
0x80009e16:  854a              mv                      a0,s2
0x80009e18:  f8f43023          sd                      a5,-128(s0)
0x80009e1c:  4789              addi                    a5,zero,2
0x80009e1e:  f8f43423          sd                      a5,-120(s0)
0x80009e22:  f8943823          sd                      s1,-112(s0)
0x80009e26:  f8043c23          sd                      zero,-104(s0)
0x80009e2a:  fa043023          sd                      zero,-96(s0)
0x80009e2e:  fa043423          sd                      zero,-88(s0)
0x80009e32:  d92f90ef          jal                     ra,-27246               # 0x800033c4

----------------
IN: 
Priv: 3; Virt: 0
0x800033c4:  7179              addi                    sp,sp,-48
0x800033c6:  f022              sd                      s0,32(sp)
0x800033c8:  e052              sd                      s4,0(sp)
0x800033ca:  f406              sd                      ra,40(sp)
0x800033cc:  ec26              sd                      s1,24(sp)
0x800033ce:  e84a              sd                      s2,16(sp)
0x800033d0:  e44e              sd                      s3,8(sp)
0x800033d2:  1800              addi                    s0,sp,48
0x800033d4:  10853783          ld                      a5,264(a0)
0x800033d8:  00b7da13          srli                    s4,a5,11
0x800033dc:  002a7713          andi                    a4,s4,2
0x800033e0:  18071a63          bnez                    a4,404                  # 0x80003574

----------------
IN: 
Priv: 3; Virt: 0
0x800033e4:  84aa              mv                      s1,a0
0x800033e6:  939d              srli                    a5,a5,39
0x800033e8:  04800513          addi                    a0,zero,72
0x800033ec:  892e              mv                      s2,a1
0x800033ee:  0017f993          andi                    s3,a5,1
0x800033f2:  003a7a13          andi                    s4,s4,3
0x800033f6:  00b000ef          jal                     ra,2058                 # 0x80003c00

----------------
IN: 
Priv: 3; Virt: 0
0x800033fa:  c945              beqz                    a0,176                  # 0x800034aa

----------------
IN: 
Priv: 3; Virt: 0
0x800033fc:  0a098763          beqz                    s3,174                  # 0x800034aa

----------------
IN: 
Priv: 3; Virt: 0
0x800034aa:  1084b703          ld                      a4,264(s1)
0x800034ae:  57fd              addi                    a5,zero,-1
0x800034b0:  179e              slli                    a5,a5,39
0x800034b2:  17fd              addi                    a5,a5,-1
0x800034b4:  8ff9              and                     a5,a5,a4
0x800034b6:  10f4b423          sd                      a5,264(s1)
0x800034ba:  04800513          addi                    a0,zero,72
0x800034be:  742000ef          jal                     ra,1858                 # 0x80003c00

----------------
IN: 
Priv: 3; Virt: 0
0x800034c2:  e12d              bnez                    a0,98                   # 0x80003524

----------------
IN: 
Priv: 3; Virt: 0
0x80003524:  60002773          csrrs                   a4,0x600,zero

----------------
IN: 
Priv: 3; Virt: 0
0x80003528:  f7f77793          andi                    a5,a4,-129
0x8000352c:  00098963          beqz                    s3,18                   # 0x8000353e

----------------
IN: 
Priv: 3; Virt: 0
0x8000353e:  02893703          ld                      a4,40(s2)
0x80003542:  fbf7f793          andi                    a5,a5,-65
0x80003546:  c319              beqz                    a4,6                    # 0x8000354c

----------------
IN: 
Priv: 3; Virt: 0
0x8000354c:  60079073          csrrw                   zero,0x600,a5

----------------
IN: 
Priv: 3; Virt: 0
0x80003550:  01893783          ld                      a5,24(s2)
0x80003554:  64379073          csrrw                   zero,0x643,a5

----------------
IN: 
Priv: 3; Virt: 0
0x80003558:  02093783          ld                      a5,32(s2)
0x8000355c:  64a79073          csrrw                   zero,0x64a,a5

----------------
IN: 
Priv: 3; Virt: 0
0x80003560:  b795              j                       -156                    # 0x800034c4

----------------
IN: 
Priv: 3; Virt: 0
0x800034c4:  01093783          ld                      a5,16(s2)
0x800034c8:  14379073          csrrw                   zero,stval,a5

----------------
IN: 
Priv: 3; Virt: 0
0x800034cc:  00093783          ld                      a5,0(s2)
0x800034d0:  14179073          csrrw                   zero,sepc,a5

----------------
IN: 
Priv: 3; Virt: 0
0x800034d4:  00893783          ld                      a5,8(s2)
0x800034d8:  14279073          csrrw                   zero,scause,a5

----------------
IN: 
Priv: 3; Virt: 0
0x800034dc:  10502773          csrrs                   a4,stvec,zero

----------------
IN: 
Priv: 3; Virt: 0
0x800034e0:  1084b783          ld                      a5,264(s1)
0x800034e4:  10e4b023          sd                      a4,256(s1)
0x800034e8:  7779              lui                     a4,-2
0x800034ea:  6ff70713          addi                    a4,a4,1791
0x800034ee:  4685              addi                    a3,zero,1
0x800034f0:  8ff9              and                     a5,a5,a4
0x800034f2:  6705              lui                     a4,1
0x800034f4:  06da0763          beq                     s4,a3,110               # 0x80003562

----------------
IN: 
Priv: 3; Virt: 0
0x80003562:  90070713          addi                    a4,a4,-1792
0x80003566:  8fd9              or                      a5,a5,a4
0x80003568:  bf59              j                       -106                    # 0x800034fe

----------------
IN: 
Priv: 3; Virt: 0
0x800034fe:  0027f713          andi                    a4,a5,2
0x80003502:  fdf7f793          andi                    a5,a5,-33
0x80003506:  c319              beqz                    a4,6                    # 0x8000350c

----------------
IN: 
Priv: 3; Virt: 0
0x8000350c:  9bf5              andi                    a5,a5,-3
0x8000350e:  10f4b423          sd                      a5,264(s1)
0x80003512:  4501              mv                      a0,zero
0x80003514:  70a2              ld                      ra,40(sp)
0x80003516:  7402              ld                      s0,32(sp)
0x80003518:  64e2              ld                      s1,24(sp)
0x8000351a:  6942              ld                      s2,16(sp)
0x8000351c:  69a2              ld                      s3,8(sp)
0x8000351e:  6a02              ld                      s4,0(sp)
0x80003520:  6145              addi                    sp,sp,48
0x80003522:  8082              ret                     

----------------
IN: 
Priv: 3; Virt: 0
0x80009e36:  8a2a              mv                      s4,a0
0x80009e38:  bf7d              j                       -66                     # 0x80009df6

----------------
IN: 
Priv: 3; Virt: 0
0x80009df6:  60aa              ld                      ra,136(sp)
0x80009df8:  640a              ld                      s0,128(sp)
0x80009dfa:  74e6              ld                      s1,120(sp)
0x80009dfc:  7946              ld                      s2,112(sp)
0x80009dfe:  79a6              ld                      s3,104(sp)
0x80009e00:  6ae6              ld                      s5,88(sp)
0x80009e02:  6b46              ld                      s6,80(sp)
0x80009e04:  6ba6              ld                      s7,72(sp)
0x80009e06:  8552              mv                      a0,s4
0x80009e08:  7a06              ld                      s4,96(sp)
0x80009e0a:  6149              addi                    sp,sp,144
0x80009e0c:  8082              ret                     

----------------
IN: 
Priv: 3; Virt: 0
0x80009f32:  60aa              ld                      ra,136(sp)
0x80009f34:  640a              ld                      s0,128(sp)
0x80009f36:  74e6              ld                      s1,120(sp)
0x80009f38:  7946              ld                      s2,112(sp)
0x80009f3a:  79a6              ld                      s3,104(sp)
0x80009f3c:  7a06              ld                      s4,96(sp)
0x80009f3e:  6149              addi                    sp,sp,144
0x80009f40:  8082              ret                     

----------------
IN: 
Priv: 3; Virt: 0
0x80003688:  00012697          auipc                   a3,18                   # 0x80015688
0x8000368c:  00868693          addi                    a3,a3,8
0x80003690:  b7d1              j                       -60                     # 0x80003654

----------------
IN: 
Priv: 3; Virt: 0
0x80003654:  e559              bnez                    a0,142                  # 0x800036e2

----------------
IN: 
Priv: 3; Virt: 0
0x80003656:  70e6              ld                      ra,120(sp)
0x80003658:  7446              ld                      s0,112(sp)
0x8000365a:  7906              ld                      s2,96(sp)
0x8000365c:  69e6              ld                      s3,88(sp)
0x8000365e:  6a46              ld                      s4,80(sp)
0x80003660:  6aa6              ld                      s5,72(sp)
0x80003662:  6b06              ld                      s6,64(sp)
0x80003664:  7be2              ld                      s7,56(sp)
0x80003666:  7c42              ld                      s8,48(sp)
0x80003668:  8526              mv                      a0,s1
0x8000366a:  74a6              ld                      s1,104(sp)
0x8000366c:  6109              addi                    sp,sp,128
0x8000366e:  8082              ret                     

----------------
IN: 
Priv: 3; Virt: 0
0x80000496:  00853083          ld                      ra,8(a0)
0x8000049a:  01053103          ld                      sp,16(a0)
0x8000049e:  01853183          ld                      gp,24(a0)
0x800004a2:  02053203          ld                      tp,32(a0)
0x800004a6:  03053303          ld                      t1,48(a0)
0x800004aa:  03853383          ld                      t2,56(a0)
0x800004ae:  6120              ld                      s0,64(a0)
0x800004b0:  6524              ld                      s1,72(a0)
0x800004b2:  6d2c              ld                      a1,88(a0)
0x800004b4:  7130              ld                      a2,96(a0)
0x800004b6:  7534              ld                      a3,104(a0)
0x800004b8:  7938              ld                      a4,112(a0)
0x800004ba:  7d3c              ld                      a5,120(a0)
0x800004bc:  08053803          ld                      a6,128(a0)
0x800004c0:  08853883          ld                      a7,136(a0)
0x800004c4:  09053903          ld                      s2,144(a0)
0x800004c8:  09853983          ld                      s3,152(a0)
0x800004cc:  0a053a03          ld                      s4,160(a0)
0x800004d0:  0a853a83          ld                      s5,168(a0)
0x800004d4:  0b053b03          ld                      s6,176(a0)
0x800004d8:  0b853b83          ld                      s7,184(a0)
0x800004dc:  0c053c03          ld                      s8,192(a0)
0x800004e0:  0c853c83          ld                      s9,200(a0)
0x800004e4:  0d053d03          ld                      s10,208(a0)
0x800004e8:  0d853d83          ld                      s11,216(a0)
0x800004ec:  0e053e03          ld                      t3,224(a0)
0x800004f0:  0e853e83          ld                      t4,232(a0)
0x800004f4:  0f053f03          ld                      t5,240(a0)
0x800004f8:  0f853f83          ld                      t6,248(a0)
0x800004fc:  10053283          ld                      t0,256(a0)
0x80000500:  34129073          csrrw                   zero,mepc,t0

----------------
IN: 
Priv: 3; Virt: 0
0x80000504:  10853283          ld                      t0,264(a0)
0x80000508:  30029073          csrrw                   zero,mstatus,t0

----------------
IN: 
Priv: 3; Virt: 0
0x8000050c:  02853283          ld                      t0,40(a0)
0x80000510:  6928              ld                      a0,80(a0)
0x80000512:  30200073          mret                    

----------------
IN: 
Priv: 3; Virt: 0
0x800000e0:  a4b9              j                       590                     # 0x8000032e

----------------
IN: 
Priv: 3; Virt: 0
0x8000032e:  4289              addi                    t0,zero,2
0x80000330:  00018317          auipc                   t1,24                   # 0x80018330
0x80000334:  ce030313          addi                    t1,t1,-800
0x80000338:  00033303          ld                      t1,0(t1)
0x8000033c:  0001              nop                     
0x8000033e:  0001              nop                     
0x80000340:  0001              nop                     
0x80000342:  fe6296e3          bne                     t0,t1,-20               # 0x8000032e

----------------
IN: 
Priv: 3; Virt: 0
0x8000037a:  0c91              addi                    s9,s9,4
0x8000037c:  0705              addi                    a4,a4,1
0x8000037e:  ff774ae3          bgt                     s7,a4,-12               # 0x80000372

----------------
IN: 
Priv: 3; Virt: 0
0x80000372:  000ce783          lwu                     a5,0(s9)
0x80000376:  01678763          beq                     a5,s6,14                # 0x80000384

----------------
IN: 
Priv: 3; Virt: 0
0x800006f2:  0589b783          ld                      a5,88(s3)
0x800006f6:  639c              ld                      a5,0(a5)
0x800006f8:  c781              beqz                    a5,8                    # 0x80000700

----------------
IN: 
Priv: 3; Virt: 0
0x80000700:  30402b73          csrrs                   s6,mie,zero

----------------
IN: 
Priv: 3; Virt: 0
0x80000704:  6705              lui                     a4,1
0x80000706:  80870993          addi                    s3,a4,-2040
0x8000070a:  3049a073          csrrs                   zero,mie,s3

----------------
IN: 
Priv: 3; Virt: 0
0x8000070e:  0001c517          auipc                   a0,28                   # 0x8001c70e
0x80000712:  90a50513          addi                    a0,a0,-1782
0x80000716:  20a040ef          jal                     ra,16906                # 0x80004920

----------------
IN: 
Priv: 3; Virt: 0
0x8000071a:  40695c13          srai                    s8,s2,6
0x8000071e:  003c1793          slli                    a5,s8,3
0x80000722:  0001cc17          auipc                   s8,28                   # 0x8001c722
0x80000726:  8fec0c13          addi                    s8,s8,-1794
0x8000072a:  9c3e              add                     s8,s8,a5
0x8000072c:  000c3783          ld                      a5,0(s8)
0x80000730:  4b85              addi                    s7,zero,1
0x80000732:  012b9bb3          sll                     s7,s7,s2
0x80000736:  0177e7b3          or                      a5,a5,s7
0x8000073a:  0001c517          auipc                   a0,28                   # 0x8001c73a
0x8000073e:  8de50513          addi                    a0,a0,-1826
0x80000742:  00fc3023          sd                      a5,0(s8)
0x80000746:  206040ef          jal                     ra,16902                # 0x8000494c

----------------
IN: 
Priv: 3; Virt: 0
0x8000074a:  0001ca97          auipc                   s5,28                   # 0x8001c74a
0x8000074e:  8b6a8a93          addi                    s5,s5,-1866
0x80000752:  874e              mv                      a4,s3
0x80000754:  010ab783          ld                      a5,16(s5)
0x80000758:  0230000f          fence                   r,rw
0x8000075c:  eb81              bnez                    a5,16                   # 0x8000076c

----------------
IN: 
Priv: 3; Virt: 0
0x8000076c:  0001c517          auipc                   a0,28                   # 0x8001c76c
0x80000770:  8ac50513          addi                    a0,a0,-1876
0x80000774:  1ac040ef          jal                     ra,16812                # 0x80004920

----------------
IN: 
Priv: 3; Virt: 0
0x80000778:  000c3783          ld                      a5,0(s8)
0x8000077c:  fffbcb93          not                     s7,s7
0x80000780:  0001c517          auipc                   a0,28                   # 0x8001c780
0x80000784:  89850513          addi                    a0,a0,-1896
0x80000788:  0177fbb3          and                     s7,a5,s7
0x8000078c:  017c3023          sd                      s7,0(s8)
0x80000790:  1bc040ef          jal                     ra,16828                # 0x8000494c

----------------
IN: 
Priv: 3; Virt: 0
0x80000794:  304b1073          csrrw                   zero,mie,s6

----------------
IN: 
Priv: 3; Virt: 0
0x80000798:  f14027f3          csrrs                   a5,mhartid,zero

----------------
IN: 
Priv: 3; Virt: 0
0x8000079c:  1782              slli                    a5,a5,32
0x8000079e:  83f5              srli                    a5,a5,29
0x800007a0:  00019717          auipc                   a4,25                   # 0x800197a0
0x800007a4:  b5873703          ld                      a4,-1192(a4)
0x800007a8:  97ba              add                     a5,a5,a4
0x800007aa:  6388              ld                      a0,0(a5)
0x800007ac:  85ca              mv                      a1,s2
0x800007ae:  781080ef          jal                     ra,36736                # 0x8000972e

----------------
IN: 
Priv: 3; Virt: 0
0x8000972e:  1101              addi                    sp,sp,-32
0x80009730:  e822              sd                      s0,16(sp)
0x80009732:  e426              sd                      s1,8(sp)
0x80009734:  ec06              sd                      ra,24(sp)
0x80009736:  1000              addi                    s0,sp,32
0x80009738:  84ae              mv                      s1,a1
0x8000973a:  8d1fc0ef          jal                     ra,-14128               # 0x8000600a

----------------
IN: 
Priv: 3; Virt: 0
0x8000600a:  1141              addi                    sp,sp,-16
0x8000600c:  e422              sd                      s0,8(sp)
0x8000600e:  0800              addi                    s0,sp,16
0x80006010:  c911              beqz                    a0,20                   # 0x80006024

----------------
IN: 
Priv: 3; Virt: 0
0x80006012:  07f00713          addi                    a4,zero,127
0x80006016:  87aa              mv                      a5,a0
0x80006018:  4501              mv                      a0,zero
0x8000601a:  00b77963          bleu                    a1,a4,18                # 0x8000602c

----------------
IN: 
Priv: 3; Virt: 0
0x8000602c:  4065d713          srai                    a4,a1,6
0x80006030:  07a1              addi                    a5,a5,8
0x80006032:  070e              slli                    a4,a4,3
0x80006034:  97ba              add                     a5,a5,a4
0x80006036:  6388              ld                      a0,0(a5)
0x80006038:  6422              ld                      s0,8(sp)
0x8000603a:  00b555b3          srl                     a1,a0,a1
0x8000603e:  0015f513          andi                    a0,a1,1
0x80006042:  0141              addi                    sp,sp,16
0x80006044:  8082              ret                     

----------------
IN: 
Priv: 3; Virt: 0
0x8000973e:  c905              beqz                    a0,48                   # 0x8000976e

----------------
IN: 
Priv: 3; Virt: 0
0x80009740:  02049593          slli                    a1,s1,32
0x80009744:  81f5              srli                    a1,a1,29
0x80009746:  00010497          auipc                   s1,16                   # 0x80019746
0x8000974a:  bc24b483          ld                      s1,-1086(s1)
0x8000974e:  95a6              add                     a1,a1,s1
0x80009750:  619c              ld                      a5,0(a1)
0x80009752:  cf91              beqz                    a5,28                   # 0x8000976e

----------------
IN: 
Priv: 3; Virt: 0
0x80009754:  00020517          auipc                   a0,32                   # 0x80029754
0x80009758:  c2c53503          ld                      a0,-980(a0)
0x8000975c:  953e              add                     a0,a0,a5
0x8000975e:  faffa0ef          jal                     ra,-20562               # 0x8000470c

----------------
IN: 
Priv: 3; Virt: 0
0x8000470c:  1141              addi                    sp,sp,-16
0x8000470e:  e422              sd                      s0,8(sp)
0x80004710:  0800              addi                    s0,sp,16
0x80004712:  6108              ld                      a0,0(a0)
0x80004714:  0aa0000f          fence                   ir,ir
0x80004718:  6422              ld                      s0,8(sp)
0x8000471a:  0141              addi                    sp,sp,16
0x8000471c:  8082              ret                     

----------------
IN: 
Priv: 3; Virt: 0
0x80009762:  2501              sext.w                  a0,a0
0x80009764:  60e2              ld                      ra,24(sp)
0x80009766:  6442              ld                      s0,16(sp)
0x80009768:  64a2              ld                      s1,8(sp)
0x8000976a:  6105              addi                    sp,sp,32
0x8000976c:  8082              ret                     

----------------
IN: 
Priv: 3; Virt: 0
0x800007b2:  e4054fe3          bltz                    a0,-418                 # 0x80000610

----------------
IN: 
Priv: 3; Virt: 0
0x800007b6:  4791              addi                    a5,zero,4
0x800007b8:  0af50d63          beq                     a0,a5,186               # 0x80000872

----------------
IN: 
Priv: 3; Virt: 0
0x800007bc:  008ab783          ld                      a5,8(s5)
0x800007c0:  0304b983          ld                      s3,48(s1)
0x800007c4:  e40786e3          beqz                    a5,-436                 # 0x80000610

----------------
IN: 
Priv: 3; Virt: 0
0x800007c8:  4601              mv                      a2,zero
0x800007ca:  85ca              mv                      a1,s2
0x800007cc:  8526              mv                      a0,s1
0x800007ce:  0ce090ef          jal                     ra,37070                # 0x8000989c

----------------
IN: 
Priv: 3; Virt: 0
0x80009906:  00020497          auipc                   s1,32                   # 0x80029906
0x8000990a:  a7a4b483          ld                      s1,-1414(s1)
0x8000990e:  94aa              add                     s1,s1,a0
0x80009910:  304029f3          csrrs                   s3,mie,zero

----------------
IN: 
Priv: 3; Virt: 0
0x80009914:  6785              lui                     a5,1
0x80009916:  80878793          addi                    a5,a5,-2040
0x8000991a:  3047a073          csrrs                   zero,mie,a5

----------------
IN: 
Priv: 3; Virt: 0
0x8000991e:  4909              addi                    s2,zero,2
0x80009920:  a019              j                       6                       # 0x80009926

----------------
IN: 
Priv: 3; Virt: 0
0x80009926:  8526              mv                      a0,s1
0x80009928:  de5fa0ef          jal                     ra,-21020               # 0x8000470c

----------------
IN: 
Priv: 3; Virt: 0
0x8000992c:  ff251be3          bne                     a0,s2,-10               # 0x80009922

----------------
IN: 
Priv: 3; Virt: 0
0x80009922:  10500073          wfi                     
0x80009926:  8526              mv                      a0,s1
0x80009928:  de5fa0ef          jal                     ra,-21020               # 0x8000470c

